ARM GAS  /tmp/ccpmCXB0.s 			page 1


   1              		.cpu cortex-m4
   2              		.arch armv7e-m
   3              		.fpu fpv4-sp-d16
   4              		.eabi_attribute 27, 1
   5              		.eabi_attribute 28, 1
   6              		.eabi_attribute 20, 1
   7              		.eabi_attribute 21, 1
   8              		.eabi_attribute 23, 3
   9              		.eabi_attribute 24, 1
  10              		.eabi_attribute 25, 1
  11              		.eabi_attribute 26, 1
  12              		.eabi_attribute 30, 1
  13              		.eabi_attribute 34, 1
  14              		.eabi_attribute 18, 4
  15              		.file	"heap_4.c"
  16              		.text
  17              	.Ltext0:
  18              		.cfi_sections	.debug_frame
  19              		.section	.text.prvHeapInit,"ax",%progbits
  20              		.align	1
  21              		.syntax unified
  22              		.thumb
  23              		.thumb_func
  25              	prvHeapInit:
  26              	.LFB9:
  27              		.file 1 "../Resources/Middlewares/Third_Party/FreeRTOS/Source/portable/MemMang/heap_4.c"
   1:../Resources/Middlewares/Third_Party/FreeRTOS/Source/portable/MemMang/heap_4.c **** /*
   2:../Resources/Middlewares/Third_Party/FreeRTOS/Source/portable/MemMang/heap_4.c ****  * FreeRTOS Kernel V10.3.1
   3:../Resources/Middlewares/Third_Party/FreeRTOS/Source/portable/MemMang/heap_4.c ****  * Copyright (C) 2020 Amazon.com, Inc. or its affiliates.  All Rights Reserved.
   4:../Resources/Middlewares/Third_Party/FreeRTOS/Source/portable/MemMang/heap_4.c ****  *
   5:../Resources/Middlewares/Third_Party/FreeRTOS/Source/portable/MemMang/heap_4.c ****  * Permission is hereby granted, free of charge, to any person obtaining a copy of
   6:../Resources/Middlewares/Third_Party/FreeRTOS/Source/portable/MemMang/heap_4.c ****  * this software and associated documentation files (the "Software"), to deal in
   7:../Resources/Middlewares/Third_Party/FreeRTOS/Source/portable/MemMang/heap_4.c ****  * the Software without restriction, including without limitation the rights to
   8:../Resources/Middlewares/Third_Party/FreeRTOS/Source/portable/MemMang/heap_4.c ****  * use, copy, modify, merge, publish, distribute, sublicense, and/or sell copies of
   9:../Resources/Middlewares/Third_Party/FreeRTOS/Source/portable/MemMang/heap_4.c ****  * the Software, and to permit persons to whom the Software is furnished to do so,
  10:../Resources/Middlewares/Third_Party/FreeRTOS/Source/portable/MemMang/heap_4.c ****  * subject to the following conditions:
  11:../Resources/Middlewares/Third_Party/FreeRTOS/Source/portable/MemMang/heap_4.c ****  *
  12:../Resources/Middlewares/Third_Party/FreeRTOS/Source/portable/MemMang/heap_4.c ****  * The above copyright notice and this permission notice shall be included in all
  13:../Resources/Middlewares/Third_Party/FreeRTOS/Source/portable/MemMang/heap_4.c ****  * copies or substantial portions of the Software.
  14:../Resources/Middlewares/Third_Party/FreeRTOS/Source/portable/MemMang/heap_4.c ****  *
  15:../Resources/Middlewares/Third_Party/FreeRTOS/Source/portable/MemMang/heap_4.c ****  * THE SOFTWARE IS PROVIDED "AS IS", WITHOUT WARRANTY OF ANY KIND, EXPRESS OR
  16:../Resources/Middlewares/Third_Party/FreeRTOS/Source/portable/MemMang/heap_4.c ****  * IMPLIED, INCLUDING BUT NOT LIMITED TO THE WARRANTIES OF MERCHANTABILITY, FITNESS
  17:../Resources/Middlewares/Third_Party/FreeRTOS/Source/portable/MemMang/heap_4.c ****  * FOR A PARTICULAR PURPOSE AND NONINFRINGEMENT. IN NO EVENT SHALL THE AUTHORS OR
  18:../Resources/Middlewares/Third_Party/FreeRTOS/Source/portable/MemMang/heap_4.c ****  * COPYRIGHT HOLDERS BE LIABLE FOR ANY CLAIM, DAMAGES OR OTHER LIABILITY, WHETHER
  19:../Resources/Middlewares/Third_Party/FreeRTOS/Source/portable/MemMang/heap_4.c ****  * IN AN ACTION OF CONTRACT, TORT OR OTHERWISE, ARISING FROM, OUT OF OR IN
  20:../Resources/Middlewares/Third_Party/FreeRTOS/Source/portable/MemMang/heap_4.c ****  * CONNECTION WITH THE SOFTWARE OR THE USE OR OTHER DEALINGS IN THE SOFTWARE.
  21:../Resources/Middlewares/Third_Party/FreeRTOS/Source/portable/MemMang/heap_4.c ****  *
  22:../Resources/Middlewares/Third_Party/FreeRTOS/Source/portable/MemMang/heap_4.c ****  * http://www.FreeRTOS.org
  23:../Resources/Middlewares/Third_Party/FreeRTOS/Source/portable/MemMang/heap_4.c ****  * http://aws.amazon.com/freertos
  24:../Resources/Middlewares/Third_Party/FreeRTOS/Source/portable/MemMang/heap_4.c ****  *
  25:../Resources/Middlewares/Third_Party/FreeRTOS/Source/portable/MemMang/heap_4.c ****  * 1 tab == 4 spaces!
  26:../Resources/Middlewares/Third_Party/FreeRTOS/Source/portable/MemMang/heap_4.c ****  */
  27:../Resources/Middlewares/Third_Party/FreeRTOS/Source/portable/MemMang/heap_4.c **** 
  28:../Resources/Middlewares/Third_Party/FreeRTOS/Source/portable/MemMang/heap_4.c **** /*
  29:../Resources/Middlewares/Third_Party/FreeRTOS/Source/portable/MemMang/heap_4.c ****  * A sample implementation of pvPortMalloc() and vPortFree() that combines
  30:../Resources/Middlewares/Third_Party/FreeRTOS/Source/portable/MemMang/heap_4.c ****  * (coalescences) adjacent memory blocks as they are freed, and in so doing
  31:../Resources/Middlewares/Third_Party/FreeRTOS/Source/portable/MemMang/heap_4.c ****  * limits memory fragmentation.
ARM GAS  /tmp/ccpmCXB0.s 			page 2


  32:../Resources/Middlewares/Third_Party/FreeRTOS/Source/portable/MemMang/heap_4.c ****  *
  33:../Resources/Middlewares/Third_Party/FreeRTOS/Source/portable/MemMang/heap_4.c ****  * See heap_1.c, heap_2.c and heap_3.c for alternative implementations, and the
  34:../Resources/Middlewares/Third_Party/FreeRTOS/Source/portable/MemMang/heap_4.c ****  * memory management pages of http://www.FreeRTOS.org for more information.
  35:../Resources/Middlewares/Third_Party/FreeRTOS/Source/portable/MemMang/heap_4.c ****  */
  36:../Resources/Middlewares/Third_Party/FreeRTOS/Source/portable/MemMang/heap_4.c **** #include <stdlib.h>
  37:../Resources/Middlewares/Third_Party/FreeRTOS/Source/portable/MemMang/heap_4.c **** 
  38:../Resources/Middlewares/Third_Party/FreeRTOS/Source/portable/MemMang/heap_4.c **** /* Defining MPU_WRAPPERS_INCLUDED_FROM_API_FILE prevents task.h from redefining
  39:../Resources/Middlewares/Third_Party/FreeRTOS/Source/portable/MemMang/heap_4.c **** all the API functions to use the MPU wrappers.  That should only be done when
  40:../Resources/Middlewares/Third_Party/FreeRTOS/Source/portable/MemMang/heap_4.c **** task.h is included from an application file. */
  41:../Resources/Middlewares/Third_Party/FreeRTOS/Source/portable/MemMang/heap_4.c **** #define MPU_WRAPPERS_INCLUDED_FROM_API_FILE
  42:../Resources/Middlewares/Third_Party/FreeRTOS/Source/portable/MemMang/heap_4.c **** 
  43:../Resources/Middlewares/Third_Party/FreeRTOS/Source/portable/MemMang/heap_4.c **** #include "FreeRTOS.h"
  44:../Resources/Middlewares/Third_Party/FreeRTOS/Source/portable/MemMang/heap_4.c **** #include "task.h"
  45:../Resources/Middlewares/Third_Party/FreeRTOS/Source/portable/MemMang/heap_4.c **** 
  46:../Resources/Middlewares/Third_Party/FreeRTOS/Source/portable/MemMang/heap_4.c **** #undef MPU_WRAPPERS_INCLUDED_FROM_API_FILE
  47:../Resources/Middlewares/Third_Party/FreeRTOS/Source/portable/MemMang/heap_4.c **** 
  48:../Resources/Middlewares/Third_Party/FreeRTOS/Source/portable/MemMang/heap_4.c **** #if( configSUPPORT_DYNAMIC_ALLOCATION == 0 )
  49:../Resources/Middlewares/Third_Party/FreeRTOS/Source/portable/MemMang/heap_4.c **** 	#error This file must not be used if configSUPPORT_DYNAMIC_ALLOCATION is 0
  50:../Resources/Middlewares/Third_Party/FreeRTOS/Source/portable/MemMang/heap_4.c **** #endif
  51:../Resources/Middlewares/Third_Party/FreeRTOS/Source/portable/MemMang/heap_4.c **** 
  52:../Resources/Middlewares/Third_Party/FreeRTOS/Source/portable/MemMang/heap_4.c **** /* Block sizes must not get too small. */
  53:../Resources/Middlewares/Third_Party/FreeRTOS/Source/portable/MemMang/heap_4.c **** #define heapMINIMUM_BLOCK_SIZE	( ( size_t ) ( xHeapStructSize << 1 ) )
  54:../Resources/Middlewares/Third_Party/FreeRTOS/Source/portable/MemMang/heap_4.c **** 
  55:../Resources/Middlewares/Third_Party/FreeRTOS/Source/portable/MemMang/heap_4.c **** /* Assumes 8bit bytes! */
  56:../Resources/Middlewares/Third_Party/FreeRTOS/Source/portable/MemMang/heap_4.c **** #define heapBITS_PER_BYTE		( ( size_t ) 8 )
  57:../Resources/Middlewares/Third_Party/FreeRTOS/Source/portable/MemMang/heap_4.c **** 
  58:../Resources/Middlewares/Third_Party/FreeRTOS/Source/portable/MemMang/heap_4.c **** /* Allocate the memory for the heap. */
  59:../Resources/Middlewares/Third_Party/FreeRTOS/Source/portable/MemMang/heap_4.c **** #if( configAPPLICATION_ALLOCATED_HEAP == 1 )
  60:../Resources/Middlewares/Third_Party/FreeRTOS/Source/portable/MemMang/heap_4.c **** 	/* The application writer has already defined the array used for the RTOS
  61:../Resources/Middlewares/Third_Party/FreeRTOS/Source/portable/MemMang/heap_4.c **** 	heap - probably so it can be placed in a special segment or address. */
  62:../Resources/Middlewares/Third_Party/FreeRTOS/Source/portable/MemMang/heap_4.c **** 	extern uint8_t ucHeap[ configTOTAL_HEAP_SIZE ];
  63:../Resources/Middlewares/Third_Party/FreeRTOS/Source/portable/MemMang/heap_4.c **** #else
  64:../Resources/Middlewares/Third_Party/FreeRTOS/Source/portable/MemMang/heap_4.c **** 	static uint8_t ucHeap[ configTOTAL_HEAP_SIZE ];
  65:../Resources/Middlewares/Third_Party/FreeRTOS/Source/portable/MemMang/heap_4.c **** #endif /* configAPPLICATION_ALLOCATED_HEAP */
  66:../Resources/Middlewares/Third_Party/FreeRTOS/Source/portable/MemMang/heap_4.c **** 
  67:../Resources/Middlewares/Third_Party/FreeRTOS/Source/portable/MemMang/heap_4.c **** /* Define the linked list structure.  This is used to link free blocks in order
  68:../Resources/Middlewares/Third_Party/FreeRTOS/Source/portable/MemMang/heap_4.c **** of their memory address. */
  69:../Resources/Middlewares/Third_Party/FreeRTOS/Source/portable/MemMang/heap_4.c **** typedef struct A_BLOCK_LINK
  70:../Resources/Middlewares/Third_Party/FreeRTOS/Source/portable/MemMang/heap_4.c **** {
  71:../Resources/Middlewares/Third_Party/FreeRTOS/Source/portable/MemMang/heap_4.c **** 	struct A_BLOCK_LINK *pxNextFreeBlock;	/*<< The next free block in the list. */
  72:../Resources/Middlewares/Third_Party/FreeRTOS/Source/portable/MemMang/heap_4.c **** 	size_t xBlockSize;						/*<< The size of the free block. */
  73:../Resources/Middlewares/Third_Party/FreeRTOS/Source/portable/MemMang/heap_4.c **** } BlockLink_t;
  74:../Resources/Middlewares/Third_Party/FreeRTOS/Source/portable/MemMang/heap_4.c **** 
  75:../Resources/Middlewares/Third_Party/FreeRTOS/Source/portable/MemMang/heap_4.c **** /*-----------------------------------------------------------*/
  76:../Resources/Middlewares/Third_Party/FreeRTOS/Source/portable/MemMang/heap_4.c **** 
  77:../Resources/Middlewares/Third_Party/FreeRTOS/Source/portable/MemMang/heap_4.c **** /*
  78:../Resources/Middlewares/Third_Party/FreeRTOS/Source/portable/MemMang/heap_4.c ****  * Inserts a block of memory that is being freed into the correct position in
  79:../Resources/Middlewares/Third_Party/FreeRTOS/Source/portable/MemMang/heap_4.c ****  * the list of free memory blocks.  The block being freed will be merged with
  80:../Resources/Middlewares/Third_Party/FreeRTOS/Source/portable/MemMang/heap_4.c ****  * the block in front it and/or the block behind it if the memory blocks are
  81:../Resources/Middlewares/Third_Party/FreeRTOS/Source/portable/MemMang/heap_4.c ****  * adjacent to each other.
  82:../Resources/Middlewares/Third_Party/FreeRTOS/Source/portable/MemMang/heap_4.c ****  */
  83:../Resources/Middlewares/Third_Party/FreeRTOS/Source/portable/MemMang/heap_4.c **** static void prvInsertBlockIntoFreeList( BlockLink_t *pxBlockToInsert );
  84:../Resources/Middlewares/Third_Party/FreeRTOS/Source/portable/MemMang/heap_4.c **** 
  85:../Resources/Middlewares/Third_Party/FreeRTOS/Source/portable/MemMang/heap_4.c **** /*
  86:../Resources/Middlewares/Third_Party/FreeRTOS/Source/portable/MemMang/heap_4.c ****  * Called automatically to setup the required heap structures the first time
  87:../Resources/Middlewares/Third_Party/FreeRTOS/Source/portable/MemMang/heap_4.c ****  * pvPortMalloc() is called.
  88:../Resources/Middlewares/Third_Party/FreeRTOS/Source/portable/MemMang/heap_4.c ****  */
ARM GAS  /tmp/ccpmCXB0.s 			page 3


  89:../Resources/Middlewares/Third_Party/FreeRTOS/Source/portable/MemMang/heap_4.c **** static void prvHeapInit( void );
  90:../Resources/Middlewares/Third_Party/FreeRTOS/Source/portable/MemMang/heap_4.c **** 
  91:../Resources/Middlewares/Third_Party/FreeRTOS/Source/portable/MemMang/heap_4.c **** /*-----------------------------------------------------------*/
  92:../Resources/Middlewares/Third_Party/FreeRTOS/Source/portable/MemMang/heap_4.c **** 
  93:../Resources/Middlewares/Third_Party/FreeRTOS/Source/portable/MemMang/heap_4.c **** /* The size of the structure placed at the beginning of each allocated memory
  94:../Resources/Middlewares/Third_Party/FreeRTOS/Source/portable/MemMang/heap_4.c **** block must by correctly byte aligned. */
  95:../Resources/Middlewares/Third_Party/FreeRTOS/Source/portable/MemMang/heap_4.c **** static const size_t xHeapStructSize	= ( sizeof( BlockLink_t ) + ( ( size_t ) ( portBYTE_ALIGNMENT -
  96:../Resources/Middlewares/Third_Party/FreeRTOS/Source/portable/MemMang/heap_4.c **** 
  97:../Resources/Middlewares/Third_Party/FreeRTOS/Source/portable/MemMang/heap_4.c **** /* Create a couple of list links to mark the start and end of the list. */
  98:../Resources/Middlewares/Third_Party/FreeRTOS/Source/portable/MemMang/heap_4.c **** static BlockLink_t xStart, *pxEnd = NULL;
  99:../Resources/Middlewares/Third_Party/FreeRTOS/Source/portable/MemMang/heap_4.c **** 
 100:../Resources/Middlewares/Third_Party/FreeRTOS/Source/portable/MemMang/heap_4.c **** /* Keeps track of the number of calls to allocate and free memory as well as the
 101:../Resources/Middlewares/Third_Party/FreeRTOS/Source/portable/MemMang/heap_4.c **** number of free bytes remaining, but says nothing about fragmentation. */
 102:../Resources/Middlewares/Third_Party/FreeRTOS/Source/portable/MemMang/heap_4.c **** static size_t xFreeBytesRemaining = 0U;
 103:../Resources/Middlewares/Third_Party/FreeRTOS/Source/portable/MemMang/heap_4.c **** static size_t xMinimumEverFreeBytesRemaining = 0U;
 104:../Resources/Middlewares/Third_Party/FreeRTOS/Source/portable/MemMang/heap_4.c **** static size_t xNumberOfSuccessfulAllocations = 0;
 105:../Resources/Middlewares/Third_Party/FreeRTOS/Source/portable/MemMang/heap_4.c **** static size_t xNumberOfSuccessfulFrees = 0;
 106:../Resources/Middlewares/Third_Party/FreeRTOS/Source/portable/MemMang/heap_4.c **** 
 107:../Resources/Middlewares/Third_Party/FreeRTOS/Source/portable/MemMang/heap_4.c **** /* Gets set to the top bit of an size_t type.  When this bit in the xBlockSize
 108:../Resources/Middlewares/Third_Party/FreeRTOS/Source/portable/MemMang/heap_4.c **** member of an BlockLink_t structure is set then the block belongs to the
 109:../Resources/Middlewares/Third_Party/FreeRTOS/Source/portable/MemMang/heap_4.c **** application.  When the bit is free the block is still part of the free heap
 110:../Resources/Middlewares/Third_Party/FreeRTOS/Source/portable/MemMang/heap_4.c **** space. */
 111:../Resources/Middlewares/Third_Party/FreeRTOS/Source/portable/MemMang/heap_4.c **** static size_t xBlockAllocatedBit = 0;
 112:../Resources/Middlewares/Third_Party/FreeRTOS/Source/portable/MemMang/heap_4.c **** 
 113:../Resources/Middlewares/Third_Party/FreeRTOS/Source/portable/MemMang/heap_4.c **** /*-----------------------------------------------------------*/
 114:../Resources/Middlewares/Third_Party/FreeRTOS/Source/portable/MemMang/heap_4.c **** 
 115:../Resources/Middlewares/Third_Party/FreeRTOS/Source/portable/MemMang/heap_4.c **** void *pvPortMalloc( size_t xWantedSize )
 116:../Resources/Middlewares/Third_Party/FreeRTOS/Source/portable/MemMang/heap_4.c **** {
 117:../Resources/Middlewares/Third_Party/FreeRTOS/Source/portable/MemMang/heap_4.c **** BlockLink_t *pxBlock, *pxPreviousBlock, *pxNewBlockLink;
 118:../Resources/Middlewares/Third_Party/FreeRTOS/Source/portable/MemMang/heap_4.c **** void *pvReturn = NULL;
 119:../Resources/Middlewares/Third_Party/FreeRTOS/Source/portable/MemMang/heap_4.c **** 
 120:../Resources/Middlewares/Third_Party/FreeRTOS/Source/portable/MemMang/heap_4.c **** 	vTaskSuspendAll();
 121:../Resources/Middlewares/Third_Party/FreeRTOS/Source/portable/MemMang/heap_4.c **** 	{
 122:../Resources/Middlewares/Third_Party/FreeRTOS/Source/portable/MemMang/heap_4.c **** 		/* If this is the first call to malloc then the heap will require
 123:../Resources/Middlewares/Third_Party/FreeRTOS/Source/portable/MemMang/heap_4.c **** 		initialisation to setup the list of free blocks. */
 124:../Resources/Middlewares/Third_Party/FreeRTOS/Source/portable/MemMang/heap_4.c **** 		if( pxEnd == NULL )
 125:../Resources/Middlewares/Third_Party/FreeRTOS/Source/portable/MemMang/heap_4.c **** 		{
 126:../Resources/Middlewares/Third_Party/FreeRTOS/Source/portable/MemMang/heap_4.c **** 			prvHeapInit();
 127:../Resources/Middlewares/Third_Party/FreeRTOS/Source/portable/MemMang/heap_4.c **** 		}
 128:../Resources/Middlewares/Third_Party/FreeRTOS/Source/portable/MemMang/heap_4.c **** 		else
 129:../Resources/Middlewares/Third_Party/FreeRTOS/Source/portable/MemMang/heap_4.c **** 		{
 130:../Resources/Middlewares/Third_Party/FreeRTOS/Source/portable/MemMang/heap_4.c **** 			mtCOVERAGE_TEST_MARKER();
 131:../Resources/Middlewares/Third_Party/FreeRTOS/Source/portable/MemMang/heap_4.c **** 		}
 132:../Resources/Middlewares/Third_Party/FreeRTOS/Source/portable/MemMang/heap_4.c **** 
 133:../Resources/Middlewares/Third_Party/FreeRTOS/Source/portable/MemMang/heap_4.c **** 		/* Check the requested block size is not so large that the top bit is
 134:../Resources/Middlewares/Third_Party/FreeRTOS/Source/portable/MemMang/heap_4.c **** 		set.  The top bit of the block size member of the BlockLink_t structure
 135:../Resources/Middlewares/Third_Party/FreeRTOS/Source/portable/MemMang/heap_4.c **** 		is used to determine who owns the block - the application or the
 136:../Resources/Middlewares/Third_Party/FreeRTOS/Source/portable/MemMang/heap_4.c **** 		kernel, so it must be free. */
 137:../Resources/Middlewares/Third_Party/FreeRTOS/Source/portable/MemMang/heap_4.c **** 		if( ( xWantedSize & xBlockAllocatedBit ) == 0 )
 138:../Resources/Middlewares/Third_Party/FreeRTOS/Source/portable/MemMang/heap_4.c **** 		{
 139:../Resources/Middlewares/Third_Party/FreeRTOS/Source/portable/MemMang/heap_4.c **** 			/* The wanted size is increased so it can contain a BlockLink_t
 140:../Resources/Middlewares/Third_Party/FreeRTOS/Source/portable/MemMang/heap_4.c **** 			structure in addition to the requested amount of bytes. */
 141:../Resources/Middlewares/Third_Party/FreeRTOS/Source/portable/MemMang/heap_4.c **** 			if( xWantedSize > 0 )
 142:../Resources/Middlewares/Third_Party/FreeRTOS/Source/portable/MemMang/heap_4.c **** 			{
 143:../Resources/Middlewares/Third_Party/FreeRTOS/Source/portable/MemMang/heap_4.c **** 				xWantedSize += xHeapStructSize;
 144:../Resources/Middlewares/Third_Party/FreeRTOS/Source/portable/MemMang/heap_4.c **** 
 145:../Resources/Middlewares/Third_Party/FreeRTOS/Source/portable/MemMang/heap_4.c **** 				/* Ensure that blocks are always aligned to the required number
ARM GAS  /tmp/ccpmCXB0.s 			page 4


 146:../Resources/Middlewares/Third_Party/FreeRTOS/Source/portable/MemMang/heap_4.c **** 				of bytes. */
 147:../Resources/Middlewares/Third_Party/FreeRTOS/Source/portable/MemMang/heap_4.c **** 				if( ( xWantedSize & portBYTE_ALIGNMENT_MASK ) != 0x00 )
 148:../Resources/Middlewares/Third_Party/FreeRTOS/Source/portable/MemMang/heap_4.c **** 				{
 149:../Resources/Middlewares/Third_Party/FreeRTOS/Source/portable/MemMang/heap_4.c **** 					/* Byte alignment required. */
 150:../Resources/Middlewares/Third_Party/FreeRTOS/Source/portable/MemMang/heap_4.c **** 					xWantedSize += ( portBYTE_ALIGNMENT - ( xWantedSize & portBYTE_ALIGNMENT_MASK ) );
 151:../Resources/Middlewares/Third_Party/FreeRTOS/Source/portable/MemMang/heap_4.c **** 					configASSERT( ( xWantedSize & portBYTE_ALIGNMENT_MASK ) == 0 );
 152:../Resources/Middlewares/Third_Party/FreeRTOS/Source/portable/MemMang/heap_4.c **** 				}
 153:../Resources/Middlewares/Third_Party/FreeRTOS/Source/portable/MemMang/heap_4.c **** 				else
 154:../Resources/Middlewares/Third_Party/FreeRTOS/Source/portable/MemMang/heap_4.c **** 				{
 155:../Resources/Middlewares/Third_Party/FreeRTOS/Source/portable/MemMang/heap_4.c **** 					mtCOVERAGE_TEST_MARKER();
 156:../Resources/Middlewares/Third_Party/FreeRTOS/Source/portable/MemMang/heap_4.c **** 				}
 157:../Resources/Middlewares/Third_Party/FreeRTOS/Source/portable/MemMang/heap_4.c **** 			}
 158:../Resources/Middlewares/Third_Party/FreeRTOS/Source/portable/MemMang/heap_4.c **** 			else
 159:../Resources/Middlewares/Third_Party/FreeRTOS/Source/portable/MemMang/heap_4.c **** 			{
 160:../Resources/Middlewares/Third_Party/FreeRTOS/Source/portable/MemMang/heap_4.c **** 				mtCOVERAGE_TEST_MARKER();
 161:../Resources/Middlewares/Third_Party/FreeRTOS/Source/portable/MemMang/heap_4.c **** 			}
 162:../Resources/Middlewares/Third_Party/FreeRTOS/Source/portable/MemMang/heap_4.c **** 
 163:../Resources/Middlewares/Third_Party/FreeRTOS/Source/portable/MemMang/heap_4.c **** 			if( ( xWantedSize > 0 ) && ( xWantedSize <= xFreeBytesRemaining ) )
 164:../Resources/Middlewares/Third_Party/FreeRTOS/Source/portable/MemMang/heap_4.c **** 			{
 165:../Resources/Middlewares/Third_Party/FreeRTOS/Source/portable/MemMang/heap_4.c **** 				/* Traverse the list from the start	(lowest address) block until
 166:../Resources/Middlewares/Third_Party/FreeRTOS/Source/portable/MemMang/heap_4.c **** 				one	of adequate size is found. */
 167:../Resources/Middlewares/Third_Party/FreeRTOS/Source/portable/MemMang/heap_4.c **** 				pxPreviousBlock = &xStart;
 168:../Resources/Middlewares/Third_Party/FreeRTOS/Source/portable/MemMang/heap_4.c **** 				pxBlock = xStart.pxNextFreeBlock;
 169:../Resources/Middlewares/Third_Party/FreeRTOS/Source/portable/MemMang/heap_4.c **** 				while( ( pxBlock->xBlockSize < xWantedSize ) && ( pxBlock->pxNextFreeBlock != NULL ) )
 170:../Resources/Middlewares/Third_Party/FreeRTOS/Source/portable/MemMang/heap_4.c **** 				{
 171:../Resources/Middlewares/Third_Party/FreeRTOS/Source/portable/MemMang/heap_4.c **** 					pxPreviousBlock = pxBlock;
 172:../Resources/Middlewares/Third_Party/FreeRTOS/Source/portable/MemMang/heap_4.c **** 					pxBlock = pxBlock->pxNextFreeBlock;
 173:../Resources/Middlewares/Third_Party/FreeRTOS/Source/portable/MemMang/heap_4.c **** 				}
 174:../Resources/Middlewares/Third_Party/FreeRTOS/Source/portable/MemMang/heap_4.c **** 
 175:../Resources/Middlewares/Third_Party/FreeRTOS/Source/portable/MemMang/heap_4.c **** 				/* If the end marker was reached then a block of adequate size
 176:../Resources/Middlewares/Third_Party/FreeRTOS/Source/portable/MemMang/heap_4.c **** 				was	not found. */
 177:../Resources/Middlewares/Third_Party/FreeRTOS/Source/portable/MemMang/heap_4.c **** 				if( pxBlock != pxEnd )
 178:../Resources/Middlewares/Third_Party/FreeRTOS/Source/portable/MemMang/heap_4.c **** 				{
 179:../Resources/Middlewares/Third_Party/FreeRTOS/Source/portable/MemMang/heap_4.c **** 					/* Return the memory space pointed to - jumping over the
 180:../Resources/Middlewares/Third_Party/FreeRTOS/Source/portable/MemMang/heap_4.c **** 					BlockLink_t structure at its start. */
 181:../Resources/Middlewares/Third_Party/FreeRTOS/Source/portable/MemMang/heap_4.c **** 					pvReturn = ( void * ) ( ( ( uint8_t * ) pxPreviousBlock->pxNextFreeBlock ) + xHeapStructSize )
 182:../Resources/Middlewares/Third_Party/FreeRTOS/Source/portable/MemMang/heap_4.c **** 
 183:../Resources/Middlewares/Third_Party/FreeRTOS/Source/portable/MemMang/heap_4.c **** 					/* This block is being returned for use so must be taken out
 184:../Resources/Middlewares/Third_Party/FreeRTOS/Source/portable/MemMang/heap_4.c **** 					of the list of free blocks. */
 185:../Resources/Middlewares/Third_Party/FreeRTOS/Source/portable/MemMang/heap_4.c **** 					pxPreviousBlock->pxNextFreeBlock = pxBlock->pxNextFreeBlock;
 186:../Resources/Middlewares/Third_Party/FreeRTOS/Source/portable/MemMang/heap_4.c **** 
 187:../Resources/Middlewares/Third_Party/FreeRTOS/Source/portable/MemMang/heap_4.c **** 					/* If the block is larger than required it can be split into
 188:../Resources/Middlewares/Third_Party/FreeRTOS/Source/portable/MemMang/heap_4.c **** 					two. */
 189:../Resources/Middlewares/Third_Party/FreeRTOS/Source/portable/MemMang/heap_4.c **** 					if( ( pxBlock->xBlockSize - xWantedSize ) > heapMINIMUM_BLOCK_SIZE )
 190:../Resources/Middlewares/Third_Party/FreeRTOS/Source/portable/MemMang/heap_4.c **** 					{
 191:../Resources/Middlewares/Third_Party/FreeRTOS/Source/portable/MemMang/heap_4.c **** 						/* This block is to be split into two.  Create a new
 192:../Resources/Middlewares/Third_Party/FreeRTOS/Source/portable/MemMang/heap_4.c **** 						block following the number of bytes requested. The void
 193:../Resources/Middlewares/Third_Party/FreeRTOS/Source/portable/MemMang/heap_4.c **** 						cast is used to prevent byte alignment warnings from the
 194:../Resources/Middlewares/Third_Party/FreeRTOS/Source/portable/MemMang/heap_4.c **** 						compiler. */
 195:../Resources/Middlewares/Third_Party/FreeRTOS/Source/portable/MemMang/heap_4.c **** 						pxNewBlockLink = ( void * ) ( ( ( uint8_t * ) pxBlock ) + xWantedSize );
 196:../Resources/Middlewares/Third_Party/FreeRTOS/Source/portable/MemMang/heap_4.c **** 						configASSERT( ( ( ( size_t ) pxNewBlockLink ) & portBYTE_ALIGNMENT_MASK ) == 0 );
 197:../Resources/Middlewares/Third_Party/FreeRTOS/Source/portable/MemMang/heap_4.c **** 
 198:../Resources/Middlewares/Third_Party/FreeRTOS/Source/portable/MemMang/heap_4.c **** 						/* Calculate the sizes of two blocks split from the
 199:../Resources/Middlewares/Third_Party/FreeRTOS/Source/portable/MemMang/heap_4.c **** 						single block. */
 200:../Resources/Middlewares/Third_Party/FreeRTOS/Source/portable/MemMang/heap_4.c **** 						pxNewBlockLink->xBlockSize = pxBlock->xBlockSize - xWantedSize;
 201:../Resources/Middlewares/Third_Party/FreeRTOS/Source/portable/MemMang/heap_4.c **** 						pxBlock->xBlockSize = xWantedSize;
 202:../Resources/Middlewares/Third_Party/FreeRTOS/Source/portable/MemMang/heap_4.c **** 
ARM GAS  /tmp/ccpmCXB0.s 			page 5


 203:../Resources/Middlewares/Third_Party/FreeRTOS/Source/portable/MemMang/heap_4.c **** 						/* Insert the new block into the list of free blocks. */
 204:../Resources/Middlewares/Third_Party/FreeRTOS/Source/portable/MemMang/heap_4.c **** 						prvInsertBlockIntoFreeList( pxNewBlockLink );
 205:../Resources/Middlewares/Third_Party/FreeRTOS/Source/portable/MemMang/heap_4.c **** 					}
 206:../Resources/Middlewares/Third_Party/FreeRTOS/Source/portable/MemMang/heap_4.c **** 					else
 207:../Resources/Middlewares/Third_Party/FreeRTOS/Source/portable/MemMang/heap_4.c **** 					{
 208:../Resources/Middlewares/Third_Party/FreeRTOS/Source/portable/MemMang/heap_4.c **** 						mtCOVERAGE_TEST_MARKER();
 209:../Resources/Middlewares/Third_Party/FreeRTOS/Source/portable/MemMang/heap_4.c **** 					}
 210:../Resources/Middlewares/Third_Party/FreeRTOS/Source/portable/MemMang/heap_4.c **** 
 211:../Resources/Middlewares/Third_Party/FreeRTOS/Source/portable/MemMang/heap_4.c **** 					xFreeBytesRemaining -= pxBlock->xBlockSize;
 212:../Resources/Middlewares/Third_Party/FreeRTOS/Source/portable/MemMang/heap_4.c **** 
 213:../Resources/Middlewares/Third_Party/FreeRTOS/Source/portable/MemMang/heap_4.c **** 					if( xFreeBytesRemaining < xMinimumEverFreeBytesRemaining )
 214:../Resources/Middlewares/Third_Party/FreeRTOS/Source/portable/MemMang/heap_4.c **** 					{
 215:../Resources/Middlewares/Third_Party/FreeRTOS/Source/portable/MemMang/heap_4.c **** 						xMinimumEverFreeBytesRemaining = xFreeBytesRemaining;
 216:../Resources/Middlewares/Third_Party/FreeRTOS/Source/portable/MemMang/heap_4.c **** 					}
 217:../Resources/Middlewares/Third_Party/FreeRTOS/Source/portable/MemMang/heap_4.c **** 					else
 218:../Resources/Middlewares/Third_Party/FreeRTOS/Source/portable/MemMang/heap_4.c **** 					{
 219:../Resources/Middlewares/Third_Party/FreeRTOS/Source/portable/MemMang/heap_4.c **** 						mtCOVERAGE_TEST_MARKER();
 220:../Resources/Middlewares/Third_Party/FreeRTOS/Source/portable/MemMang/heap_4.c **** 					}
 221:../Resources/Middlewares/Third_Party/FreeRTOS/Source/portable/MemMang/heap_4.c **** 
 222:../Resources/Middlewares/Third_Party/FreeRTOS/Source/portable/MemMang/heap_4.c **** 					/* The block is being returned - it is allocated and owned
 223:../Resources/Middlewares/Third_Party/FreeRTOS/Source/portable/MemMang/heap_4.c **** 					by the application and has no "next" block. */
 224:../Resources/Middlewares/Third_Party/FreeRTOS/Source/portable/MemMang/heap_4.c **** 					pxBlock->xBlockSize |= xBlockAllocatedBit;
 225:../Resources/Middlewares/Third_Party/FreeRTOS/Source/portable/MemMang/heap_4.c **** 					pxBlock->pxNextFreeBlock = NULL;
 226:../Resources/Middlewares/Third_Party/FreeRTOS/Source/portable/MemMang/heap_4.c **** 					xNumberOfSuccessfulAllocations++;
 227:../Resources/Middlewares/Third_Party/FreeRTOS/Source/portable/MemMang/heap_4.c **** 				}
 228:../Resources/Middlewares/Third_Party/FreeRTOS/Source/portable/MemMang/heap_4.c **** 				else
 229:../Resources/Middlewares/Third_Party/FreeRTOS/Source/portable/MemMang/heap_4.c **** 				{
 230:../Resources/Middlewares/Third_Party/FreeRTOS/Source/portable/MemMang/heap_4.c **** 					mtCOVERAGE_TEST_MARKER();
 231:../Resources/Middlewares/Third_Party/FreeRTOS/Source/portable/MemMang/heap_4.c **** 				}
 232:../Resources/Middlewares/Third_Party/FreeRTOS/Source/portable/MemMang/heap_4.c **** 			}
 233:../Resources/Middlewares/Third_Party/FreeRTOS/Source/portable/MemMang/heap_4.c **** 			else
 234:../Resources/Middlewares/Third_Party/FreeRTOS/Source/portable/MemMang/heap_4.c **** 			{
 235:../Resources/Middlewares/Third_Party/FreeRTOS/Source/portable/MemMang/heap_4.c **** 				mtCOVERAGE_TEST_MARKER();
 236:../Resources/Middlewares/Third_Party/FreeRTOS/Source/portable/MemMang/heap_4.c **** 			}
 237:../Resources/Middlewares/Third_Party/FreeRTOS/Source/portable/MemMang/heap_4.c **** 		}
 238:../Resources/Middlewares/Third_Party/FreeRTOS/Source/portable/MemMang/heap_4.c **** 		else
 239:../Resources/Middlewares/Third_Party/FreeRTOS/Source/portable/MemMang/heap_4.c **** 		{
 240:../Resources/Middlewares/Third_Party/FreeRTOS/Source/portable/MemMang/heap_4.c **** 			mtCOVERAGE_TEST_MARKER();
 241:../Resources/Middlewares/Third_Party/FreeRTOS/Source/portable/MemMang/heap_4.c **** 		}
 242:../Resources/Middlewares/Third_Party/FreeRTOS/Source/portable/MemMang/heap_4.c **** 
 243:../Resources/Middlewares/Third_Party/FreeRTOS/Source/portable/MemMang/heap_4.c **** 		traceMALLOC( pvReturn, xWantedSize );
 244:../Resources/Middlewares/Third_Party/FreeRTOS/Source/portable/MemMang/heap_4.c **** 	}
 245:../Resources/Middlewares/Third_Party/FreeRTOS/Source/portable/MemMang/heap_4.c **** 	( void ) xTaskResumeAll();
 246:../Resources/Middlewares/Third_Party/FreeRTOS/Source/portable/MemMang/heap_4.c **** 
 247:../Resources/Middlewares/Third_Party/FreeRTOS/Source/portable/MemMang/heap_4.c **** 	#if( configUSE_MALLOC_FAILED_HOOK == 1 )
 248:../Resources/Middlewares/Third_Party/FreeRTOS/Source/portable/MemMang/heap_4.c **** 	{
 249:../Resources/Middlewares/Third_Party/FreeRTOS/Source/portable/MemMang/heap_4.c **** 		if( pvReturn == NULL )
 250:../Resources/Middlewares/Third_Party/FreeRTOS/Source/portable/MemMang/heap_4.c **** 		{
 251:../Resources/Middlewares/Third_Party/FreeRTOS/Source/portable/MemMang/heap_4.c **** 			extern void vApplicationMallocFailedHook( void );
 252:../Resources/Middlewares/Third_Party/FreeRTOS/Source/portable/MemMang/heap_4.c **** 			vApplicationMallocFailedHook();
 253:../Resources/Middlewares/Third_Party/FreeRTOS/Source/portable/MemMang/heap_4.c **** 		}
 254:../Resources/Middlewares/Third_Party/FreeRTOS/Source/portable/MemMang/heap_4.c **** 		else
 255:../Resources/Middlewares/Third_Party/FreeRTOS/Source/portable/MemMang/heap_4.c **** 		{
 256:../Resources/Middlewares/Third_Party/FreeRTOS/Source/portable/MemMang/heap_4.c **** 			mtCOVERAGE_TEST_MARKER();
 257:../Resources/Middlewares/Third_Party/FreeRTOS/Source/portable/MemMang/heap_4.c **** 		}
 258:../Resources/Middlewares/Third_Party/FreeRTOS/Source/portable/MemMang/heap_4.c **** 	}
 259:../Resources/Middlewares/Third_Party/FreeRTOS/Source/portable/MemMang/heap_4.c **** 	#endif
ARM GAS  /tmp/ccpmCXB0.s 			page 6


 260:../Resources/Middlewares/Third_Party/FreeRTOS/Source/portable/MemMang/heap_4.c **** 
 261:../Resources/Middlewares/Third_Party/FreeRTOS/Source/portable/MemMang/heap_4.c **** 	configASSERT( ( ( ( size_t ) pvReturn ) & ( size_t ) portBYTE_ALIGNMENT_MASK ) == 0 );
 262:../Resources/Middlewares/Third_Party/FreeRTOS/Source/portable/MemMang/heap_4.c **** 	return pvReturn;
 263:../Resources/Middlewares/Third_Party/FreeRTOS/Source/portable/MemMang/heap_4.c **** }
 264:../Resources/Middlewares/Third_Party/FreeRTOS/Source/portable/MemMang/heap_4.c **** /*-----------------------------------------------------------*/
 265:../Resources/Middlewares/Third_Party/FreeRTOS/Source/portable/MemMang/heap_4.c **** 
 266:../Resources/Middlewares/Third_Party/FreeRTOS/Source/portable/MemMang/heap_4.c **** void vPortFree( void *pv )
 267:../Resources/Middlewares/Third_Party/FreeRTOS/Source/portable/MemMang/heap_4.c **** {
 268:../Resources/Middlewares/Third_Party/FreeRTOS/Source/portable/MemMang/heap_4.c **** uint8_t *puc = ( uint8_t * ) pv;
 269:../Resources/Middlewares/Third_Party/FreeRTOS/Source/portable/MemMang/heap_4.c **** BlockLink_t *pxLink;
 270:../Resources/Middlewares/Third_Party/FreeRTOS/Source/portable/MemMang/heap_4.c **** 
 271:../Resources/Middlewares/Third_Party/FreeRTOS/Source/portable/MemMang/heap_4.c **** 	if( pv != NULL )
 272:../Resources/Middlewares/Third_Party/FreeRTOS/Source/portable/MemMang/heap_4.c **** 	{
 273:../Resources/Middlewares/Third_Party/FreeRTOS/Source/portable/MemMang/heap_4.c **** 		/* The memory being freed will have an BlockLink_t structure immediately
 274:../Resources/Middlewares/Third_Party/FreeRTOS/Source/portable/MemMang/heap_4.c **** 		before it. */
 275:../Resources/Middlewares/Third_Party/FreeRTOS/Source/portable/MemMang/heap_4.c **** 		puc -= xHeapStructSize;
 276:../Resources/Middlewares/Third_Party/FreeRTOS/Source/portable/MemMang/heap_4.c **** 
 277:../Resources/Middlewares/Third_Party/FreeRTOS/Source/portable/MemMang/heap_4.c **** 		/* This casting is to keep the compiler from issuing warnings. */
 278:../Resources/Middlewares/Third_Party/FreeRTOS/Source/portable/MemMang/heap_4.c **** 		pxLink = ( void * ) puc;
 279:../Resources/Middlewares/Third_Party/FreeRTOS/Source/portable/MemMang/heap_4.c **** 
 280:../Resources/Middlewares/Third_Party/FreeRTOS/Source/portable/MemMang/heap_4.c **** 		/* Check the block is actually allocated. */
 281:../Resources/Middlewares/Third_Party/FreeRTOS/Source/portable/MemMang/heap_4.c **** 		configASSERT( ( pxLink->xBlockSize & xBlockAllocatedBit ) != 0 );
 282:../Resources/Middlewares/Third_Party/FreeRTOS/Source/portable/MemMang/heap_4.c **** 		configASSERT( pxLink->pxNextFreeBlock == NULL );
 283:../Resources/Middlewares/Third_Party/FreeRTOS/Source/portable/MemMang/heap_4.c **** 
 284:../Resources/Middlewares/Third_Party/FreeRTOS/Source/portable/MemMang/heap_4.c **** 		if( ( pxLink->xBlockSize & xBlockAllocatedBit ) != 0 )
 285:../Resources/Middlewares/Third_Party/FreeRTOS/Source/portable/MemMang/heap_4.c **** 		{
 286:../Resources/Middlewares/Third_Party/FreeRTOS/Source/portable/MemMang/heap_4.c **** 			if( pxLink->pxNextFreeBlock == NULL )
 287:../Resources/Middlewares/Third_Party/FreeRTOS/Source/portable/MemMang/heap_4.c **** 			{
 288:../Resources/Middlewares/Third_Party/FreeRTOS/Source/portable/MemMang/heap_4.c **** 				/* The block is being returned to the heap - it is no longer
 289:../Resources/Middlewares/Third_Party/FreeRTOS/Source/portable/MemMang/heap_4.c **** 				allocated. */
 290:../Resources/Middlewares/Third_Party/FreeRTOS/Source/portable/MemMang/heap_4.c **** 				pxLink->xBlockSize &= ~xBlockAllocatedBit;
 291:../Resources/Middlewares/Third_Party/FreeRTOS/Source/portable/MemMang/heap_4.c **** 
 292:../Resources/Middlewares/Third_Party/FreeRTOS/Source/portable/MemMang/heap_4.c **** 				vTaskSuspendAll();
 293:../Resources/Middlewares/Third_Party/FreeRTOS/Source/portable/MemMang/heap_4.c **** 				{
 294:../Resources/Middlewares/Third_Party/FreeRTOS/Source/portable/MemMang/heap_4.c **** 					/* Add this block to the list of free blocks. */
 295:../Resources/Middlewares/Third_Party/FreeRTOS/Source/portable/MemMang/heap_4.c **** 					xFreeBytesRemaining += pxLink->xBlockSize;
 296:../Resources/Middlewares/Third_Party/FreeRTOS/Source/portable/MemMang/heap_4.c **** 					traceFREE( pv, pxLink->xBlockSize );
 297:../Resources/Middlewares/Third_Party/FreeRTOS/Source/portable/MemMang/heap_4.c **** 					prvInsertBlockIntoFreeList( ( ( BlockLink_t * ) pxLink ) );
 298:../Resources/Middlewares/Third_Party/FreeRTOS/Source/portable/MemMang/heap_4.c **** 					xNumberOfSuccessfulFrees++;
 299:../Resources/Middlewares/Third_Party/FreeRTOS/Source/portable/MemMang/heap_4.c **** 				}
 300:../Resources/Middlewares/Third_Party/FreeRTOS/Source/portable/MemMang/heap_4.c **** 				( void ) xTaskResumeAll();
 301:../Resources/Middlewares/Third_Party/FreeRTOS/Source/portable/MemMang/heap_4.c **** 			}
 302:../Resources/Middlewares/Third_Party/FreeRTOS/Source/portable/MemMang/heap_4.c **** 			else
 303:../Resources/Middlewares/Third_Party/FreeRTOS/Source/portable/MemMang/heap_4.c **** 			{
 304:../Resources/Middlewares/Third_Party/FreeRTOS/Source/portable/MemMang/heap_4.c **** 				mtCOVERAGE_TEST_MARKER();
 305:../Resources/Middlewares/Third_Party/FreeRTOS/Source/portable/MemMang/heap_4.c **** 			}
 306:../Resources/Middlewares/Third_Party/FreeRTOS/Source/portable/MemMang/heap_4.c **** 		}
 307:../Resources/Middlewares/Third_Party/FreeRTOS/Source/portable/MemMang/heap_4.c **** 		else
 308:../Resources/Middlewares/Third_Party/FreeRTOS/Source/portable/MemMang/heap_4.c **** 		{
 309:../Resources/Middlewares/Third_Party/FreeRTOS/Source/portable/MemMang/heap_4.c **** 			mtCOVERAGE_TEST_MARKER();
 310:../Resources/Middlewares/Third_Party/FreeRTOS/Source/portable/MemMang/heap_4.c **** 		}
 311:../Resources/Middlewares/Third_Party/FreeRTOS/Source/portable/MemMang/heap_4.c **** 	}
 312:../Resources/Middlewares/Third_Party/FreeRTOS/Source/portable/MemMang/heap_4.c **** }
 313:../Resources/Middlewares/Third_Party/FreeRTOS/Source/portable/MemMang/heap_4.c **** /*-----------------------------------------------------------*/
 314:../Resources/Middlewares/Third_Party/FreeRTOS/Source/portable/MemMang/heap_4.c **** 
 315:../Resources/Middlewares/Third_Party/FreeRTOS/Source/portable/MemMang/heap_4.c **** size_t xPortGetFreeHeapSize( void )
 316:../Resources/Middlewares/Third_Party/FreeRTOS/Source/portable/MemMang/heap_4.c **** {
ARM GAS  /tmp/ccpmCXB0.s 			page 7


 317:../Resources/Middlewares/Third_Party/FreeRTOS/Source/portable/MemMang/heap_4.c **** 	return xFreeBytesRemaining;
 318:../Resources/Middlewares/Third_Party/FreeRTOS/Source/portable/MemMang/heap_4.c **** }
 319:../Resources/Middlewares/Third_Party/FreeRTOS/Source/portable/MemMang/heap_4.c **** /*-----------------------------------------------------------*/
 320:../Resources/Middlewares/Third_Party/FreeRTOS/Source/portable/MemMang/heap_4.c **** 
 321:../Resources/Middlewares/Third_Party/FreeRTOS/Source/portable/MemMang/heap_4.c **** size_t xPortGetMinimumEverFreeHeapSize( void )
 322:../Resources/Middlewares/Third_Party/FreeRTOS/Source/portable/MemMang/heap_4.c **** {
 323:../Resources/Middlewares/Third_Party/FreeRTOS/Source/portable/MemMang/heap_4.c **** 	return xMinimumEverFreeBytesRemaining;
 324:../Resources/Middlewares/Third_Party/FreeRTOS/Source/portable/MemMang/heap_4.c **** }
 325:../Resources/Middlewares/Third_Party/FreeRTOS/Source/portable/MemMang/heap_4.c **** /*-----------------------------------------------------------*/
 326:../Resources/Middlewares/Third_Party/FreeRTOS/Source/portable/MemMang/heap_4.c **** 
 327:../Resources/Middlewares/Third_Party/FreeRTOS/Source/portable/MemMang/heap_4.c **** void vPortInitialiseBlocks( void )
 328:../Resources/Middlewares/Third_Party/FreeRTOS/Source/portable/MemMang/heap_4.c **** {
 329:../Resources/Middlewares/Third_Party/FreeRTOS/Source/portable/MemMang/heap_4.c **** 	/* This just exists to keep the linker quiet. */
 330:../Resources/Middlewares/Third_Party/FreeRTOS/Source/portable/MemMang/heap_4.c **** }
 331:../Resources/Middlewares/Third_Party/FreeRTOS/Source/portable/MemMang/heap_4.c **** /*-----------------------------------------------------------*/
 332:../Resources/Middlewares/Third_Party/FreeRTOS/Source/portable/MemMang/heap_4.c **** 
 333:../Resources/Middlewares/Third_Party/FreeRTOS/Source/portable/MemMang/heap_4.c **** static void prvHeapInit( void )
 334:../Resources/Middlewares/Third_Party/FreeRTOS/Source/portable/MemMang/heap_4.c **** {
  28              		.loc 1 334 1 view -0
  29              		.cfi_startproc
  30              		@ args = 0, pretend = 0, frame = 0
  31              		@ frame_needed = 0, uses_anonymous_args = 0
  32              		@ link register save eliminated.
 335:../Resources/Middlewares/Third_Party/FreeRTOS/Source/portable/MemMang/heap_4.c **** BlockLink_t *pxFirstFreeBlock;
  33              		.loc 1 335 1 view .LVU1
 336:../Resources/Middlewares/Third_Party/FreeRTOS/Source/portable/MemMang/heap_4.c **** uint8_t *pucAlignedHeap;
  34              		.loc 1 336 1 view .LVU2
 337:../Resources/Middlewares/Third_Party/FreeRTOS/Source/portable/MemMang/heap_4.c **** size_t uxAddress;
  35              		.loc 1 337 1 view .LVU3
 338:../Resources/Middlewares/Third_Party/FreeRTOS/Source/portable/MemMang/heap_4.c **** size_t xTotalHeapSize = configTOTAL_HEAP_SIZE;
  36              		.loc 1 338 1 view .LVU4
  37              	.LVL0:
 339:../Resources/Middlewares/Third_Party/FreeRTOS/Source/portable/MemMang/heap_4.c **** 
 340:../Resources/Middlewares/Third_Party/FreeRTOS/Source/portable/MemMang/heap_4.c **** 	/* Ensure the heap starts on a correctly aligned boundary. */
 341:../Resources/Middlewares/Third_Party/FreeRTOS/Source/portable/MemMang/heap_4.c **** 	uxAddress = ( size_t ) ucHeap;
  38              		.loc 1 341 2 view .LVU5
  39              		.loc 1 341 12 is_stmt 0 view .LVU6
  40 0000 134A     		ldr	r2, .L4
  41              	.LVL1:
 342:../Resources/Middlewares/Third_Party/FreeRTOS/Source/portable/MemMang/heap_4.c **** 
 343:../Resources/Middlewares/Third_Party/FreeRTOS/Source/portable/MemMang/heap_4.c **** 	if( ( uxAddress & portBYTE_ALIGNMENT_MASK ) != 0 )
  42              		.loc 1 343 2 is_stmt 1 view .LVU7
  43              		.loc 1 343 4 is_stmt 0 view .LVU8
  44 0002 12F0070F 		tst	r2, #7
  45 0006 1FD0     		beq	.L3
 344:../Resources/Middlewares/Third_Party/FreeRTOS/Source/portable/MemMang/heap_4.c **** 	{
 345:../Resources/Middlewares/Third_Party/FreeRTOS/Source/portable/MemMang/heap_4.c **** 		uxAddress += ( portBYTE_ALIGNMENT - 1 );
  46              		.loc 1 345 3 is_stmt 1 view .LVU9
  47              		.loc 1 345 13 is_stmt 0 view .LVU10
  48 0008 D11D     		adds	r1, r2, #7
  49              	.LVL2:
 346:../Resources/Middlewares/Third_Party/FreeRTOS/Source/portable/MemMang/heap_4.c **** 		uxAddress &= ~( ( size_t ) portBYTE_ALIGNMENT_MASK );
  50              		.loc 1 346 3 is_stmt 1 view .LVU11
  51              		.loc 1 346 13 is_stmt 0 view .LVU12
  52 000a 21F00701 		bic	r1, r1, #7
  53              	.LVL3:
 347:../Resources/Middlewares/Third_Party/FreeRTOS/Source/portable/MemMang/heap_4.c **** 		xTotalHeapSize -= uxAddress - ( size_t ) ucHeap;
ARM GAS  /tmp/ccpmCXB0.s 			page 8


  54              		.loc 1 347 3 is_stmt 1 view .LVU13
  55              		.loc 1 347 18 is_stmt 0 view .LVU14
  56 000e C1F53B63 		rsb	r3, r1, #2992
  57 0012 0833     		adds	r3, r3, #8
  58 0014 1344     		add	r3, r3, r2
  59              	.LVL4:
 346:../Resources/Middlewares/Third_Party/FreeRTOS/Source/portable/MemMang/heap_4.c **** 		uxAddress &= ~( ( size_t ) portBYTE_ALIGNMENT_MASK );
  60              		.loc 1 346 13 view .LVU15
  61 0016 0A46     		mov	r2, r1
  62              	.LVL5:
  63              	.L2:
 348:../Resources/Middlewares/Third_Party/FreeRTOS/Source/portable/MemMang/heap_4.c **** 	}
 349:../Resources/Middlewares/Third_Party/FreeRTOS/Source/portable/MemMang/heap_4.c **** 
 350:../Resources/Middlewares/Third_Party/FreeRTOS/Source/portable/MemMang/heap_4.c **** 	pucAlignedHeap = ( uint8_t * ) uxAddress;
  64              		.loc 1 350 2 is_stmt 1 view .LVU16
 351:../Resources/Middlewares/Third_Party/FreeRTOS/Source/portable/MemMang/heap_4.c **** 
 352:../Resources/Middlewares/Third_Party/FreeRTOS/Source/portable/MemMang/heap_4.c **** 	/* xStart is used to hold a pointer to the first item in the list of free
 353:../Resources/Middlewares/Third_Party/FreeRTOS/Source/portable/MemMang/heap_4.c **** 	blocks.  The void cast is used to prevent compiler warnings. */
 354:../Resources/Middlewares/Third_Party/FreeRTOS/Source/portable/MemMang/heap_4.c **** 	xStart.pxNextFreeBlock = ( void * ) pucAlignedHeap;
  65              		.loc 1 354 2 view .LVU17
  66              		.loc 1 354 25 is_stmt 0 view .LVU18
  67 0018 0E48     		ldr	r0, .L4+4
  68 001a 0260     		str	r2, [r0]
 355:../Resources/Middlewares/Third_Party/FreeRTOS/Source/portable/MemMang/heap_4.c **** 	xStart.xBlockSize = ( size_t ) 0;
  69              		.loc 1 355 2 is_stmt 1 view .LVU19
  70              		.loc 1 355 20 is_stmt 0 view .LVU20
  71 001c 0021     		movs	r1, #0
  72 001e 4160     		str	r1, [r0, #4]
 356:../Resources/Middlewares/Third_Party/FreeRTOS/Source/portable/MemMang/heap_4.c **** 
 357:../Resources/Middlewares/Third_Party/FreeRTOS/Source/portable/MemMang/heap_4.c **** 	/* pxEnd is used to mark the end of the list of free blocks and is inserted
 358:../Resources/Middlewares/Third_Party/FreeRTOS/Source/portable/MemMang/heap_4.c **** 	at the end of the heap space. */
 359:../Resources/Middlewares/Third_Party/FreeRTOS/Source/portable/MemMang/heap_4.c **** 	uxAddress = ( ( size_t ) pucAlignedHeap ) + xTotalHeapSize;
  73              		.loc 1 359 2 is_stmt 1 view .LVU21
  74              		.loc 1 359 12 is_stmt 0 view .LVU22
  75 0020 1344     		add	r3, r3, r2
  76              	.LVL6:
 360:../Resources/Middlewares/Third_Party/FreeRTOS/Source/portable/MemMang/heap_4.c **** 	uxAddress -= xHeapStructSize;
  77              		.loc 1 360 2 is_stmt 1 view .LVU23
  78              		.loc 1 360 12 is_stmt 0 view .LVU24
  79 0022 083B     		subs	r3, r3, #8
  80              	.LVL7:
 361:../Resources/Middlewares/Third_Party/FreeRTOS/Source/portable/MemMang/heap_4.c **** 	uxAddress &= ~( ( size_t ) portBYTE_ALIGNMENT_MASK );
  81              		.loc 1 361 2 is_stmt 1 view .LVU25
  82              		.loc 1 361 12 is_stmt 0 view .LVU26
  83 0024 23F00703 		bic	r3, r3, #7
  84              	.LVL8:
 362:../Resources/Middlewares/Third_Party/FreeRTOS/Source/portable/MemMang/heap_4.c **** 	pxEnd = ( void * ) uxAddress;
  85              		.loc 1 362 2 is_stmt 1 view .LVU27
  86              		.loc 1 362 8 is_stmt 0 view .LVU28
  87 0028 0B48     		ldr	r0, .L4+8
  88 002a 0360     		str	r3, [r0]
 363:../Resources/Middlewares/Third_Party/FreeRTOS/Source/portable/MemMang/heap_4.c **** 	pxEnd->xBlockSize = 0;
  89              		.loc 1 363 2 is_stmt 1 view .LVU29
  90              		.loc 1 363 20 is_stmt 0 view .LVU30
  91 002c 5960     		str	r1, [r3, #4]
 364:../Resources/Middlewares/Third_Party/FreeRTOS/Source/portable/MemMang/heap_4.c **** 	pxEnd->pxNextFreeBlock = NULL;
  92              		.loc 1 364 2 is_stmt 1 view .LVU31
ARM GAS  /tmp/ccpmCXB0.s 			page 9


  93              		.loc 1 364 25 is_stmt 0 view .LVU32
  94 002e 1960     		str	r1, [r3]
 365:../Resources/Middlewares/Third_Party/FreeRTOS/Source/portable/MemMang/heap_4.c **** 
 366:../Resources/Middlewares/Third_Party/FreeRTOS/Source/portable/MemMang/heap_4.c **** 	/* To start with there is a single free block that is sized to take up the
 367:../Resources/Middlewares/Third_Party/FreeRTOS/Source/portable/MemMang/heap_4.c **** 	entire heap space, minus the space taken by pxEnd. */
 368:../Resources/Middlewares/Third_Party/FreeRTOS/Source/portable/MemMang/heap_4.c **** 	pxFirstFreeBlock = ( void * ) pucAlignedHeap;
  95              		.loc 1 368 2 is_stmt 1 view .LVU33
  96              	.LVL9:
 369:../Resources/Middlewares/Third_Party/FreeRTOS/Source/portable/MemMang/heap_4.c **** 	pxFirstFreeBlock->xBlockSize = uxAddress - ( size_t ) pxFirstFreeBlock;
  97              		.loc 1 369 2 view .LVU34
  98              		.loc 1 369 43 is_stmt 0 view .LVU35
  99 0030 991A     		subs	r1, r3, r2
 100              		.loc 1 369 31 view .LVU36
 101 0032 5160     		str	r1, [r2, #4]
 370:../Resources/Middlewares/Third_Party/FreeRTOS/Source/portable/MemMang/heap_4.c **** 	pxFirstFreeBlock->pxNextFreeBlock = pxEnd;
 102              		.loc 1 370 2 is_stmt 1 view .LVU37
 103              		.loc 1 370 36 is_stmt 0 view .LVU38
 104 0034 1360     		str	r3, [r2]
 371:../Resources/Middlewares/Third_Party/FreeRTOS/Source/portable/MemMang/heap_4.c **** 
 372:../Resources/Middlewares/Third_Party/FreeRTOS/Source/portable/MemMang/heap_4.c **** 	/* Only one block exists - and it covers the entire usable heap space. */
 373:../Resources/Middlewares/Third_Party/FreeRTOS/Source/portable/MemMang/heap_4.c **** 	xMinimumEverFreeBytesRemaining = pxFirstFreeBlock->xBlockSize;
 105              		.loc 1 373 2 is_stmt 1 view .LVU39
 106              		.loc 1 373 33 is_stmt 0 view .LVU40
 107 0036 094B     		ldr	r3, .L4+12
 108              	.LVL10:
 109              		.loc 1 373 33 view .LVU41
 110 0038 1960     		str	r1, [r3]
 374:../Resources/Middlewares/Third_Party/FreeRTOS/Source/portable/MemMang/heap_4.c **** 	xFreeBytesRemaining = pxFirstFreeBlock->xBlockSize;
 111              		.loc 1 374 2 is_stmt 1 view .LVU42
 112              		.loc 1 374 22 is_stmt 0 view .LVU43
 113 003a 094B     		ldr	r3, .L4+16
 114 003c 1960     		str	r1, [r3]
 375:../Resources/Middlewares/Third_Party/FreeRTOS/Source/portable/MemMang/heap_4.c **** 
 376:../Resources/Middlewares/Third_Party/FreeRTOS/Source/portable/MemMang/heap_4.c **** 	/* Work out the position of the top bit in a size_t variable. */
 377:../Resources/Middlewares/Third_Party/FreeRTOS/Source/portable/MemMang/heap_4.c **** 	xBlockAllocatedBit = ( ( size_t ) 1 ) << ( ( sizeof( size_t ) * heapBITS_PER_BYTE ) - 1 );
 115              		.loc 1 377 2 is_stmt 1 view .LVU44
 116              		.loc 1 377 21 is_stmt 0 view .LVU45
 117 003e 094B     		ldr	r3, .L4+20
 118 0040 4FF00042 		mov	r2, #-2147483648
 119              	.LVL11:
 120              		.loc 1 377 21 view .LVU46
 121 0044 1A60     		str	r2, [r3]
 378:../Resources/Middlewares/Third_Party/FreeRTOS/Source/portable/MemMang/heap_4.c **** }
 122              		.loc 1 378 1 view .LVU47
 123 0046 7047     		bx	lr
 124              	.LVL12:
 125              	.L3:
 338:../Resources/Middlewares/Third_Party/FreeRTOS/Source/portable/MemMang/heap_4.c **** 
 126              		.loc 1 338 8 view .LVU48
 127 0048 40F6B833 		movw	r3, #3000
 128 004c E4E7     		b	.L2
 129              	.L5:
 130 004e 00BF     		.align	2
 131              	.L4:
 132 0050 00000000 		.word	.LANCHOR0
 133 0054 00000000 		.word	.LANCHOR1
 134 0058 00000000 		.word	.LANCHOR2
ARM GAS  /tmp/ccpmCXB0.s 			page 10


 135 005c 00000000 		.word	.LANCHOR3
 136 0060 00000000 		.word	.LANCHOR4
 137 0064 00000000 		.word	.LANCHOR5
 138              		.cfi_endproc
 139              	.LFE9:
 141              		.section	.text.prvInsertBlockIntoFreeList,"ax",%progbits
 142              		.align	1
 143              		.syntax unified
 144              		.thumb
 145              		.thumb_func
 147              	prvInsertBlockIntoFreeList:
 148              	.LVL13:
 149              	.LFB10:
 379:../Resources/Middlewares/Third_Party/FreeRTOS/Source/portable/MemMang/heap_4.c **** /*-----------------------------------------------------------*/
 380:../Resources/Middlewares/Third_Party/FreeRTOS/Source/portable/MemMang/heap_4.c **** 
 381:../Resources/Middlewares/Third_Party/FreeRTOS/Source/portable/MemMang/heap_4.c **** static void prvInsertBlockIntoFreeList( BlockLink_t *pxBlockToInsert )
 382:../Resources/Middlewares/Third_Party/FreeRTOS/Source/portable/MemMang/heap_4.c **** {
 150              		.loc 1 382 1 is_stmt 1 view -0
 151              		.cfi_startproc
 152              		@ args = 0, pretend = 0, frame = 0
 153              		@ frame_needed = 0, uses_anonymous_args = 0
 154              		@ link register save eliminated.
 383:../Resources/Middlewares/Third_Party/FreeRTOS/Source/portable/MemMang/heap_4.c **** BlockLink_t *pxIterator;
 155              		.loc 1 383 1 view .LVU50
 384:../Resources/Middlewares/Third_Party/FreeRTOS/Source/portable/MemMang/heap_4.c **** uint8_t *puc;
 156              		.loc 1 384 1 view .LVU51
 385:../Resources/Middlewares/Third_Party/FreeRTOS/Source/portable/MemMang/heap_4.c **** 
 386:../Resources/Middlewares/Third_Party/FreeRTOS/Source/portable/MemMang/heap_4.c **** 	/* Iterate through the list until a block is found that has a higher address
 387:../Resources/Middlewares/Third_Party/FreeRTOS/Source/portable/MemMang/heap_4.c **** 	than the block being inserted. */
 388:../Resources/Middlewares/Third_Party/FreeRTOS/Source/portable/MemMang/heap_4.c **** 	for( pxIterator = &xStart; pxIterator->pxNextFreeBlock < pxBlockToInsert; pxIterator = pxIterator-
 157              		.loc 1 388 2 view .LVU52
 158              		.loc 1 388 18 is_stmt 0 view .LVU53
 159 0000 164B     		ldr	r3, .L21
 160              	.LVL14:
 161              	.L7:
 162              		.loc 1 388 29 is_stmt 1 discriminator 1 view .LVU54
 163 0002 1A46     		mov	r2, r3
 164              		.loc 1 388 39 is_stmt 0 discriminator 1 view .LVU55
 165 0004 1B68     		ldr	r3, [r3]
 166              	.LVL15:
 167              		.loc 1 388 2 discriminator 1 view .LVU56
 168 0006 8342     		cmp	r3, r0
 169 0008 FBD3     		bcc	.L7
 389:../Resources/Middlewares/Third_Party/FreeRTOS/Source/portable/MemMang/heap_4.c **** 	{
 390:../Resources/Middlewares/Third_Party/FreeRTOS/Source/portable/MemMang/heap_4.c **** 		/* Nothing to do here, just iterate to the right position. */
 391:../Resources/Middlewares/Third_Party/FreeRTOS/Source/portable/MemMang/heap_4.c **** 	}
 392:../Resources/Middlewares/Third_Party/FreeRTOS/Source/portable/MemMang/heap_4.c **** 
 393:../Resources/Middlewares/Third_Party/FreeRTOS/Source/portable/MemMang/heap_4.c **** 	/* Do the block being inserted, and the block it is being inserted after
 394:../Resources/Middlewares/Third_Party/FreeRTOS/Source/portable/MemMang/heap_4.c **** 	make a contiguous block of memory? */
 395:../Resources/Middlewares/Third_Party/FreeRTOS/Source/portable/MemMang/heap_4.c **** 	puc = ( uint8_t * ) pxIterator;
 170              		.loc 1 395 2 is_stmt 1 view .LVU57
 171              	.LVL16:
 396:../Resources/Middlewares/Third_Party/FreeRTOS/Source/portable/MemMang/heap_4.c **** 	if( ( puc + pxIterator->xBlockSize ) == ( uint8_t * ) pxBlockToInsert )
 172              		.loc 1 396 2 view .LVU58
 173              		.loc 1 396 24 is_stmt 0 view .LVU59
 174 000a 5168     		ldr	r1, [r2, #4]
 175              		.loc 1 396 12 view .LVU60
ARM GAS  /tmp/ccpmCXB0.s 			page 11


 176 000c 02EB010C 		add	ip, r2, r1
 177              		.loc 1 396 4 view .LVU61
 178 0010 8445     		cmp	ip, r0
 179 0012 09D0     		beq	.L19
 180              	.L8:
 397:../Resources/Middlewares/Third_Party/FreeRTOS/Source/portable/MemMang/heap_4.c **** 	{
 398:../Resources/Middlewares/Third_Party/FreeRTOS/Source/portable/MemMang/heap_4.c **** 		pxIterator->xBlockSize += pxBlockToInsert->xBlockSize;
 399:../Resources/Middlewares/Third_Party/FreeRTOS/Source/portable/MemMang/heap_4.c **** 		pxBlockToInsert = pxIterator;
 400:../Resources/Middlewares/Third_Party/FreeRTOS/Source/portable/MemMang/heap_4.c **** 	}
 401:../Resources/Middlewares/Third_Party/FreeRTOS/Source/portable/MemMang/heap_4.c **** 	else
 402:../Resources/Middlewares/Third_Party/FreeRTOS/Source/portable/MemMang/heap_4.c **** 	{
 403:../Resources/Middlewares/Third_Party/FreeRTOS/Source/portable/MemMang/heap_4.c **** 		mtCOVERAGE_TEST_MARKER();
 181              		.loc 1 403 27 is_stmt 1 view .LVU62
 404:../Resources/Middlewares/Third_Party/FreeRTOS/Source/portable/MemMang/heap_4.c **** 	}
 405:../Resources/Middlewares/Third_Party/FreeRTOS/Source/portable/MemMang/heap_4.c **** 
 406:../Resources/Middlewares/Third_Party/FreeRTOS/Source/portable/MemMang/heap_4.c **** 	/* Do the block being inserted, and the block it is being inserted before
 407:../Resources/Middlewares/Third_Party/FreeRTOS/Source/portable/MemMang/heap_4.c **** 	make a contiguous block of memory? */
 408:../Resources/Middlewares/Third_Party/FreeRTOS/Source/portable/MemMang/heap_4.c **** 	puc = ( uint8_t * ) pxBlockToInsert;
 182              		.loc 1 408 2 view .LVU63
 183              	.LVL17:
 409:../Resources/Middlewares/Third_Party/FreeRTOS/Source/portable/MemMang/heap_4.c **** 	if( ( puc + pxBlockToInsert->xBlockSize ) == ( uint8_t * ) pxIterator->pxNextFreeBlock )
 184              		.loc 1 409 2 view .LVU64
 185              		.loc 1 409 29 is_stmt 0 view .LVU65
 186 0014 4168     		ldr	r1, [r0, #4]
 187              		.loc 1 409 12 view .LVU66
 188 0016 00EB010C 		add	ip, r0, r1
 189              		.loc 1 409 4 view .LVU67
 190 001a 6345     		cmp	r3, ip
 191 001c 09D0     		beq	.L20
 410:../Resources/Middlewares/Third_Party/FreeRTOS/Source/portable/MemMang/heap_4.c **** 	{
 411:../Resources/Middlewares/Third_Party/FreeRTOS/Source/portable/MemMang/heap_4.c **** 		if( pxIterator->pxNextFreeBlock != pxEnd )
 412:../Resources/Middlewares/Third_Party/FreeRTOS/Source/portable/MemMang/heap_4.c **** 		{
 413:../Resources/Middlewares/Third_Party/FreeRTOS/Source/portable/MemMang/heap_4.c **** 			/* Form one big block from the two blocks. */
 414:../Resources/Middlewares/Third_Party/FreeRTOS/Source/portable/MemMang/heap_4.c **** 			pxBlockToInsert->xBlockSize += pxIterator->pxNextFreeBlock->xBlockSize;
 415:../Resources/Middlewares/Third_Party/FreeRTOS/Source/portable/MemMang/heap_4.c **** 			pxBlockToInsert->pxNextFreeBlock = pxIterator->pxNextFreeBlock->pxNextFreeBlock;
 416:../Resources/Middlewares/Third_Party/FreeRTOS/Source/portable/MemMang/heap_4.c **** 		}
 417:../Resources/Middlewares/Third_Party/FreeRTOS/Source/portable/MemMang/heap_4.c **** 		else
 418:../Resources/Middlewares/Third_Party/FreeRTOS/Source/portable/MemMang/heap_4.c **** 		{
 419:../Resources/Middlewares/Third_Party/FreeRTOS/Source/portable/MemMang/heap_4.c **** 			pxBlockToInsert->pxNextFreeBlock = pxEnd;
 420:../Resources/Middlewares/Third_Party/FreeRTOS/Source/portable/MemMang/heap_4.c **** 		}
 421:../Resources/Middlewares/Third_Party/FreeRTOS/Source/portable/MemMang/heap_4.c **** 	}
 422:../Resources/Middlewares/Third_Party/FreeRTOS/Source/portable/MemMang/heap_4.c **** 	else
 423:../Resources/Middlewares/Third_Party/FreeRTOS/Source/portable/MemMang/heap_4.c **** 	{
 424:../Resources/Middlewares/Third_Party/FreeRTOS/Source/portable/MemMang/heap_4.c **** 		pxBlockToInsert->pxNextFreeBlock = pxIterator->pxNextFreeBlock;
 192              		.loc 1 424 3 is_stmt 1 view .LVU68
 193              		.loc 1 424 36 is_stmt 0 view .LVU69
 194 001e 0360     		str	r3, [r0]
 425:../Resources/Middlewares/Third_Party/FreeRTOS/Source/portable/MemMang/heap_4.c **** 	}
 426:../Resources/Middlewares/Third_Party/FreeRTOS/Source/portable/MemMang/heap_4.c **** 
 427:../Resources/Middlewares/Third_Party/FreeRTOS/Source/portable/MemMang/heap_4.c **** 	/* If the block being inserted plugged a gab, so was merged with the block
 428:../Resources/Middlewares/Third_Party/FreeRTOS/Source/portable/MemMang/heap_4.c **** 	before and the block after, then it's pxNextFreeBlock pointer will have
 429:../Resources/Middlewares/Third_Party/FreeRTOS/Source/portable/MemMang/heap_4.c **** 	already been set, and should not be set here as that would make it point
 430:../Resources/Middlewares/Third_Party/FreeRTOS/Source/portable/MemMang/heap_4.c **** 	to itself. */
 431:../Resources/Middlewares/Third_Party/FreeRTOS/Source/portable/MemMang/heap_4.c **** 	if( pxIterator != pxBlockToInsert )
 195              		.loc 1 431 2 is_stmt 1 view .LVU70
 196              		.loc 1 431 4 is_stmt 0 view .LVU71
 197 0020 9042     		cmp	r0, r2
ARM GAS  /tmp/ccpmCXB0.s 			page 12


 198 0022 19D0     		beq	.L16
 432:../Resources/Middlewares/Third_Party/FreeRTOS/Source/portable/MemMang/heap_4.c **** 	{
 433:../Resources/Middlewares/Third_Party/FreeRTOS/Source/portable/MemMang/heap_4.c **** 		pxIterator->pxNextFreeBlock = pxBlockToInsert;
 199              		.loc 1 433 3 is_stmt 1 view .LVU72
 200              		.loc 1 433 31 is_stmt 0 view .LVU73
 201 0024 1060     		str	r0, [r2]
 434:../Resources/Middlewares/Third_Party/FreeRTOS/Source/portable/MemMang/heap_4.c **** 	}
 435:../Resources/Middlewares/Third_Party/FreeRTOS/Source/portable/MemMang/heap_4.c **** 	else
 436:../Resources/Middlewares/Third_Party/FreeRTOS/Source/portable/MemMang/heap_4.c **** 	{
 437:../Resources/Middlewares/Third_Party/FreeRTOS/Source/portable/MemMang/heap_4.c **** 		mtCOVERAGE_TEST_MARKER();
 202              		.loc 1 437 27 is_stmt 1 view .LVU74
 203 0026 7047     		bx	lr
 204              	.LVL18:
 205              	.L19:
 398:../Resources/Middlewares/Third_Party/FreeRTOS/Source/portable/MemMang/heap_4.c **** 		pxBlockToInsert = pxIterator;
 206              		.loc 1 398 3 view .LVU75
 398:../Resources/Middlewares/Third_Party/FreeRTOS/Source/portable/MemMang/heap_4.c **** 		pxBlockToInsert = pxIterator;
 207              		.loc 1 398 44 is_stmt 0 view .LVU76
 208 0028 4068     		ldr	r0, [r0, #4]
 209              	.LVL19:
 398:../Resources/Middlewares/Third_Party/FreeRTOS/Source/portable/MemMang/heap_4.c **** 		pxBlockToInsert = pxIterator;
 210              		.loc 1 398 26 view .LVU77
 211 002a 0144     		add	r1, r1, r0
 212 002c 5160     		str	r1, [r2, #4]
 399:../Resources/Middlewares/Third_Party/FreeRTOS/Source/portable/MemMang/heap_4.c **** 	}
 213              		.loc 1 399 3 is_stmt 1 view .LVU78
 214              	.LVL20:
 399:../Resources/Middlewares/Third_Party/FreeRTOS/Source/portable/MemMang/heap_4.c **** 	}
 215              		.loc 1 399 19 is_stmt 0 view .LVU79
 216 002e 1046     		mov	r0, r2
 217 0030 F0E7     		b	.L8
 218              	.LVL21:
 219              	.L20:
 382:../Resources/Middlewares/Third_Party/FreeRTOS/Source/portable/MemMang/heap_4.c **** BlockLink_t *pxIterator;
 220              		.loc 1 382 1 view .LVU80
 221 0032 10B4     		push	{r4}
 222              	.LCFI0:
 223              		.cfi_def_cfa_offset 4
 224              		.cfi_offset 4, -4
 411:../Resources/Middlewares/Third_Party/FreeRTOS/Source/portable/MemMang/heap_4.c **** 		{
 225              		.loc 1 411 3 is_stmt 1 view .LVU81
 411:../Resources/Middlewares/Third_Party/FreeRTOS/Source/portable/MemMang/heap_4.c **** 		{
 226              		.loc 1 411 35 is_stmt 0 view .LVU82
 227 0034 0A4C     		ldr	r4, .L21+4
 228 0036 2468     		ldr	r4, [r4]
 411:../Resources/Middlewares/Third_Party/FreeRTOS/Source/portable/MemMang/heap_4.c **** 		{
 229              		.loc 1 411 5 view .LVU83
 230 0038 A342     		cmp	r3, r4
 231 003a 0BD0     		beq	.L10
 414:../Resources/Middlewares/Third_Party/FreeRTOS/Source/portable/MemMang/heap_4.c **** 			pxBlockToInsert->pxNextFreeBlock = pxIterator->pxNextFreeBlock->pxNextFreeBlock;
 232              		.loc 1 414 4 is_stmt 1 view .LVU84
 414:../Resources/Middlewares/Third_Party/FreeRTOS/Source/portable/MemMang/heap_4.c **** 			pxBlockToInsert->pxNextFreeBlock = pxIterator->pxNextFreeBlock->pxNextFreeBlock;
 233              		.loc 1 414 62 is_stmt 0 view .LVU85
 234 003c 5B68     		ldr	r3, [r3, #4]
 414:../Resources/Middlewares/Third_Party/FreeRTOS/Source/portable/MemMang/heap_4.c **** 			pxBlockToInsert->pxNextFreeBlock = pxIterator->pxNextFreeBlock->pxNextFreeBlock;
 235              		.loc 1 414 32 view .LVU86
 236 003e 1944     		add	r1, r1, r3
ARM GAS  /tmp/ccpmCXB0.s 			page 13


 237 0040 4160     		str	r1, [r0, #4]
 415:../Resources/Middlewares/Third_Party/FreeRTOS/Source/portable/MemMang/heap_4.c **** 		}
 238              		.loc 1 415 4 is_stmt 1 view .LVU87
 415:../Resources/Middlewares/Third_Party/FreeRTOS/Source/portable/MemMang/heap_4.c **** 		}
 239              		.loc 1 415 49 is_stmt 0 view .LVU88
 240 0042 1368     		ldr	r3, [r2]
 415:../Resources/Middlewares/Third_Party/FreeRTOS/Source/portable/MemMang/heap_4.c **** 		}
 241              		.loc 1 415 66 view .LVU89
 242 0044 1B68     		ldr	r3, [r3]
 415:../Resources/Middlewares/Third_Party/FreeRTOS/Source/portable/MemMang/heap_4.c **** 		}
 243              		.loc 1 415 37 view .LVU90
 244 0046 0360     		str	r3, [r0]
 245              	.L11:
 431:../Resources/Middlewares/Third_Party/FreeRTOS/Source/portable/MemMang/heap_4.c **** 	{
 246              		.loc 1 431 2 is_stmt 1 view .LVU91
 431:../Resources/Middlewares/Third_Party/FreeRTOS/Source/portable/MemMang/heap_4.c **** 	{
 247              		.loc 1 431 4 is_stmt 0 view .LVU92
 248 0048 9042     		cmp	r0, r2
 249 004a 00D0     		beq	.L6
 433:../Resources/Middlewares/Third_Party/FreeRTOS/Source/portable/MemMang/heap_4.c **** 	}
 250              		.loc 1 433 3 is_stmt 1 view .LVU93
 433:../Resources/Middlewares/Third_Party/FreeRTOS/Source/portable/MemMang/heap_4.c **** 	}
 251              		.loc 1 433 31 is_stmt 0 view .LVU94
 252 004c 1060     		str	r0, [r2]
 253              		.loc 1 437 27 is_stmt 1 view .LVU95
 254              	.L6:
 438:../Resources/Middlewares/Third_Party/FreeRTOS/Source/portable/MemMang/heap_4.c **** 	}
 439:../Resources/Middlewares/Third_Party/FreeRTOS/Source/portable/MemMang/heap_4.c **** }
 255              		.loc 1 439 1 is_stmt 0 view .LVU96
 256 004e 5DF8044B 		ldr	r4, [sp], #4
 257              	.LCFI1:
 258              		.cfi_remember_state
 259              		.cfi_restore 4
 260              		.cfi_def_cfa_offset 0
 261 0052 7047     		bx	lr
 262              	.L10:
 263              	.LCFI2:
 264              		.cfi_restore_state
 419:../Resources/Middlewares/Third_Party/FreeRTOS/Source/portable/MemMang/heap_4.c **** 		}
 265              		.loc 1 419 4 is_stmt 1 view .LVU97
 419:../Resources/Middlewares/Third_Party/FreeRTOS/Source/portable/MemMang/heap_4.c **** 		}
 266              		.loc 1 419 37 is_stmt 0 view .LVU98
 267 0054 0460     		str	r4, [r0]
 268 0056 F7E7     		b	.L11
 269              	.L16:
 270              	.LCFI3:
 271              		.cfi_def_cfa_offset 0
 272              		.cfi_restore 4
 419:../Resources/Middlewares/Third_Party/FreeRTOS/Source/portable/MemMang/heap_4.c **** 		}
 273              		.loc 1 419 37 view .LVU99
 274 0058 7047     		bx	lr
 275              	.L22:
 276 005a 00BF     		.align	2
 277              	.L21:
 278 005c 00000000 		.word	.LANCHOR1
 279 0060 00000000 		.word	.LANCHOR2
 280              		.cfi_endproc
ARM GAS  /tmp/ccpmCXB0.s 			page 14


 281              	.LFE10:
 283              		.section	.text.pvPortMalloc,"ax",%progbits
 284              		.align	1
 285              		.global	pvPortMalloc
 286              		.syntax unified
 287              		.thumb
 288              		.thumb_func
 290              	pvPortMalloc:
 291              	.LVL22:
 292              	.LFB4:
 116:../Resources/Middlewares/Third_Party/FreeRTOS/Source/portable/MemMang/heap_4.c **** BlockLink_t *pxBlock, *pxPreviousBlock, *pxNewBlockLink;
 293              		.loc 1 116 1 is_stmt 1 view -0
 294              		.cfi_startproc
 295              		@ args = 0, pretend = 0, frame = 0
 296              		@ frame_needed = 0, uses_anonymous_args = 0
 116:../Resources/Middlewares/Third_Party/FreeRTOS/Source/portable/MemMang/heap_4.c **** BlockLink_t *pxBlock, *pxPreviousBlock, *pxNewBlockLink;
 297              		.loc 1 116 1 is_stmt 0 view .LVU101
 298 0000 70B5     		push	{r4, r5, r6, lr}
 299              	.LCFI4:
 300              		.cfi_def_cfa_offset 16
 301              		.cfi_offset 4, -16
 302              		.cfi_offset 5, -12
 303              		.cfi_offset 6, -8
 304              		.cfi_offset 14, -4
 305 0002 0546     		mov	r5, r0
 117:../Resources/Middlewares/Third_Party/FreeRTOS/Source/portable/MemMang/heap_4.c **** void *pvReturn = NULL;
 306              		.loc 1 117 1 is_stmt 1 view .LVU102
 118:../Resources/Middlewares/Third_Party/FreeRTOS/Source/portable/MemMang/heap_4.c **** 
 307              		.loc 1 118 1 view .LVU103
 308              	.LVL23:
 120:../Resources/Middlewares/Third_Party/FreeRTOS/Source/portable/MemMang/heap_4.c **** 	{
 309              		.loc 1 120 2 view .LVU104
 310 0004 FFF7FEFF 		bl	vTaskSuspendAll
 311              	.LVL24:
 124:../Resources/Middlewares/Third_Party/FreeRTOS/Source/portable/MemMang/heap_4.c **** 		{
 312              		.loc 1 124 3 view .LVU105
 124:../Resources/Middlewares/Third_Party/FreeRTOS/Source/portable/MemMang/heap_4.c **** 		{
 313              		.loc 1 124 13 is_stmt 0 view .LVU106
 314 0008 364B     		ldr	r3, .L42
 315 000a 1B68     		ldr	r3, [r3]
 124:../Resources/Middlewares/Third_Party/FreeRTOS/Source/portable/MemMang/heap_4.c **** 		{
 316              		.loc 1 124 5 view .LVU107
 317 000c A3B1     		cbz	r3, .L41
 318              	.L24:
 130:../Resources/Middlewares/Third_Party/FreeRTOS/Source/portable/MemMang/heap_4.c **** 		}
 319              		.loc 1 130 28 is_stmt 1 view .LVU108
 137:../Resources/Middlewares/Third_Party/FreeRTOS/Source/portable/MemMang/heap_4.c **** 		{
 320              		.loc 1 137 3 view .LVU109
 137:../Resources/Middlewares/Third_Party/FreeRTOS/Source/portable/MemMang/heap_4.c **** 		{
 321              		.loc 1 137 21 is_stmt 0 view .LVU110
 322 000e 364B     		ldr	r3, .L42+4
 323 0010 1B68     		ldr	r3, [r3]
 137:../Resources/Middlewares/Third_Party/FreeRTOS/Source/portable/MemMang/heap_4.c **** 		{
 324              		.loc 1 137 5 view .LVU111
 325 0012 1D42     		tst	r5, r3
 326 0014 4ED1     		bne	.L35
 141:../Resources/Middlewares/Third_Party/FreeRTOS/Source/portable/MemMang/heap_4.c **** 			{
ARM GAS  /tmp/ccpmCXB0.s 			page 15


 327              		.loc 1 141 4 is_stmt 1 view .LVU112
 141:../Resources/Middlewares/Third_Party/FreeRTOS/Source/portable/MemMang/heap_4.c **** 			{
 328              		.loc 1 141 6 is_stmt 0 view .LVU113
 329 0016 35B1     		cbz	r5, .L26
 143:../Resources/Middlewares/Third_Party/FreeRTOS/Source/portable/MemMang/heap_4.c **** 
 330              		.loc 1 143 5 is_stmt 1 view .LVU114
 143:../Resources/Middlewares/Third_Party/FreeRTOS/Source/portable/MemMang/heap_4.c **** 
 331              		.loc 1 143 17 is_stmt 0 view .LVU115
 332 0018 0835     		adds	r5, r5, #8
 333              	.LVL25:
 147:../Resources/Middlewares/Third_Party/FreeRTOS/Source/portable/MemMang/heap_4.c **** 				{
 334              		.loc 1 147 5 is_stmt 1 view .LVU116
 147:../Resources/Middlewares/Third_Party/FreeRTOS/Source/portable/MemMang/heap_4.c **** 				{
 335              		.loc 1 147 7 is_stmt 0 view .LVU117
 336 001a 15F0070F 		tst	r5, #7
 337 001e 02D0     		beq	.L26
 150:../Resources/Middlewares/Third_Party/FreeRTOS/Source/portable/MemMang/heap_4.c **** 					configASSERT( ( xWantedSize & portBYTE_ALIGNMENT_MASK ) == 0 );
 338              		.loc 1 150 6 is_stmt 1 view .LVU118
 150:../Resources/Middlewares/Third_Party/FreeRTOS/Source/portable/MemMang/heap_4.c **** 					configASSERT( ( xWantedSize & portBYTE_ALIGNMENT_MASK ) == 0 );
 339              		.loc 1 150 18 is_stmt 0 view .LVU119
 340 0020 25F00705 		bic	r5, r5, #7
 341              	.LVL26:
 150:../Resources/Middlewares/Third_Party/FreeRTOS/Source/portable/MemMang/heap_4.c **** 					configASSERT( ( xWantedSize & portBYTE_ALIGNMENT_MASK ) == 0 );
 342              		.loc 1 150 18 view .LVU120
 343 0024 0835     		adds	r5, r5, #8
 344              	.LVL27:
 151:../Resources/Middlewares/Third_Party/FreeRTOS/Source/portable/MemMang/heap_4.c **** 				}
 345              		.loc 1 151 6 is_stmt 1 view .LVU121
 346              	.L26:
 160:../Resources/Middlewares/Third_Party/FreeRTOS/Source/portable/MemMang/heap_4.c **** 			}
 347              		.loc 1 160 29 view .LVU122
 163:../Resources/Middlewares/Third_Party/FreeRTOS/Source/portable/MemMang/heap_4.c **** 			{
 348              		.loc 1 163 4 view .LVU123
 163:../Resources/Middlewares/Third_Party/FreeRTOS/Source/portable/MemMang/heap_4.c **** 			{
 349              		.loc 1 163 6 is_stmt 0 view .LVU124
 350 0026 002D     		cmp	r5, #0
 351 0028 46D0     		beq	.L36
 163:../Resources/Middlewares/Third_Party/FreeRTOS/Source/portable/MemMang/heap_4.c **** 			{
 352              		.loc 1 163 45 discriminator 1 view .LVU125
 353 002a 304B     		ldr	r3, .L42+8
 354 002c 1B68     		ldr	r3, [r3]
 163:../Resources/Middlewares/Third_Party/FreeRTOS/Source/portable/MemMang/heap_4.c **** 			{
 355              		.loc 1 163 28 discriminator 1 view .LVU126
 356 002e AB42     		cmp	r3, r5
 357 0030 51D3     		bcc	.L37
 167:../Resources/Middlewares/Third_Party/FreeRTOS/Source/portable/MemMang/heap_4.c **** 				pxBlock = xStart.pxNextFreeBlock;
 358              		.loc 1 167 5 is_stmt 1 view .LVU127
 359              	.LVL28:
 168:../Resources/Middlewares/Third_Party/FreeRTOS/Source/portable/MemMang/heap_4.c **** 				while( ( pxBlock->xBlockSize < xWantedSize ) && ( pxBlock->pxNextFreeBlock != NULL ) )
 360              		.loc 1 168 5 view .LVU128
 168:../Resources/Middlewares/Third_Party/FreeRTOS/Source/portable/MemMang/heap_4.c **** 				while( ( pxBlock->xBlockSize < xWantedSize ) && ( pxBlock->pxNextFreeBlock != NULL ) )
 361              		.loc 1 168 13 is_stmt 0 view .LVU129
 362 0032 2F4A     		ldr	r2, .L42+12
 363 0034 1468     		ldr	r4, [r2]
 364              	.LVL29:
 169:../Resources/Middlewares/Third_Party/FreeRTOS/Source/portable/MemMang/heap_4.c **** 				{
 365              		.loc 1 169 5 is_stmt 1 view .LVU130
ARM GAS  /tmp/ccpmCXB0.s 			page 16


 169:../Resources/Middlewares/Third_Party/FreeRTOS/Source/portable/MemMang/heap_4.c **** 				{
 366              		.loc 1 169 10 is_stmt 0 view .LVU131
 367 0036 04E0     		b	.L28
 368              	.LVL30:
 369              	.L41:
 126:../Resources/Middlewares/Third_Party/FreeRTOS/Source/portable/MemMang/heap_4.c **** 		}
 370              		.loc 1 126 4 is_stmt 1 view .LVU132
 371 0038 FFF7FEFF 		bl	prvHeapInit
 372              	.LVL31:
 373 003c E7E7     		b	.L24
 374              	.LVL32:
 375              	.L38:
 171:../Resources/Middlewares/Third_Party/FreeRTOS/Source/portable/MemMang/heap_4.c **** 					pxBlock = pxBlock->pxNextFreeBlock;
 376              		.loc 1 171 22 is_stmt 0 view .LVU133
 377 003e 2246     		mov	r2, r4
 378              	.LVL33:
 172:../Resources/Middlewares/Third_Party/FreeRTOS/Source/portable/MemMang/heap_4.c **** 				}
 379              		.loc 1 172 14 view .LVU134
 380 0040 1C46     		mov	r4, r3
 381              	.LVL34:
 382              	.L28:
 169:../Resources/Middlewares/Third_Party/FreeRTOS/Source/portable/MemMang/heap_4.c **** 				{
 383              		.loc 1 169 10 is_stmt 1 view .LVU135
 169:../Resources/Middlewares/Third_Party/FreeRTOS/Source/portable/MemMang/heap_4.c **** 				{
 384              		.loc 1 169 21 is_stmt 0 view .LVU136
 385 0042 6368     		ldr	r3, [r4, #4]
 169:../Resources/Middlewares/Third_Party/FreeRTOS/Source/portable/MemMang/heap_4.c **** 				{
 386              		.loc 1 169 10 view .LVU137
 387 0044 AB42     		cmp	r3, r5
 388 0046 02D2     		bcs	.L27
 169:../Resources/Middlewares/Third_Party/FreeRTOS/Source/portable/MemMang/heap_4.c **** 				{
 389              		.loc 1 169 62 discriminator 1 view .LVU138
 390 0048 2368     		ldr	r3, [r4]
 169:../Resources/Middlewares/Third_Party/FreeRTOS/Source/portable/MemMang/heap_4.c **** 				{
 391              		.loc 1 169 50 discriminator 1 view .LVU139
 392 004a 002B     		cmp	r3, #0
 393 004c F7D1     		bne	.L38
 394              	.L27:
 177:../Resources/Middlewares/Third_Party/FreeRTOS/Source/portable/MemMang/heap_4.c **** 				{
 395              		.loc 1 177 5 is_stmt 1 view .LVU140
 177:../Resources/Middlewares/Third_Party/FreeRTOS/Source/portable/MemMang/heap_4.c **** 				{
 396              		.loc 1 177 17 is_stmt 0 view .LVU141
 397 004e 254B     		ldr	r3, .L42
 398 0050 1B68     		ldr	r3, [r3]
 177:../Resources/Middlewares/Third_Party/FreeRTOS/Source/portable/MemMang/heap_4.c **** 				{
 399              		.loc 1 177 7 view .LVU142
 400 0052 A342     		cmp	r3, r4
 401 0054 41D0     		beq	.L39
 181:../Resources/Middlewares/Third_Party/FreeRTOS/Source/portable/MemMang/heap_4.c **** 
 402              		.loc 1 181 6 is_stmt 1 view .LVU143
 181:../Resources/Middlewares/Third_Party/FreeRTOS/Source/portable/MemMang/heap_4.c **** 
 403              		.loc 1 181 61 is_stmt 0 view .LVU144
 404 0056 1668     		ldr	r6, [r2]
 181:../Resources/Middlewares/Third_Party/FreeRTOS/Source/portable/MemMang/heap_4.c **** 
 405              		.loc 1 181 15 view .LVU145
 406 0058 0836     		adds	r6, r6, #8
 407              	.LVL35:
ARM GAS  /tmp/ccpmCXB0.s 			page 17


 185:../Resources/Middlewares/Third_Party/FreeRTOS/Source/portable/MemMang/heap_4.c **** 
 408              		.loc 1 185 6 is_stmt 1 view .LVU146
 185:../Resources/Middlewares/Third_Party/FreeRTOS/Source/portable/MemMang/heap_4.c **** 
 409              		.loc 1 185 48 is_stmt 0 view .LVU147
 410 005a 2368     		ldr	r3, [r4]
 185:../Resources/Middlewares/Third_Party/FreeRTOS/Source/portable/MemMang/heap_4.c **** 
 411              		.loc 1 185 39 view .LVU148
 412 005c 1360     		str	r3, [r2]
 189:../Resources/Middlewares/Third_Party/FreeRTOS/Source/portable/MemMang/heap_4.c **** 					{
 413              		.loc 1 189 6 is_stmt 1 view .LVU149
 189:../Resources/Middlewares/Third_Party/FreeRTOS/Source/portable/MemMang/heap_4.c **** 					{
 414              		.loc 1 189 19 is_stmt 0 view .LVU150
 415 005e 6368     		ldr	r3, [r4, #4]
 189:../Resources/Middlewares/Third_Party/FreeRTOS/Source/portable/MemMang/heap_4.c **** 					{
 416              		.loc 1 189 32 view .LVU151
 417 0060 5B1B     		subs	r3, r3, r5
 189:../Resources/Middlewares/Third_Party/FreeRTOS/Source/portable/MemMang/heap_4.c **** 					{
 418              		.loc 1 189 8 view .LVU152
 419 0062 102B     		cmp	r3, #16
 420 0064 10D9     		bls	.L29
 195:../Resources/Middlewares/Third_Party/FreeRTOS/Source/portable/MemMang/heap_4.c **** 						configASSERT( ( ( ( size_t ) pxNewBlockLink ) & portBYTE_ALIGNMENT_MASK ) == 0 );
 421              		.loc 1 195 7 is_stmt 1 view .LVU153
 195:../Resources/Middlewares/Third_Party/FreeRTOS/Source/portable/MemMang/heap_4.c **** 						configASSERT( ( ( ( size_t ) pxNewBlockLink ) & portBYTE_ALIGNMENT_MASK ) == 0 );
 422              		.loc 1 195 22 is_stmt 0 view .LVU154
 423 0066 6019     		adds	r0, r4, r5
 424              	.LVL36:
 196:../Resources/Middlewares/Third_Party/FreeRTOS/Source/portable/MemMang/heap_4.c **** 
 425              		.loc 1 196 7 is_stmt 1 view .LVU155
 426 0068 10F0070F 		tst	r0, #7
 427 006c 08D0     		beq	.L30
 196:../Resources/Middlewares/Third_Party/FreeRTOS/Source/portable/MemMang/heap_4.c **** 
 428              		.loc 1 196 7 view .LVU156
 429              	.LBB12:
 430              	.LBI12:
 431              		.file 2 "../Resources/Middlewares/Third_Party/FreeRTOS/Source/portable/GCC/ARM_CM4F/portmacro.h"
   1:../Resources/Middlewares/Third_Party/FreeRTOS/Source/portable/GCC/ARM_CM4F/portmacro.h **** /*
   2:../Resources/Middlewares/Third_Party/FreeRTOS/Source/portable/GCC/ARM_CM4F/portmacro.h ****  * FreeRTOS Kernel V10.3.1
   3:../Resources/Middlewares/Third_Party/FreeRTOS/Source/portable/GCC/ARM_CM4F/portmacro.h ****  * Copyright (C) 2020 Amazon.com, Inc. or its affiliates.  All Rights Reserved.
   4:../Resources/Middlewares/Third_Party/FreeRTOS/Source/portable/GCC/ARM_CM4F/portmacro.h ****  *
   5:../Resources/Middlewares/Third_Party/FreeRTOS/Source/portable/GCC/ARM_CM4F/portmacro.h ****  * Permission is hereby granted, free of charge, to any person obtaining a copy of
   6:../Resources/Middlewares/Third_Party/FreeRTOS/Source/portable/GCC/ARM_CM4F/portmacro.h ****  * this software and associated documentation files (the "Software"), to deal in
   7:../Resources/Middlewares/Third_Party/FreeRTOS/Source/portable/GCC/ARM_CM4F/portmacro.h ****  * the Software without restriction, including without limitation the rights to
   8:../Resources/Middlewares/Third_Party/FreeRTOS/Source/portable/GCC/ARM_CM4F/portmacro.h ****  * use, copy, modify, merge, publish, distribute, sublicense, and/or sell copies of
   9:../Resources/Middlewares/Third_Party/FreeRTOS/Source/portable/GCC/ARM_CM4F/portmacro.h ****  * the Software, and to permit persons to whom the Software is furnished to do so,
  10:../Resources/Middlewares/Third_Party/FreeRTOS/Source/portable/GCC/ARM_CM4F/portmacro.h ****  * subject to the following conditions:
  11:../Resources/Middlewares/Third_Party/FreeRTOS/Source/portable/GCC/ARM_CM4F/portmacro.h ****  *
  12:../Resources/Middlewares/Third_Party/FreeRTOS/Source/portable/GCC/ARM_CM4F/portmacro.h ****  * The above copyright notice and this permission notice shall be included in all
  13:../Resources/Middlewares/Third_Party/FreeRTOS/Source/portable/GCC/ARM_CM4F/portmacro.h ****  * copies or substantial portions of the Software.
  14:../Resources/Middlewares/Third_Party/FreeRTOS/Source/portable/GCC/ARM_CM4F/portmacro.h ****  *
  15:../Resources/Middlewares/Third_Party/FreeRTOS/Source/portable/GCC/ARM_CM4F/portmacro.h ****  * THE SOFTWARE IS PROVIDED "AS IS", WITHOUT WARRANTY OF ANY KIND, EXPRESS OR
  16:../Resources/Middlewares/Third_Party/FreeRTOS/Source/portable/GCC/ARM_CM4F/portmacro.h ****  * IMPLIED, INCLUDING BUT NOT LIMITED TO THE WARRANTIES OF MERCHANTABILITY, FITNESS
  17:../Resources/Middlewares/Third_Party/FreeRTOS/Source/portable/GCC/ARM_CM4F/portmacro.h ****  * FOR A PARTICULAR PURPOSE AND NONINFRINGEMENT. IN NO EVENT SHALL THE AUTHORS OR
  18:../Resources/Middlewares/Third_Party/FreeRTOS/Source/portable/GCC/ARM_CM4F/portmacro.h ****  * COPYRIGHT HOLDERS BE LIABLE FOR ANY CLAIM, DAMAGES OR OTHER LIABILITY, WHETHER
  19:../Resources/Middlewares/Third_Party/FreeRTOS/Source/portable/GCC/ARM_CM4F/portmacro.h ****  * IN AN ACTION OF CONTRACT, TORT OR OTHERWISE, ARISING FROM, OUT OF OR IN
  20:../Resources/Middlewares/Third_Party/FreeRTOS/Source/portable/GCC/ARM_CM4F/portmacro.h ****  * CONNECTION WITH THE SOFTWARE OR THE USE OR OTHER DEALINGS IN THE SOFTWARE.
  21:../Resources/Middlewares/Third_Party/FreeRTOS/Source/portable/GCC/ARM_CM4F/portmacro.h ****  *
  22:../Resources/Middlewares/Third_Party/FreeRTOS/Source/portable/GCC/ARM_CM4F/portmacro.h ****  * http://www.FreeRTOS.org
ARM GAS  /tmp/ccpmCXB0.s 			page 18


  23:../Resources/Middlewares/Third_Party/FreeRTOS/Source/portable/GCC/ARM_CM4F/portmacro.h ****  * http://aws.amazon.com/freertos
  24:../Resources/Middlewares/Third_Party/FreeRTOS/Source/portable/GCC/ARM_CM4F/portmacro.h ****  *
  25:../Resources/Middlewares/Third_Party/FreeRTOS/Source/portable/GCC/ARM_CM4F/portmacro.h ****  * 1 tab == 4 spaces!
  26:../Resources/Middlewares/Third_Party/FreeRTOS/Source/portable/GCC/ARM_CM4F/portmacro.h ****  */
  27:../Resources/Middlewares/Third_Party/FreeRTOS/Source/portable/GCC/ARM_CM4F/portmacro.h **** 
  28:../Resources/Middlewares/Third_Party/FreeRTOS/Source/portable/GCC/ARM_CM4F/portmacro.h **** 
  29:../Resources/Middlewares/Third_Party/FreeRTOS/Source/portable/GCC/ARM_CM4F/portmacro.h **** #ifndef PORTMACRO_H
  30:../Resources/Middlewares/Third_Party/FreeRTOS/Source/portable/GCC/ARM_CM4F/portmacro.h **** #define PORTMACRO_H
  31:../Resources/Middlewares/Third_Party/FreeRTOS/Source/portable/GCC/ARM_CM4F/portmacro.h **** 
  32:../Resources/Middlewares/Third_Party/FreeRTOS/Source/portable/GCC/ARM_CM4F/portmacro.h **** #ifdef __cplusplus
  33:../Resources/Middlewares/Third_Party/FreeRTOS/Source/portable/GCC/ARM_CM4F/portmacro.h **** extern "C" {
  34:../Resources/Middlewares/Third_Party/FreeRTOS/Source/portable/GCC/ARM_CM4F/portmacro.h **** #endif
  35:../Resources/Middlewares/Third_Party/FreeRTOS/Source/portable/GCC/ARM_CM4F/portmacro.h **** 
  36:../Resources/Middlewares/Third_Party/FreeRTOS/Source/portable/GCC/ARM_CM4F/portmacro.h **** /*-----------------------------------------------------------
  37:../Resources/Middlewares/Third_Party/FreeRTOS/Source/portable/GCC/ARM_CM4F/portmacro.h ****  * Port specific definitions.
  38:../Resources/Middlewares/Third_Party/FreeRTOS/Source/portable/GCC/ARM_CM4F/portmacro.h ****  *
  39:../Resources/Middlewares/Third_Party/FreeRTOS/Source/portable/GCC/ARM_CM4F/portmacro.h ****  * The settings in this file configure FreeRTOS correctly for the
  40:../Resources/Middlewares/Third_Party/FreeRTOS/Source/portable/GCC/ARM_CM4F/portmacro.h ****  * given hardware and compiler.
  41:../Resources/Middlewares/Third_Party/FreeRTOS/Source/portable/GCC/ARM_CM4F/portmacro.h ****  *
  42:../Resources/Middlewares/Third_Party/FreeRTOS/Source/portable/GCC/ARM_CM4F/portmacro.h ****  * These settings should not be altered.
  43:../Resources/Middlewares/Third_Party/FreeRTOS/Source/portable/GCC/ARM_CM4F/portmacro.h ****  *-----------------------------------------------------------
  44:../Resources/Middlewares/Third_Party/FreeRTOS/Source/portable/GCC/ARM_CM4F/portmacro.h ****  */
  45:../Resources/Middlewares/Third_Party/FreeRTOS/Source/portable/GCC/ARM_CM4F/portmacro.h **** 
  46:../Resources/Middlewares/Third_Party/FreeRTOS/Source/portable/GCC/ARM_CM4F/portmacro.h **** /* Type definitions. */
  47:../Resources/Middlewares/Third_Party/FreeRTOS/Source/portable/GCC/ARM_CM4F/portmacro.h **** #define portCHAR		char
  48:../Resources/Middlewares/Third_Party/FreeRTOS/Source/portable/GCC/ARM_CM4F/portmacro.h **** #define portFLOAT		float
  49:../Resources/Middlewares/Third_Party/FreeRTOS/Source/portable/GCC/ARM_CM4F/portmacro.h **** #define portDOUBLE		double
  50:../Resources/Middlewares/Third_Party/FreeRTOS/Source/portable/GCC/ARM_CM4F/portmacro.h **** #define portLONG		long
  51:../Resources/Middlewares/Third_Party/FreeRTOS/Source/portable/GCC/ARM_CM4F/portmacro.h **** #define portSHORT		short
  52:../Resources/Middlewares/Third_Party/FreeRTOS/Source/portable/GCC/ARM_CM4F/portmacro.h **** #define portSTACK_TYPE	uint32_t
  53:../Resources/Middlewares/Third_Party/FreeRTOS/Source/portable/GCC/ARM_CM4F/portmacro.h **** #define portBASE_TYPE	long
  54:../Resources/Middlewares/Third_Party/FreeRTOS/Source/portable/GCC/ARM_CM4F/portmacro.h **** 
  55:../Resources/Middlewares/Third_Party/FreeRTOS/Source/portable/GCC/ARM_CM4F/portmacro.h **** typedef portSTACK_TYPE StackType_t;
  56:../Resources/Middlewares/Third_Party/FreeRTOS/Source/portable/GCC/ARM_CM4F/portmacro.h **** typedef long BaseType_t;
  57:../Resources/Middlewares/Third_Party/FreeRTOS/Source/portable/GCC/ARM_CM4F/portmacro.h **** typedef unsigned long UBaseType_t;
  58:../Resources/Middlewares/Third_Party/FreeRTOS/Source/portable/GCC/ARM_CM4F/portmacro.h **** 
  59:../Resources/Middlewares/Third_Party/FreeRTOS/Source/portable/GCC/ARM_CM4F/portmacro.h **** #if( configUSE_16_BIT_TICKS == 1 )
  60:../Resources/Middlewares/Third_Party/FreeRTOS/Source/portable/GCC/ARM_CM4F/portmacro.h **** 	typedef uint16_t TickType_t;
  61:../Resources/Middlewares/Third_Party/FreeRTOS/Source/portable/GCC/ARM_CM4F/portmacro.h **** 	#define portMAX_DELAY ( TickType_t ) 0xffff
  62:../Resources/Middlewares/Third_Party/FreeRTOS/Source/portable/GCC/ARM_CM4F/portmacro.h **** #else
  63:../Resources/Middlewares/Third_Party/FreeRTOS/Source/portable/GCC/ARM_CM4F/portmacro.h **** 	typedef uint32_t TickType_t;
  64:../Resources/Middlewares/Third_Party/FreeRTOS/Source/portable/GCC/ARM_CM4F/portmacro.h **** 	#define portMAX_DELAY ( TickType_t ) 0xffffffffUL
  65:../Resources/Middlewares/Third_Party/FreeRTOS/Source/portable/GCC/ARM_CM4F/portmacro.h **** 
  66:../Resources/Middlewares/Third_Party/FreeRTOS/Source/portable/GCC/ARM_CM4F/portmacro.h **** 	/* 32-bit tick type on a 32-bit architecture, so reads of the tick count do
  67:../Resources/Middlewares/Third_Party/FreeRTOS/Source/portable/GCC/ARM_CM4F/portmacro.h **** 	not need to be guarded with a critical section. */
  68:../Resources/Middlewares/Third_Party/FreeRTOS/Source/portable/GCC/ARM_CM4F/portmacro.h **** 	#define portTICK_TYPE_IS_ATOMIC 1
  69:../Resources/Middlewares/Third_Party/FreeRTOS/Source/portable/GCC/ARM_CM4F/portmacro.h **** #endif
  70:../Resources/Middlewares/Third_Party/FreeRTOS/Source/portable/GCC/ARM_CM4F/portmacro.h **** /*-----------------------------------------------------------*/
  71:../Resources/Middlewares/Third_Party/FreeRTOS/Source/portable/GCC/ARM_CM4F/portmacro.h **** 
  72:../Resources/Middlewares/Third_Party/FreeRTOS/Source/portable/GCC/ARM_CM4F/portmacro.h **** /* Architecture specifics. */
  73:../Resources/Middlewares/Third_Party/FreeRTOS/Source/portable/GCC/ARM_CM4F/portmacro.h **** #define portSTACK_GROWTH			( -1 )
  74:../Resources/Middlewares/Third_Party/FreeRTOS/Source/portable/GCC/ARM_CM4F/portmacro.h **** #define portTICK_PERIOD_MS			( ( TickType_t ) 1000 / configTICK_RATE_HZ )
  75:../Resources/Middlewares/Third_Party/FreeRTOS/Source/portable/GCC/ARM_CM4F/portmacro.h **** #define portBYTE_ALIGNMENT			8
  76:../Resources/Middlewares/Third_Party/FreeRTOS/Source/portable/GCC/ARM_CM4F/portmacro.h **** /*-----------------------------------------------------------*/
  77:../Resources/Middlewares/Third_Party/FreeRTOS/Source/portable/GCC/ARM_CM4F/portmacro.h **** 
  78:../Resources/Middlewares/Third_Party/FreeRTOS/Source/portable/GCC/ARM_CM4F/portmacro.h **** /* Scheduler utilities. */
  79:../Resources/Middlewares/Third_Party/FreeRTOS/Source/portable/GCC/ARM_CM4F/portmacro.h **** #define portYIELD() 															\
ARM GAS  /tmp/ccpmCXB0.s 			page 19


  80:../Resources/Middlewares/Third_Party/FreeRTOS/Source/portable/GCC/ARM_CM4F/portmacro.h **** {																				\
  81:../Resources/Middlewares/Third_Party/FreeRTOS/Source/portable/GCC/ARM_CM4F/portmacro.h **** 	/* Set a PendSV to request a context switch. */								\
  82:../Resources/Middlewares/Third_Party/FreeRTOS/Source/portable/GCC/ARM_CM4F/portmacro.h **** 	portNVIC_INT_CTRL_REG = portNVIC_PENDSVSET_BIT;								\
  83:../Resources/Middlewares/Third_Party/FreeRTOS/Source/portable/GCC/ARM_CM4F/portmacro.h **** 																				\
  84:../Resources/Middlewares/Third_Party/FreeRTOS/Source/portable/GCC/ARM_CM4F/portmacro.h **** 	/* Barriers are normally not required but do ensure the code is completely	\
  85:../Resources/Middlewares/Third_Party/FreeRTOS/Source/portable/GCC/ARM_CM4F/portmacro.h **** 	within the specified behaviour for the architecture. */						\
  86:../Resources/Middlewares/Third_Party/FreeRTOS/Source/portable/GCC/ARM_CM4F/portmacro.h **** 	__asm volatile( "dsb" ::: "memory" );										\
  87:../Resources/Middlewares/Third_Party/FreeRTOS/Source/portable/GCC/ARM_CM4F/portmacro.h **** 	__asm volatile( "isb" );													\
  88:../Resources/Middlewares/Third_Party/FreeRTOS/Source/portable/GCC/ARM_CM4F/portmacro.h **** }
  89:../Resources/Middlewares/Third_Party/FreeRTOS/Source/portable/GCC/ARM_CM4F/portmacro.h **** 
  90:../Resources/Middlewares/Third_Party/FreeRTOS/Source/portable/GCC/ARM_CM4F/portmacro.h **** #define portNVIC_INT_CTRL_REG		( * ( ( volatile uint32_t * ) 0xe000ed04 ) )
  91:../Resources/Middlewares/Third_Party/FreeRTOS/Source/portable/GCC/ARM_CM4F/portmacro.h **** #define portNVIC_PENDSVSET_BIT		( 1UL << 28UL )
  92:../Resources/Middlewares/Third_Party/FreeRTOS/Source/portable/GCC/ARM_CM4F/portmacro.h **** #define portEND_SWITCHING_ISR( xSwitchRequired ) if( xSwitchRequired != pdFALSE ) portYIELD()
  93:../Resources/Middlewares/Third_Party/FreeRTOS/Source/portable/GCC/ARM_CM4F/portmacro.h **** #define portYIELD_FROM_ISR( x ) portEND_SWITCHING_ISR( x )
  94:../Resources/Middlewares/Third_Party/FreeRTOS/Source/portable/GCC/ARM_CM4F/portmacro.h **** /*-----------------------------------------------------------*/
  95:../Resources/Middlewares/Third_Party/FreeRTOS/Source/portable/GCC/ARM_CM4F/portmacro.h **** 
  96:../Resources/Middlewares/Third_Party/FreeRTOS/Source/portable/GCC/ARM_CM4F/portmacro.h **** /* Critical section management. */
  97:../Resources/Middlewares/Third_Party/FreeRTOS/Source/portable/GCC/ARM_CM4F/portmacro.h **** extern void vPortEnterCritical( void );
  98:../Resources/Middlewares/Third_Party/FreeRTOS/Source/portable/GCC/ARM_CM4F/portmacro.h **** extern void vPortExitCritical( void );
  99:../Resources/Middlewares/Third_Party/FreeRTOS/Source/portable/GCC/ARM_CM4F/portmacro.h **** #define portSET_INTERRUPT_MASK_FROM_ISR()		ulPortRaiseBASEPRI()
 100:../Resources/Middlewares/Third_Party/FreeRTOS/Source/portable/GCC/ARM_CM4F/portmacro.h **** #define portCLEAR_INTERRUPT_MASK_FROM_ISR(x)	vPortSetBASEPRI(x)
 101:../Resources/Middlewares/Third_Party/FreeRTOS/Source/portable/GCC/ARM_CM4F/portmacro.h **** #define portDISABLE_INTERRUPTS()				vPortRaiseBASEPRI()
 102:../Resources/Middlewares/Third_Party/FreeRTOS/Source/portable/GCC/ARM_CM4F/portmacro.h **** #define portENABLE_INTERRUPTS()					vPortSetBASEPRI(0)
 103:../Resources/Middlewares/Third_Party/FreeRTOS/Source/portable/GCC/ARM_CM4F/portmacro.h **** #define portENTER_CRITICAL()					vPortEnterCritical()
 104:../Resources/Middlewares/Third_Party/FreeRTOS/Source/portable/GCC/ARM_CM4F/portmacro.h **** #define portEXIT_CRITICAL()						vPortExitCritical()
 105:../Resources/Middlewares/Third_Party/FreeRTOS/Source/portable/GCC/ARM_CM4F/portmacro.h **** 
 106:../Resources/Middlewares/Third_Party/FreeRTOS/Source/portable/GCC/ARM_CM4F/portmacro.h **** /*-----------------------------------------------------------*/
 107:../Resources/Middlewares/Third_Party/FreeRTOS/Source/portable/GCC/ARM_CM4F/portmacro.h **** 
 108:../Resources/Middlewares/Third_Party/FreeRTOS/Source/portable/GCC/ARM_CM4F/portmacro.h **** /* Task function macros as described on the FreeRTOS.org WEB site.  These are
 109:../Resources/Middlewares/Third_Party/FreeRTOS/Source/portable/GCC/ARM_CM4F/portmacro.h **** not necessary for to use this port.  They are defined so the common demo files
 110:../Resources/Middlewares/Third_Party/FreeRTOS/Source/portable/GCC/ARM_CM4F/portmacro.h **** (which build with all the ports) will build. */
 111:../Resources/Middlewares/Third_Party/FreeRTOS/Source/portable/GCC/ARM_CM4F/portmacro.h **** #define portTASK_FUNCTION_PROTO( vFunction, pvParameters ) void vFunction( void *pvParameters )
 112:../Resources/Middlewares/Third_Party/FreeRTOS/Source/portable/GCC/ARM_CM4F/portmacro.h **** #define portTASK_FUNCTION( vFunction, pvParameters ) void vFunction( void *pvParameters )
 113:../Resources/Middlewares/Third_Party/FreeRTOS/Source/portable/GCC/ARM_CM4F/portmacro.h **** /*-----------------------------------------------------------*/
 114:../Resources/Middlewares/Third_Party/FreeRTOS/Source/portable/GCC/ARM_CM4F/portmacro.h **** 
 115:../Resources/Middlewares/Third_Party/FreeRTOS/Source/portable/GCC/ARM_CM4F/portmacro.h **** /* Tickless idle/low power functionality. */
 116:../Resources/Middlewares/Third_Party/FreeRTOS/Source/portable/GCC/ARM_CM4F/portmacro.h **** #ifndef portSUPPRESS_TICKS_AND_SLEEP
 117:../Resources/Middlewares/Third_Party/FreeRTOS/Source/portable/GCC/ARM_CM4F/portmacro.h **** 	extern void vPortSuppressTicksAndSleep( TickType_t xExpectedIdleTime );
 118:../Resources/Middlewares/Third_Party/FreeRTOS/Source/portable/GCC/ARM_CM4F/portmacro.h **** 	#define portSUPPRESS_TICKS_AND_SLEEP( xExpectedIdleTime ) vPortSuppressTicksAndSleep( xExpectedIdl
 119:../Resources/Middlewares/Third_Party/FreeRTOS/Source/portable/GCC/ARM_CM4F/portmacro.h **** #endif
 120:../Resources/Middlewares/Third_Party/FreeRTOS/Source/portable/GCC/ARM_CM4F/portmacro.h **** /*-----------------------------------------------------------*/
 121:../Resources/Middlewares/Third_Party/FreeRTOS/Source/portable/GCC/ARM_CM4F/portmacro.h **** 
 122:../Resources/Middlewares/Third_Party/FreeRTOS/Source/portable/GCC/ARM_CM4F/portmacro.h **** /* Architecture specific optimisations. */
 123:../Resources/Middlewares/Third_Party/FreeRTOS/Source/portable/GCC/ARM_CM4F/portmacro.h **** #ifndef configUSE_PORT_OPTIMISED_TASK_SELECTION
 124:../Resources/Middlewares/Third_Party/FreeRTOS/Source/portable/GCC/ARM_CM4F/portmacro.h **** 	#define configUSE_PORT_OPTIMISED_TASK_SELECTION 1
 125:../Resources/Middlewares/Third_Party/FreeRTOS/Source/portable/GCC/ARM_CM4F/portmacro.h **** #endif
 126:../Resources/Middlewares/Third_Party/FreeRTOS/Source/portable/GCC/ARM_CM4F/portmacro.h **** 
 127:../Resources/Middlewares/Third_Party/FreeRTOS/Source/portable/GCC/ARM_CM4F/portmacro.h **** #if configUSE_PORT_OPTIMISED_TASK_SELECTION == 1
 128:../Resources/Middlewares/Third_Party/FreeRTOS/Source/portable/GCC/ARM_CM4F/portmacro.h **** 
 129:../Resources/Middlewares/Third_Party/FreeRTOS/Source/portable/GCC/ARM_CM4F/portmacro.h **** 	/* Generic helper function. */
 130:../Resources/Middlewares/Third_Party/FreeRTOS/Source/portable/GCC/ARM_CM4F/portmacro.h **** 	__attribute__( ( always_inline ) ) static inline uint8_t ucPortCountLeadingZeros( uint32_t ulBitma
 131:../Resources/Middlewares/Third_Party/FreeRTOS/Source/portable/GCC/ARM_CM4F/portmacro.h **** 	{
 132:../Resources/Middlewares/Third_Party/FreeRTOS/Source/portable/GCC/ARM_CM4F/portmacro.h **** 	uint8_t ucReturn;
 133:../Resources/Middlewares/Third_Party/FreeRTOS/Source/portable/GCC/ARM_CM4F/portmacro.h **** 
 134:../Resources/Middlewares/Third_Party/FreeRTOS/Source/portable/GCC/ARM_CM4F/portmacro.h **** 		__asm volatile ( "clz %0, %1" : "=r" ( ucReturn ) : "r" ( ulBitmap ) : "memory" );
 135:../Resources/Middlewares/Third_Party/FreeRTOS/Source/portable/GCC/ARM_CM4F/portmacro.h **** 		return ucReturn;
 136:../Resources/Middlewares/Third_Party/FreeRTOS/Source/portable/GCC/ARM_CM4F/portmacro.h **** 	}
ARM GAS  /tmp/ccpmCXB0.s 			page 20


 137:../Resources/Middlewares/Third_Party/FreeRTOS/Source/portable/GCC/ARM_CM4F/portmacro.h **** 
 138:../Resources/Middlewares/Third_Party/FreeRTOS/Source/portable/GCC/ARM_CM4F/portmacro.h **** 	/* Check the configuration. */
 139:../Resources/Middlewares/Third_Party/FreeRTOS/Source/portable/GCC/ARM_CM4F/portmacro.h **** 	#if( configMAX_PRIORITIES > 32 )
 140:../Resources/Middlewares/Third_Party/FreeRTOS/Source/portable/GCC/ARM_CM4F/portmacro.h **** 		#error configUSE_PORT_OPTIMISED_TASK_SELECTION can only be set to 1 when configMAX_PRIORITIES is 
 141:../Resources/Middlewares/Third_Party/FreeRTOS/Source/portable/GCC/ARM_CM4F/portmacro.h **** 	#endif
 142:../Resources/Middlewares/Third_Party/FreeRTOS/Source/portable/GCC/ARM_CM4F/portmacro.h **** 
 143:../Resources/Middlewares/Third_Party/FreeRTOS/Source/portable/GCC/ARM_CM4F/portmacro.h **** 	/* Store/clear the ready priorities in a bit map. */
 144:../Resources/Middlewares/Third_Party/FreeRTOS/Source/portable/GCC/ARM_CM4F/portmacro.h **** 	#define portRECORD_READY_PRIORITY( uxPriority, uxReadyPriorities ) ( uxReadyPriorities ) |= ( 1UL 
 145:../Resources/Middlewares/Third_Party/FreeRTOS/Source/portable/GCC/ARM_CM4F/portmacro.h **** 	#define portRESET_READY_PRIORITY( uxPriority, uxReadyPriorities ) ( uxReadyPriorities ) &= ~( 1UL 
 146:../Resources/Middlewares/Third_Party/FreeRTOS/Source/portable/GCC/ARM_CM4F/portmacro.h **** 
 147:../Resources/Middlewares/Third_Party/FreeRTOS/Source/portable/GCC/ARM_CM4F/portmacro.h **** 	/*-----------------------------------------------------------*/
 148:../Resources/Middlewares/Third_Party/FreeRTOS/Source/portable/GCC/ARM_CM4F/portmacro.h **** 
 149:../Resources/Middlewares/Third_Party/FreeRTOS/Source/portable/GCC/ARM_CM4F/portmacro.h **** 	#define portGET_HIGHEST_PRIORITY( uxTopPriority, uxReadyPriorities ) uxTopPriority = ( 31UL - ( ui
 150:../Resources/Middlewares/Third_Party/FreeRTOS/Source/portable/GCC/ARM_CM4F/portmacro.h **** 
 151:../Resources/Middlewares/Third_Party/FreeRTOS/Source/portable/GCC/ARM_CM4F/portmacro.h **** #endif /* configUSE_PORT_OPTIMISED_TASK_SELECTION */
 152:../Resources/Middlewares/Third_Party/FreeRTOS/Source/portable/GCC/ARM_CM4F/portmacro.h **** 
 153:../Resources/Middlewares/Third_Party/FreeRTOS/Source/portable/GCC/ARM_CM4F/portmacro.h **** /*-----------------------------------------------------------*/
 154:../Resources/Middlewares/Third_Party/FreeRTOS/Source/portable/GCC/ARM_CM4F/portmacro.h **** 
 155:../Resources/Middlewares/Third_Party/FreeRTOS/Source/portable/GCC/ARM_CM4F/portmacro.h **** #ifdef configASSERT
 156:../Resources/Middlewares/Third_Party/FreeRTOS/Source/portable/GCC/ARM_CM4F/portmacro.h **** 	void vPortValidateInterruptPriority( void );
 157:../Resources/Middlewares/Third_Party/FreeRTOS/Source/portable/GCC/ARM_CM4F/portmacro.h **** 	#define portASSERT_IF_INTERRUPT_PRIORITY_INVALID() 	vPortValidateInterruptPriority()
 158:../Resources/Middlewares/Third_Party/FreeRTOS/Source/portable/GCC/ARM_CM4F/portmacro.h **** #endif
 159:../Resources/Middlewares/Third_Party/FreeRTOS/Source/portable/GCC/ARM_CM4F/portmacro.h **** 
 160:../Resources/Middlewares/Third_Party/FreeRTOS/Source/portable/GCC/ARM_CM4F/portmacro.h **** /* portNOP() is not required by this port. */
 161:../Resources/Middlewares/Third_Party/FreeRTOS/Source/portable/GCC/ARM_CM4F/portmacro.h **** #define portNOP()
 162:../Resources/Middlewares/Third_Party/FreeRTOS/Source/portable/GCC/ARM_CM4F/portmacro.h **** 
 163:../Resources/Middlewares/Third_Party/FreeRTOS/Source/portable/GCC/ARM_CM4F/portmacro.h **** #define portINLINE	__inline
 164:../Resources/Middlewares/Third_Party/FreeRTOS/Source/portable/GCC/ARM_CM4F/portmacro.h **** 
 165:../Resources/Middlewares/Third_Party/FreeRTOS/Source/portable/GCC/ARM_CM4F/portmacro.h **** #ifndef portFORCE_INLINE
 166:../Resources/Middlewares/Third_Party/FreeRTOS/Source/portable/GCC/ARM_CM4F/portmacro.h **** 	#define portFORCE_INLINE inline __attribute__(( always_inline))
 167:../Resources/Middlewares/Third_Party/FreeRTOS/Source/portable/GCC/ARM_CM4F/portmacro.h **** #endif
 168:../Resources/Middlewares/Third_Party/FreeRTOS/Source/portable/GCC/ARM_CM4F/portmacro.h **** 
 169:../Resources/Middlewares/Third_Party/FreeRTOS/Source/portable/GCC/ARM_CM4F/portmacro.h **** portFORCE_INLINE static BaseType_t xPortIsInsideInterrupt( void )
 170:../Resources/Middlewares/Third_Party/FreeRTOS/Source/portable/GCC/ARM_CM4F/portmacro.h **** {
 171:../Resources/Middlewares/Third_Party/FreeRTOS/Source/portable/GCC/ARM_CM4F/portmacro.h **** uint32_t ulCurrentInterrupt;
 172:../Resources/Middlewares/Third_Party/FreeRTOS/Source/portable/GCC/ARM_CM4F/portmacro.h **** BaseType_t xReturn;
 173:../Resources/Middlewares/Third_Party/FreeRTOS/Source/portable/GCC/ARM_CM4F/portmacro.h **** 
 174:../Resources/Middlewares/Third_Party/FreeRTOS/Source/portable/GCC/ARM_CM4F/portmacro.h **** 	/* Obtain the number of the currently executing interrupt. */
 175:../Resources/Middlewares/Third_Party/FreeRTOS/Source/portable/GCC/ARM_CM4F/portmacro.h **** 	__asm volatile( "mrs %0, ipsr" : "=r"( ulCurrentInterrupt ) :: "memory" );
 176:../Resources/Middlewares/Third_Party/FreeRTOS/Source/portable/GCC/ARM_CM4F/portmacro.h **** 
 177:../Resources/Middlewares/Third_Party/FreeRTOS/Source/portable/GCC/ARM_CM4F/portmacro.h **** 	if( ulCurrentInterrupt == 0 )
 178:../Resources/Middlewares/Third_Party/FreeRTOS/Source/portable/GCC/ARM_CM4F/portmacro.h **** 	{
 179:../Resources/Middlewares/Third_Party/FreeRTOS/Source/portable/GCC/ARM_CM4F/portmacro.h **** 		xReturn = pdFALSE;
 180:../Resources/Middlewares/Third_Party/FreeRTOS/Source/portable/GCC/ARM_CM4F/portmacro.h **** 	}
 181:../Resources/Middlewares/Third_Party/FreeRTOS/Source/portable/GCC/ARM_CM4F/portmacro.h **** 	else
 182:../Resources/Middlewares/Third_Party/FreeRTOS/Source/portable/GCC/ARM_CM4F/portmacro.h **** 	{
 183:../Resources/Middlewares/Third_Party/FreeRTOS/Source/portable/GCC/ARM_CM4F/portmacro.h **** 		xReturn = pdTRUE;
 184:../Resources/Middlewares/Third_Party/FreeRTOS/Source/portable/GCC/ARM_CM4F/portmacro.h **** 	}
 185:../Resources/Middlewares/Third_Party/FreeRTOS/Source/portable/GCC/ARM_CM4F/portmacro.h **** 
 186:../Resources/Middlewares/Third_Party/FreeRTOS/Source/portable/GCC/ARM_CM4F/portmacro.h **** 	return xReturn;
 187:../Resources/Middlewares/Third_Party/FreeRTOS/Source/portable/GCC/ARM_CM4F/portmacro.h **** }
 188:../Resources/Middlewares/Third_Party/FreeRTOS/Source/portable/GCC/ARM_CM4F/portmacro.h **** 
 189:../Resources/Middlewares/Third_Party/FreeRTOS/Source/portable/GCC/ARM_CM4F/portmacro.h **** /*-----------------------------------------------------------*/
 190:../Resources/Middlewares/Third_Party/FreeRTOS/Source/portable/GCC/ARM_CM4F/portmacro.h **** 
 191:../Resources/Middlewares/Third_Party/FreeRTOS/Source/portable/GCC/ARM_CM4F/portmacro.h **** portFORCE_INLINE static void vPortRaiseBASEPRI( void )
 432              		.loc 2 191 30 view .LVU157
 433              	.LBB13:
ARM GAS  /tmp/ccpmCXB0.s 			page 21


 192:../Resources/Middlewares/Third_Party/FreeRTOS/Source/portable/GCC/ARM_CM4F/portmacro.h **** {
 193:../Resources/Middlewares/Third_Party/FreeRTOS/Source/portable/GCC/ARM_CM4F/portmacro.h **** uint32_t ulNewBASEPRI;
 434              		.loc 2 193 1 view .LVU158
 194:../Resources/Middlewares/Third_Party/FreeRTOS/Source/portable/GCC/ARM_CM4F/portmacro.h **** 
 195:../Resources/Middlewares/Third_Party/FreeRTOS/Source/portable/GCC/ARM_CM4F/portmacro.h **** 	__asm volatile
 435              		.loc 2 195 2 view .LVU159
 436              		.syntax unified
 437              	@ 195 "../Resources/Middlewares/Third_Party/FreeRTOS/Source/portable/GCC/ARM_CM4F/portmacro.h" 1
 438 006e 4FF05003 			mov r3, #80												
 439 0072 83F31188 		msr basepri, r3											
 440 0076 BFF36F8F 		isb														
 441 007a BFF34F8F 		dsb														
 442              	
 443              	@ 0 "" 2
 444              	.LVL37:
 445              		.thumb
 446              		.syntax unified
 447              	.L31:
 448              		.loc 2 195 2 is_stmt 0 view .LVU160
 449              	.LBE13:
 450              	.LBE12:
 196:../Resources/Middlewares/Third_Party/FreeRTOS/Source/portable/MemMang/heap_4.c **** 
 451              		.loc 1 196 7 is_stmt 1 discriminator 3 view .LVU161
 196:../Resources/Middlewares/Third_Party/FreeRTOS/Source/portable/MemMang/heap_4.c **** 
 452              		.loc 1 196 7 discriminator 3 view .LVU162
 196:../Resources/Middlewares/Third_Party/FreeRTOS/Source/portable/MemMang/heap_4.c **** 
 453              		.loc 1 196 7 discriminator 3 view .LVU163
 454 007e FEE7     		b	.L31
 455              	.L30:
 196:../Resources/Middlewares/Third_Party/FreeRTOS/Source/portable/MemMang/heap_4.c **** 
 456              		.loc 1 196 87 discriminator 2 view .LVU164
 200:../Resources/Middlewares/Third_Party/FreeRTOS/Source/portable/MemMang/heap_4.c **** 						pxBlock->xBlockSize = xWantedSize;
 457              		.loc 1 200 7 discriminator 2 view .LVU165
 200:../Resources/Middlewares/Third_Party/FreeRTOS/Source/portable/MemMang/heap_4.c **** 						pxBlock->xBlockSize = xWantedSize;
 458              		.loc 1 200 34 is_stmt 0 discriminator 2 view .LVU166
 459 0080 4360     		str	r3, [r0, #4]
 201:../Resources/Middlewares/Third_Party/FreeRTOS/Source/portable/MemMang/heap_4.c **** 
 460              		.loc 1 201 7 is_stmt 1 discriminator 2 view .LVU167
 201:../Resources/Middlewares/Third_Party/FreeRTOS/Source/portable/MemMang/heap_4.c **** 
 461              		.loc 1 201 27 is_stmt 0 discriminator 2 view .LVU168
 462 0082 6560     		str	r5, [r4, #4]
 204:../Resources/Middlewares/Third_Party/FreeRTOS/Source/portable/MemMang/heap_4.c **** 					}
 463              		.loc 1 204 7 is_stmt 1 discriminator 2 view .LVU169
 464 0084 FFF7FEFF 		bl	prvInsertBlockIntoFreeList
 465              	.LVL38:
 466              	.L29:
 208:../Resources/Middlewares/Third_Party/FreeRTOS/Source/portable/MemMang/heap_4.c **** 					}
 467              		.loc 1 208 31 view .LVU170
 211:../Resources/Middlewares/Third_Party/FreeRTOS/Source/portable/MemMang/heap_4.c **** 
 468              		.loc 1 211 6 view .LVU171
 211:../Resources/Middlewares/Third_Party/FreeRTOS/Source/portable/MemMang/heap_4.c **** 
 469              		.loc 1 211 36 is_stmt 0 view .LVU172
 470 0088 6268     		ldr	r2, [r4, #4]
 211:../Resources/Middlewares/Third_Party/FreeRTOS/Source/portable/MemMang/heap_4.c **** 
 471              		.loc 1 211 26 view .LVU173
 472 008a 1849     		ldr	r1, .L42+8
 473 008c 0B68     		ldr	r3, [r1]
ARM GAS  /tmp/ccpmCXB0.s 			page 22


 474 008e 9B1A     		subs	r3, r3, r2
 475 0090 0B60     		str	r3, [r1]
 213:../Resources/Middlewares/Third_Party/FreeRTOS/Source/portable/MemMang/heap_4.c **** 					{
 476              		.loc 1 213 6 is_stmt 1 view .LVU174
 213:../Resources/Middlewares/Third_Party/FreeRTOS/Source/portable/MemMang/heap_4.c **** 					{
 477              		.loc 1 213 30 is_stmt 0 view .LVU175
 478 0092 1849     		ldr	r1, .L42+16
 479 0094 0968     		ldr	r1, [r1]
 213:../Resources/Middlewares/Third_Party/FreeRTOS/Source/portable/MemMang/heap_4.c **** 					{
 480              		.loc 1 213 8 view .LVU176
 481 0096 8B42     		cmp	r3, r1
 482 0098 01D2     		bcs	.L32
 215:../Resources/Middlewares/Third_Party/FreeRTOS/Source/portable/MemMang/heap_4.c **** 					}
 483              		.loc 1 215 7 is_stmt 1 view .LVU177
 215:../Resources/Middlewares/Third_Party/FreeRTOS/Source/portable/MemMang/heap_4.c **** 					}
 484              		.loc 1 215 38 is_stmt 0 view .LVU178
 485 009a 1649     		ldr	r1, .L42+16
 486 009c 0B60     		str	r3, [r1]
 487              	.L32:
 219:../Resources/Middlewares/Third_Party/FreeRTOS/Source/portable/MemMang/heap_4.c **** 					}
 488              		.loc 1 219 31 is_stmt 1 view .LVU179
 224:../Resources/Middlewares/Third_Party/FreeRTOS/Source/portable/MemMang/heap_4.c **** 					pxBlock->pxNextFreeBlock = NULL;
 489              		.loc 1 224 6 view .LVU180
 224:../Resources/Middlewares/Third_Party/FreeRTOS/Source/portable/MemMang/heap_4.c **** 					pxBlock->pxNextFreeBlock = NULL;
 490              		.loc 1 224 26 is_stmt 0 view .LVU181
 491 009e 124B     		ldr	r3, .L42+4
 492 00a0 1B68     		ldr	r3, [r3]
 493 00a2 1343     		orrs	r3, r3, r2
 494 00a4 6360     		str	r3, [r4, #4]
 225:../Resources/Middlewares/Third_Party/FreeRTOS/Source/portable/MemMang/heap_4.c **** 					xNumberOfSuccessfulAllocations++;
 495              		.loc 1 225 6 is_stmt 1 view .LVU182
 225:../Resources/Middlewares/Third_Party/FreeRTOS/Source/portable/MemMang/heap_4.c **** 					xNumberOfSuccessfulAllocations++;
 496              		.loc 1 225 31 is_stmt 0 view .LVU183
 497 00a6 0023     		movs	r3, #0
 498 00a8 2360     		str	r3, [r4]
 226:../Resources/Middlewares/Third_Party/FreeRTOS/Source/portable/MemMang/heap_4.c **** 				}
 499              		.loc 1 226 6 is_stmt 1 view .LVU184
 226:../Resources/Middlewares/Third_Party/FreeRTOS/Source/portable/MemMang/heap_4.c **** 				}
 500              		.loc 1 226 36 is_stmt 0 view .LVU185
 501 00aa 134A     		ldr	r2, .L42+20
 502 00ac 1368     		ldr	r3, [r2]
 503 00ae 0133     		adds	r3, r3, #1
 504 00b0 1360     		str	r3, [r2]
 505 00b2 02E0     		b	.L25
 506              	.LVL39:
 507              	.L35:
 118:../Resources/Middlewares/Third_Party/FreeRTOS/Source/portable/MemMang/heap_4.c **** 
 508              		.loc 1 118 7 view .LVU186
 509 00b4 0026     		movs	r6, #0
 510 00b6 00E0     		b	.L25
 511              	.L36:
 118:../Resources/Middlewares/Third_Party/FreeRTOS/Source/portable/MemMang/heap_4.c **** 
 512              		.loc 1 118 7 view .LVU187
 513 00b8 0026     		movs	r6, #0
 514              	.LVL40:
 515              	.L25:
 240:../Resources/Middlewares/Third_Party/FreeRTOS/Source/portable/MemMang/heap_4.c **** 		}
ARM GAS  /tmp/ccpmCXB0.s 			page 23


 516              		.loc 1 240 28 is_stmt 1 view .LVU188
 243:../Resources/Middlewares/Third_Party/FreeRTOS/Source/portable/MemMang/heap_4.c **** 	}
 517              		.loc 1 243 39 view .LVU189
 245:../Resources/Middlewares/Third_Party/FreeRTOS/Source/portable/MemMang/heap_4.c **** 
 518              		.loc 1 245 2 view .LVU190
 245:../Resources/Middlewares/Third_Party/FreeRTOS/Source/portable/MemMang/heap_4.c **** 
 519              		.loc 1 245 11 is_stmt 0 view .LVU191
 520 00ba FFF7FEFF 		bl	xTaskResumeAll
 521              	.LVL41:
 261:../Resources/Middlewares/Third_Party/FreeRTOS/Source/portable/MemMang/heap_4.c **** 	return pvReturn;
 522              		.loc 1 261 2 is_stmt 1 view .LVU192
 523 00be 16F0070F 		tst	r6, #7
 524 00c2 0CD0     		beq	.L23
 261:../Resources/Middlewares/Third_Party/FreeRTOS/Source/portable/MemMang/heap_4.c **** 	return pvReturn;
 525              		.loc 1 261 2 view .LVU193
 526              	.LBB14:
 527              	.LBI14:
 191:../Resources/Middlewares/Third_Party/FreeRTOS/Source/portable/GCC/ARM_CM4F/portmacro.h **** {
 528              		.loc 2 191 30 view .LVU194
 529              	.LBB15:
 193:../Resources/Middlewares/Third_Party/FreeRTOS/Source/portable/GCC/ARM_CM4F/portmacro.h **** 
 530              		.loc 2 193 1 view .LVU195
 531              		.loc 2 195 2 view .LVU196
 532              		.syntax unified
 533              	@ 195 "../Resources/Middlewares/Third_Party/FreeRTOS/Source/portable/GCC/ARM_CM4F/portmacro.h" 1
 534 00c4 4FF05003 			mov r3, #80												
 535 00c8 83F31188 		msr basepri, r3											
 536 00cc BFF36F8F 		isb														
 537 00d0 BFF34F8F 		dsb														
 538              	
 539              	@ 0 "" 2
 540              	.LVL42:
 541              		.thumb
 542              		.syntax unified
 543              	.L34:
 544              		.loc 2 195 2 is_stmt 0 view .LVU197
 545              	.LBE15:
 546              	.LBE14:
 261:../Resources/Middlewares/Third_Party/FreeRTOS/Source/portable/MemMang/heap_4.c **** 	return pvReturn;
 547              		.loc 1 261 2 is_stmt 1 discriminator 5 view .LVU198
 261:../Resources/Middlewares/Third_Party/FreeRTOS/Source/portable/MemMang/heap_4.c **** 	return pvReturn;
 548              		.loc 1 261 2 discriminator 5 view .LVU199
 261:../Resources/Middlewares/Third_Party/FreeRTOS/Source/portable/MemMang/heap_4.c **** 	return pvReturn;
 549              		.loc 1 261 2 discriminator 5 view .LVU200
 550 00d4 FEE7     		b	.L34
 551              	.LVL43:
 552              	.L37:
 118:../Resources/Middlewares/Third_Party/FreeRTOS/Source/portable/MemMang/heap_4.c **** 
 553              		.loc 1 118 7 is_stmt 0 view .LVU201
 554 00d6 0026     		movs	r6, #0
 555 00d8 EFE7     		b	.L25
 556              	.LVL44:
 557              	.L39:
 118:../Resources/Middlewares/Third_Party/FreeRTOS/Source/portable/MemMang/heap_4.c **** 
 558              		.loc 1 118 7 view .LVU202
 559 00da 0026     		movs	r6, #0
 560 00dc EDE7     		b	.L25
ARM GAS  /tmp/ccpmCXB0.s 			page 24


 561              	.LVL45:
 562              	.L23:
 263:../Resources/Middlewares/Third_Party/FreeRTOS/Source/portable/MemMang/heap_4.c **** /*-----------------------------------------------------------*/
 563              		.loc 1 263 1 view .LVU203
 564 00de 3046     		mov	r0, r6
 565 00e0 70BD     		pop	{r4, r5, r6, pc}
 566              	.LVL46:
 567              	.L43:
 263:../Resources/Middlewares/Third_Party/FreeRTOS/Source/portable/MemMang/heap_4.c **** /*-----------------------------------------------------------*/
 568              		.loc 1 263 1 view .LVU204
 569 00e2 00BF     		.align	2
 570              	.L42:
 571 00e4 00000000 		.word	.LANCHOR2
 572 00e8 00000000 		.word	.LANCHOR5
 573 00ec 00000000 		.word	.LANCHOR4
 574 00f0 00000000 		.word	.LANCHOR1
 575 00f4 00000000 		.word	.LANCHOR3
 576 00f8 00000000 		.word	.LANCHOR6
 577              		.cfi_endproc
 578              	.LFE4:
 580              		.section	.text.vPortFree,"ax",%progbits
 581              		.align	1
 582              		.global	vPortFree
 583              		.syntax unified
 584              		.thumb
 585              		.thumb_func
 587              	vPortFree:
 588              	.LVL47:
 589              	.LFB5:
 267:../Resources/Middlewares/Third_Party/FreeRTOS/Source/portable/MemMang/heap_4.c **** uint8_t *puc = ( uint8_t * ) pv;
 590              		.loc 1 267 1 is_stmt 1 view -0
 591              		.cfi_startproc
 592              		@ args = 0, pretend = 0, frame = 0
 593              		@ frame_needed = 0, uses_anonymous_args = 0
 268:../Resources/Middlewares/Third_Party/FreeRTOS/Source/portable/MemMang/heap_4.c **** BlockLink_t *pxLink;
 594              		.loc 1 268 1 view .LVU206
 269:../Resources/Middlewares/Third_Party/FreeRTOS/Source/portable/MemMang/heap_4.c **** 
 595              		.loc 1 269 1 view .LVU207
 271:../Resources/Middlewares/Third_Party/FreeRTOS/Source/portable/MemMang/heap_4.c **** 	{
 596              		.loc 1 271 2 view .LVU208
 271:../Resources/Middlewares/Third_Party/FreeRTOS/Source/portable/MemMang/heap_4.c **** 	{
 597              		.loc 1 271 4 is_stmt 0 view .LVU209
 598 0000 0028     		cmp	r0, #0
 599 0002 34D0     		beq	.L51
 267:../Resources/Middlewares/Third_Party/FreeRTOS/Source/portable/MemMang/heap_4.c **** uint8_t *puc = ( uint8_t * ) pv;
 600              		.loc 1 267 1 view .LVU210
 601 0004 38B5     		push	{r3, r4, r5, lr}
 602              	.LCFI5:
 603              		.cfi_def_cfa_offset 16
 604              		.cfi_offset 3, -16
 605              		.cfi_offset 4, -12
 606              		.cfi_offset 5, -8
 607              		.cfi_offset 14, -4
 608 0006 0446     		mov	r4, r0
 275:../Resources/Middlewares/Third_Party/FreeRTOS/Source/portable/MemMang/heap_4.c **** 
 609              		.loc 1 275 3 is_stmt 1 view .LVU211
 275:../Resources/Middlewares/Third_Party/FreeRTOS/Source/portable/MemMang/heap_4.c **** 
ARM GAS  /tmp/ccpmCXB0.s 			page 25


 610              		.loc 1 275 7 is_stmt 0 view .LVU212
 611 0008 A0F10805 		sub	r5, r0, #8
 612              	.LVL48:
 278:../Resources/Middlewares/Third_Party/FreeRTOS/Source/portable/MemMang/heap_4.c **** 
 613              		.loc 1 278 3 is_stmt 1 view .LVU213
 281:../Resources/Middlewares/Third_Party/FreeRTOS/Source/portable/MemMang/heap_4.c **** 		configASSERT( pxLink->pxNextFreeBlock == NULL );
 614              		.loc 1 281 3 view .LVU214
 615 000c 50F8043C 		ldr	r3, [r0, #-4]
 616 0010 174A     		ldr	r2, .L54
 617 0012 1268     		ldr	r2, [r2]
 618 0014 1342     		tst	r3, r2
 619 0016 08D1     		bne	.L46
 281:../Resources/Middlewares/Third_Party/FreeRTOS/Source/portable/MemMang/heap_4.c **** 		configASSERT( pxLink->pxNextFreeBlock == NULL );
 620              		.loc 1 281 3 view .LVU215
 621              	.LBB16:
 622              	.LBI16:
 191:../Resources/Middlewares/Third_Party/FreeRTOS/Source/portable/GCC/ARM_CM4F/portmacro.h **** {
 623              		.loc 2 191 30 view .LVU216
 624              	.LBB17:
 193:../Resources/Middlewares/Third_Party/FreeRTOS/Source/portable/GCC/ARM_CM4F/portmacro.h **** 
 625              		.loc 2 193 1 view .LVU217
 626              		.loc 2 195 2 view .LVU218
 627              		.syntax unified
 628              	@ 195 "../Resources/Middlewares/Third_Party/FreeRTOS/Source/portable/GCC/ARM_CM4F/portmacro.h" 1
 629 0018 4FF05003 			mov r3, #80												
 630 001c 83F31188 		msr basepri, r3											
 631 0020 BFF36F8F 		isb														
 632 0024 BFF34F8F 		dsb														
 633              	
 634              	@ 0 "" 2
 635              	.LVL49:
 636              		.thumb
 637              		.syntax unified
 638              	.L47:
 639              		.loc 2 195 2 is_stmt 0 view .LVU219
 640              	.LBE17:
 641              	.LBE16:
 281:../Resources/Middlewares/Third_Party/FreeRTOS/Source/portable/MemMang/heap_4.c **** 		configASSERT( pxLink->pxNextFreeBlock == NULL );
 642              		.loc 1 281 3 is_stmt 1 discriminator 1 view .LVU220
 281:../Resources/Middlewares/Third_Party/FreeRTOS/Source/portable/MemMang/heap_4.c **** 		configASSERT( pxLink->pxNextFreeBlock == NULL );
 643              		.loc 1 281 3 discriminator 1 view .LVU221
 281:../Resources/Middlewares/Third_Party/FreeRTOS/Source/portable/MemMang/heap_4.c **** 		configASSERT( pxLink->pxNextFreeBlock == NULL );
 644              		.loc 1 281 3 discriminator 1 view .LVU222
 645 0028 FEE7     		b	.L47
 646              	.L46:
 281:../Resources/Middlewares/Third_Party/FreeRTOS/Source/portable/MemMang/heap_4.c **** 		configASSERT( pxLink->pxNextFreeBlock == NULL );
 647              		.loc 1 281 67 discriminator 2 view .LVU223
 282:../Resources/Middlewares/Third_Party/FreeRTOS/Source/portable/MemMang/heap_4.c **** 
 648              		.loc 1 282 3 discriminator 2 view .LVU224
 649 002a 50F8081C 		ldr	r1, [r0, #-8]
 650 002e 41B1     		cbz	r1, .L48
 282:../Resources/Middlewares/Third_Party/FreeRTOS/Source/portable/MemMang/heap_4.c **** 
 651              		.loc 1 282 3 view .LVU225
 652              	.LBB18:
 653              	.LBI18:
 191:../Resources/Middlewares/Third_Party/FreeRTOS/Source/portable/GCC/ARM_CM4F/portmacro.h **** {
 654              		.loc 2 191 30 view .LVU226
ARM GAS  /tmp/ccpmCXB0.s 			page 26


 655              	.LBB19:
 193:../Resources/Middlewares/Third_Party/FreeRTOS/Source/portable/GCC/ARM_CM4F/portmacro.h **** 
 656              		.loc 2 193 1 view .LVU227
 657              		.loc 2 195 2 view .LVU228
 658              		.syntax unified
 659              	@ 195 "../Resources/Middlewares/Third_Party/FreeRTOS/Source/portable/GCC/ARM_CM4F/portmacro.h" 1
 660 0030 4FF05003 			mov r3, #80												
 661 0034 83F31188 		msr basepri, r3											
 662 0038 BFF36F8F 		isb														
 663 003c BFF34F8F 		dsb														
 664              	
 665              	@ 0 "" 2
 666              	.LVL50:
 667              		.thumb
 668              		.syntax unified
 669              	.L49:
 670              		.loc 2 195 2 is_stmt 0 view .LVU229
 671              	.LBE19:
 672              	.LBE18:
 282:../Resources/Middlewares/Third_Party/FreeRTOS/Source/portable/MemMang/heap_4.c **** 
 673              		.loc 1 282 3 is_stmt 1 discriminator 2 view .LVU230
 282:../Resources/Middlewares/Third_Party/FreeRTOS/Source/portable/MemMang/heap_4.c **** 
 674              		.loc 1 282 3 discriminator 2 view .LVU231
 282:../Resources/Middlewares/Third_Party/FreeRTOS/Source/portable/MemMang/heap_4.c **** 
 675              		.loc 1 282 3 discriminator 2 view .LVU232
 676 0040 FEE7     		b	.L49
 677              	.L48:
 282:../Resources/Middlewares/Third_Party/FreeRTOS/Source/portable/MemMang/heap_4.c **** 
 678              		.loc 1 282 50 view .LVU233
 284:../Resources/Middlewares/Third_Party/FreeRTOS/Source/portable/MemMang/heap_4.c **** 		{
 679              		.loc 1 284 3 view .LVU234
 286:../Resources/Middlewares/Third_Party/FreeRTOS/Source/portable/MemMang/heap_4.c **** 			{
 680              		.loc 1 286 4 view .LVU235
 290:../Resources/Middlewares/Third_Party/FreeRTOS/Source/portable/MemMang/heap_4.c **** 
 681              		.loc 1 290 5 view .LVU236
 290:../Resources/Middlewares/Third_Party/FreeRTOS/Source/portable/MemMang/heap_4.c **** 
 682              		.loc 1 290 24 is_stmt 0 view .LVU237
 683 0042 23EA0203 		bic	r3, r3, r2
 684 0046 40F8043C 		str	r3, [r0, #-4]
 292:../Resources/Middlewares/Third_Party/FreeRTOS/Source/portable/MemMang/heap_4.c **** 				{
 685              		.loc 1 292 5 is_stmt 1 view .LVU238
 686 004a FFF7FEFF 		bl	vTaskSuspendAll
 687              	.LVL51:
 295:../Resources/Middlewares/Third_Party/FreeRTOS/Source/portable/MemMang/heap_4.c **** 					traceFREE( pv, pxLink->xBlockSize );
 688              		.loc 1 295 6 view .LVU239
 295:../Resources/Middlewares/Third_Party/FreeRTOS/Source/portable/MemMang/heap_4.c **** 					traceFREE( pv, pxLink->xBlockSize );
 689              		.loc 1 295 35 is_stmt 0 view .LVU240
 690 004e 54F8041C 		ldr	r1, [r4, #-4]
 295:../Resources/Middlewares/Third_Party/FreeRTOS/Source/portable/MemMang/heap_4.c **** 					traceFREE( pv, pxLink->xBlockSize );
 691              		.loc 1 295 26 view .LVU241
 692 0052 084A     		ldr	r2, .L54+4
 693 0054 1368     		ldr	r3, [r2]
 694 0056 0B44     		add	r3, r3, r1
 695 0058 1360     		str	r3, [r2]
 296:../Resources/Middlewares/Third_Party/FreeRTOS/Source/portable/MemMang/heap_4.c **** 					prvInsertBlockIntoFreeList( ( ( BlockLink_t * ) pxLink ) );
 696              		.loc 1 296 41 is_stmt 1 view .LVU242
 297:../Resources/Middlewares/Third_Party/FreeRTOS/Source/portable/MemMang/heap_4.c **** 					xNumberOfSuccessfulFrees++;
ARM GAS  /tmp/ccpmCXB0.s 			page 27


 697              		.loc 1 297 6 view .LVU243
 698 005a 2846     		mov	r0, r5
 699 005c FFF7FEFF 		bl	prvInsertBlockIntoFreeList
 700              	.LVL52:
 298:../Resources/Middlewares/Third_Party/FreeRTOS/Source/portable/MemMang/heap_4.c **** 				}
 701              		.loc 1 298 6 view .LVU244
 298:../Resources/Middlewares/Third_Party/FreeRTOS/Source/portable/MemMang/heap_4.c **** 				}
 702              		.loc 1 298 30 is_stmt 0 view .LVU245
 703 0060 054A     		ldr	r2, .L54+8
 704 0062 1368     		ldr	r3, [r2]
 705 0064 0133     		adds	r3, r3, #1
 706 0066 1360     		str	r3, [r2]
 300:../Resources/Middlewares/Third_Party/FreeRTOS/Source/portable/MemMang/heap_4.c **** 			}
 707              		.loc 1 300 5 is_stmt 1 view .LVU246
 300:../Resources/Middlewares/Third_Party/FreeRTOS/Source/portable/MemMang/heap_4.c **** 			}
 708              		.loc 1 300 14 is_stmt 0 view .LVU247
 709 0068 FFF7FEFF 		bl	xTaskResumeAll
 710              	.LVL53:
 309:../Resources/Middlewares/Third_Party/FreeRTOS/Source/portable/MemMang/heap_4.c **** 		}
 711              		.loc 1 309 28 is_stmt 1 view .LVU248
 312:../Resources/Middlewares/Third_Party/FreeRTOS/Source/portable/MemMang/heap_4.c **** /*-----------------------------------------------------------*/
 712              		.loc 1 312 1 is_stmt 0 view .LVU249
 713 006c 38BD     		pop	{r3, r4, r5, pc}
 714              	.LVL54:
 715              	.L51:
 716              	.LCFI6:
 717              		.cfi_def_cfa_offset 0
 718              		.cfi_restore 3
 719              		.cfi_restore 4
 720              		.cfi_restore 5
 721              		.cfi_restore 14
 312:../Resources/Middlewares/Third_Party/FreeRTOS/Source/portable/MemMang/heap_4.c **** /*-----------------------------------------------------------*/
 722              		.loc 1 312 1 view .LVU250
 723 006e 7047     		bx	lr
 724              	.L55:
 725              		.align	2
 726              	.L54:
 727 0070 00000000 		.word	.LANCHOR5
 728 0074 00000000 		.word	.LANCHOR4
 729 0078 00000000 		.word	.LANCHOR7
 730              		.cfi_endproc
 731              	.LFE5:
 733              		.section	.text.xPortGetFreeHeapSize,"ax",%progbits
 734              		.align	1
 735              		.global	xPortGetFreeHeapSize
 736              		.syntax unified
 737              		.thumb
 738              		.thumb_func
 740              	xPortGetFreeHeapSize:
 741              	.LFB6:
 316:../Resources/Middlewares/Third_Party/FreeRTOS/Source/portable/MemMang/heap_4.c **** 	return xFreeBytesRemaining;
 742              		.loc 1 316 1 is_stmt 1 view -0
 743              		.cfi_startproc
 744              		@ args = 0, pretend = 0, frame = 0
 745              		@ frame_needed = 0, uses_anonymous_args = 0
 746              		@ link register save eliminated.
 317:../Resources/Middlewares/Third_Party/FreeRTOS/Source/portable/MemMang/heap_4.c **** }
ARM GAS  /tmp/ccpmCXB0.s 			page 28


 747              		.loc 1 317 2 view .LVU252
 318:../Resources/Middlewares/Third_Party/FreeRTOS/Source/portable/MemMang/heap_4.c **** /*-----------------------------------------------------------*/
 748              		.loc 1 318 1 is_stmt 0 view .LVU253
 749 0000 014B     		ldr	r3, .L57
 750 0002 1868     		ldr	r0, [r3]
 751 0004 7047     		bx	lr
 752              	.L58:
 753 0006 00BF     		.align	2
 754              	.L57:
 755 0008 00000000 		.word	.LANCHOR4
 756              		.cfi_endproc
 757              	.LFE6:
 759              		.section	.text.xPortGetMinimumEverFreeHeapSize,"ax",%progbits
 760              		.align	1
 761              		.global	xPortGetMinimumEverFreeHeapSize
 762              		.syntax unified
 763              		.thumb
 764              		.thumb_func
 766              	xPortGetMinimumEverFreeHeapSize:
 767              	.LFB7:
 322:../Resources/Middlewares/Third_Party/FreeRTOS/Source/portable/MemMang/heap_4.c **** 	return xMinimumEverFreeBytesRemaining;
 768              		.loc 1 322 1 is_stmt 1 view -0
 769              		.cfi_startproc
 770              		@ args = 0, pretend = 0, frame = 0
 771              		@ frame_needed = 0, uses_anonymous_args = 0
 772              		@ link register save eliminated.
 323:../Resources/Middlewares/Third_Party/FreeRTOS/Source/portable/MemMang/heap_4.c **** }
 773              		.loc 1 323 2 view .LVU255
 324:../Resources/Middlewares/Third_Party/FreeRTOS/Source/portable/MemMang/heap_4.c **** /*-----------------------------------------------------------*/
 774              		.loc 1 324 1 is_stmt 0 view .LVU256
 775 0000 014B     		ldr	r3, .L60
 776 0002 1868     		ldr	r0, [r3]
 777 0004 7047     		bx	lr
 778              	.L61:
 779 0006 00BF     		.align	2
 780              	.L60:
 781 0008 00000000 		.word	.LANCHOR3
 782              		.cfi_endproc
 783              	.LFE7:
 785              		.section	.text.vPortInitialiseBlocks,"ax",%progbits
 786              		.align	1
 787              		.global	vPortInitialiseBlocks
 788              		.syntax unified
 789              		.thumb
 790              		.thumb_func
 792              	vPortInitialiseBlocks:
 793              	.LFB8:
 328:../Resources/Middlewares/Third_Party/FreeRTOS/Source/portable/MemMang/heap_4.c **** 	/* This just exists to keep the linker quiet. */
 794              		.loc 1 328 1 is_stmt 1 view -0
 795              		.cfi_startproc
 796              		@ args = 0, pretend = 0, frame = 0
 797              		@ frame_needed = 0, uses_anonymous_args = 0
 798              		@ link register save eliminated.
 330:../Resources/Middlewares/Third_Party/FreeRTOS/Source/portable/MemMang/heap_4.c **** /*-----------------------------------------------------------*/
 799              		.loc 1 330 1 view .LVU258
 800 0000 7047     		bx	lr
 801              		.cfi_endproc
ARM GAS  /tmp/ccpmCXB0.s 			page 29


 802              	.LFE8:
 804              		.section	.text.vPortGetHeapStats,"ax",%progbits
 805              		.align	1
 806              		.global	vPortGetHeapStats
 807              		.syntax unified
 808              		.thumb
 809              		.thumb_func
 811              	vPortGetHeapStats:
 812              	.LVL55:
 813              	.LFB11:
 440:../Resources/Middlewares/Third_Party/FreeRTOS/Source/portable/MemMang/heap_4.c **** /*-----------------------------------------------------------*/
 441:../Resources/Middlewares/Third_Party/FreeRTOS/Source/portable/MemMang/heap_4.c **** 
 442:../Resources/Middlewares/Third_Party/FreeRTOS/Source/portable/MemMang/heap_4.c **** void vPortGetHeapStats( HeapStats_t *pxHeapStats )
 443:../Resources/Middlewares/Third_Party/FreeRTOS/Source/portable/MemMang/heap_4.c **** {
 814              		.loc 1 443 1 view -0
 815              		.cfi_startproc
 816              		@ args = 0, pretend = 0, frame = 0
 817              		@ frame_needed = 0, uses_anonymous_args = 0
 818              		.loc 1 443 1 is_stmt 0 view .LVU260
 819 0000 F8B5     		push	{r3, r4, r5, r6, r7, lr}
 820              	.LCFI7:
 821              		.cfi_def_cfa_offset 24
 822              		.cfi_offset 3, -24
 823              		.cfi_offset 4, -20
 824              		.cfi_offset 5, -16
 825              		.cfi_offset 6, -12
 826              		.cfi_offset 7, -8
 827              		.cfi_offset 14, -4
 828 0002 0746     		mov	r7, r0
 444:../Resources/Middlewares/Third_Party/FreeRTOS/Source/portable/MemMang/heap_4.c **** BlockLink_t *pxBlock;
 829              		.loc 1 444 1 is_stmt 1 view .LVU261
 445:../Resources/Middlewares/Third_Party/FreeRTOS/Source/portable/MemMang/heap_4.c **** size_t xBlocks = 0, xMaxSize = 0, xMinSize = portMAX_DELAY; /* portMAX_DELAY used as a portable way
 830              		.loc 1 445 1 view .LVU262
 831              	.LVL56:
 446:../Resources/Middlewares/Third_Party/FreeRTOS/Source/portable/MemMang/heap_4.c **** 
 447:../Resources/Middlewares/Third_Party/FreeRTOS/Source/portable/MemMang/heap_4.c **** 	vTaskSuspendAll();
 832              		.loc 1 447 2 view .LVU263
 833 0004 FFF7FEFF 		bl	vTaskSuspendAll
 834              	.LVL57:
 448:../Resources/Middlewares/Third_Party/FreeRTOS/Source/portable/MemMang/heap_4.c **** 	{
 449:../Resources/Middlewares/Third_Party/FreeRTOS/Source/portable/MemMang/heap_4.c **** 		pxBlock = xStart.pxNextFreeBlock;
 835              		.loc 1 449 3 view .LVU264
 836              		.loc 1 449 11 is_stmt 0 view .LVU265
 837 0008 174B     		ldr	r3, .L72
 838 000a 1B68     		ldr	r3, [r3]
 839              	.LVL58:
 450:../Resources/Middlewares/Third_Party/FreeRTOS/Source/portable/MemMang/heap_4.c **** 
 451:../Resources/Middlewares/Third_Party/FreeRTOS/Source/portable/MemMang/heap_4.c **** 		/* pxBlock will be NULL if the heap has not been initialised.  The heap
 452:../Resources/Middlewares/Third_Party/FreeRTOS/Source/portable/MemMang/heap_4.c **** 		is initialised automatically when the first allocation is made. */
 453:../Resources/Middlewares/Third_Party/FreeRTOS/Source/portable/MemMang/heap_4.c **** 		if( pxBlock != NULL )
 840              		.loc 1 453 3 is_stmt 1 view .LVU266
 841              		.loc 1 453 5 is_stmt 0 view .LVU267
 842 000c 93B1     		cbz	r3, .L68
 445:../Resources/Middlewares/Third_Party/FreeRTOS/Source/portable/MemMang/heap_4.c **** 
 843              		.loc 1 445 35 view .LVU268
 844 000e 4FF0FF36 		mov	r6, #-1
 445:../Resources/Middlewares/Third_Party/FreeRTOS/Source/portable/MemMang/heap_4.c **** 
ARM GAS  /tmp/ccpmCXB0.s 			page 30


 845              		.loc 1 445 21 view .LVU269
 846 0012 0025     		movs	r5, #0
 445:../Resources/Middlewares/Third_Party/FreeRTOS/Source/portable/MemMang/heap_4.c **** 
 847              		.loc 1 445 8 view .LVU270
 848 0014 2C46     		mov	r4, r5
 849 0016 04E0     		b	.L67
 850              	.LVL59:
 851              	.L66:
 454:../Resources/Middlewares/Third_Party/FreeRTOS/Source/portable/MemMang/heap_4.c **** 		{
 455:../Resources/Middlewares/Third_Party/FreeRTOS/Source/portable/MemMang/heap_4.c **** 			do
 456:../Resources/Middlewares/Third_Party/FreeRTOS/Source/portable/MemMang/heap_4.c **** 			{
 457:../Resources/Middlewares/Third_Party/FreeRTOS/Source/portable/MemMang/heap_4.c **** 				/* Increment the number of blocks and record the largest block seen
 458:../Resources/Middlewares/Third_Party/FreeRTOS/Source/portable/MemMang/heap_4.c **** 				so far. */
 459:../Resources/Middlewares/Third_Party/FreeRTOS/Source/portable/MemMang/heap_4.c **** 				xBlocks++;
 460:../Resources/Middlewares/Third_Party/FreeRTOS/Source/portable/MemMang/heap_4.c **** 
 461:../Resources/Middlewares/Third_Party/FreeRTOS/Source/portable/MemMang/heap_4.c **** 				if( pxBlock->xBlockSize > xMaxSize )
 462:../Resources/Middlewares/Third_Party/FreeRTOS/Source/portable/MemMang/heap_4.c **** 				{
 463:../Resources/Middlewares/Third_Party/FreeRTOS/Source/portable/MemMang/heap_4.c **** 					xMaxSize = pxBlock->xBlockSize;
 464:../Resources/Middlewares/Third_Party/FreeRTOS/Source/portable/MemMang/heap_4.c **** 				}
 465:../Resources/Middlewares/Third_Party/FreeRTOS/Source/portable/MemMang/heap_4.c **** 
 466:../Resources/Middlewares/Third_Party/FreeRTOS/Source/portable/MemMang/heap_4.c **** 				if( pxBlock->xBlockSize < xMinSize )
 467:../Resources/Middlewares/Third_Party/FreeRTOS/Source/portable/MemMang/heap_4.c **** 				{
 468:../Resources/Middlewares/Third_Party/FreeRTOS/Source/portable/MemMang/heap_4.c **** 					xMinSize = pxBlock->xBlockSize;
 469:../Resources/Middlewares/Third_Party/FreeRTOS/Source/portable/MemMang/heap_4.c **** 				}
 470:../Resources/Middlewares/Third_Party/FreeRTOS/Source/portable/MemMang/heap_4.c **** 
 471:../Resources/Middlewares/Third_Party/FreeRTOS/Source/portable/MemMang/heap_4.c **** 				/* Move to the next block in the chain until the last block is
 472:../Resources/Middlewares/Third_Party/FreeRTOS/Source/portable/MemMang/heap_4.c **** 				reached. */
 473:../Resources/Middlewares/Third_Party/FreeRTOS/Source/portable/MemMang/heap_4.c **** 				pxBlock = pxBlock->pxNextFreeBlock;
 852              		.loc 1 473 5 is_stmt 1 view .LVU271
 853              		.loc 1 473 13 is_stmt 0 view .LVU272
 854 0018 1B68     		ldr	r3, [r3]
 855              	.LVL60:
 474:../Resources/Middlewares/Third_Party/FreeRTOS/Source/portable/MemMang/heap_4.c **** 			} while( pxBlock != pxEnd );
 856              		.loc 1 474 11 is_stmt 1 view .LVU273
 857              		.loc 1 474 21 is_stmt 0 view .LVU274
 858 001a 144A     		ldr	r2, .L72+4
 859 001c 1268     		ldr	r2, [r2]
 860              		.loc 1 474 4 view .LVU275
 861 001e 9A42     		cmp	r2, r3
 862 0020 0CD0     		beq	.L64
 863              	.LVL61:
 864              	.L67:
 455:../Resources/Middlewares/Third_Party/FreeRTOS/Source/portable/MemMang/heap_4.c **** 			{
 865              		.loc 1 455 4 is_stmt 1 view .LVU276
 459:../Resources/Middlewares/Third_Party/FreeRTOS/Source/portable/MemMang/heap_4.c **** 
 866              		.loc 1 459 5 view .LVU277
 459:../Resources/Middlewares/Third_Party/FreeRTOS/Source/portable/MemMang/heap_4.c **** 
 867              		.loc 1 459 12 is_stmt 0 view .LVU278
 868 0022 0134     		adds	r4, r4, #1
 869              	.LVL62:
 461:../Resources/Middlewares/Third_Party/FreeRTOS/Source/portable/MemMang/heap_4.c **** 				{
 870              		.loc 1 461 5 is_stmt 1 view .LVU279
 461:../Resources/Middlewares/Third_Party/FreeRTOS/Source/portable/MemMang/heap_4.c **** 				{
 871              		.loc 1 461 16 is_stmt 0 view .LVU280
 872 0024 5A68     		ldr	r2, [r3, #4]
 461:../Resources/Middlewares/Third_Party/FreeRTOS/Source/portable/MemMang/heap_4.c **** 				{
 873              		.loc 1 461 7 view .LVU281
ARM GAS  /tmp/ccpmCXB0.s 			page 31


 874 0026 AA42     		cmp	r2, r5
 875 0028 00D9     		bls	.L65
 463:../Resources/Middlewares/Third_Party/FreeRTOS/Source/portable/MemMang/heap_4.c **** 				}
 876              		.loc 1 463 15 view .LVU282
 877 002a 1546     		mov	r5, r2
 878              	.LVL63:
 879              	.L65:
 466:../Resources/Middlewares/Third_Party/FreeRTOS/Source/portable/MemMang/heap_4.c **** 				{
 880              		.loc 1 466 5 is_stmt 1 view .LVU283
 466:../Resources/Middlewares/Third_Party/FreeRTOS/Source/portable/MemMang/heap_4.c **** 				{
 881              		.loc 1 466 7 is_stmt 0 view .LVU284
 882 002c B242     		cmp	r2, r6
 883 002e F3D2     		bcs	.L66
 468:../Resources/Middlewares/Third_Party/FreeRTOS/Source/portable/MemMang/heap_4.c **** 				}
 884              		.loc 1 468 15 view .LVU285
 885 0030 1646     		mov	r6, r2
 886              	.LVL64:
 468:../Resources/Middlewares/Third_Party/FreeRTOS/Source/portable/MemMang/heap_4.c **** 				}
 887              		.loc 1 468 15 view .LVU286
 888 0032 F1E7     		b	.L66
 889              	.LVL65:
 890              	.L68:
 445:../Resources/Middlewares/Third_Party/FreeRTOS/Source/portable/MemMang/heap_4.c **** 
 891              		.loc 1 445 35 view .LVU287
 892 0034 4FF0FF36 		mov	r6, #-1
 445:../Resources/Middlewares/Third_Party/FreeRTOS/Source/portable/MemMang/heap_4.c **** 
 893              		.loc 1 445 21 view .LVU288
 894 0038 0025     		movs	r5, #0
 445:../Resources/Middlewares/Third_Party/FreeRTOS/Source/portable/MemMang/heap_4.c **** 
 895              		.loc 1 445 8 view .LVU289
 896 003a 2C46     		mov	r4, r5
 897              	.LVL66:
 898              	.L64:
 475:../Resources/Middlewares/Third_Party/FreeRTOS/Source/portable/MemMang/heap_4.c **** 		}
 476:../Resources/Middlewares/Third_Party/FreeRTOS/Source/portable/MemMang/heap_4.c **** 	}
 477:../Resources/Middlewares/Third_Party/FreeRTOS/Source/portable/MemMang/heap_4.c **** 	xTaskResumeAll();
 899              		.loc 1 477 2 is_stmt 1 view .LVU290
 900 003c FFF7FEFF 		bl	xTaskResumeAll
 901              	.LVL67:
 478:../Resources/Middlewares/Third_Party/FreeRTOS/Source/portable/MemMang/heap_4.c **** 
 479:../Resources/Middlewares/Third_Party/FreeRTOS/Source/portable/MemMang/heap_4.c **** 	pxHeapStats->xSizeOfLargestFreeBlockInBytes = xMaxSize;
 902              		.loc 1 479 2 view .LVU291
 903              		.loc 1 479 46 is_stmt 0 view .LVU292
 904 0040 7D60     		str	r5, [r7, #4]
 480:../Resources/Middlewares/Third_Party/FreeRTOS/Source/portable/MemMang/heap_4.c **** 	pxHeapStats->xSizeOfSmallestFreeBlockInBytes = xMinSize;
 905              		.loc 1 480 2 is_stmt 1 view .LVU293
 906              		.loc 1 480 47 is_stmt 0 view .LVU294
 907 0042 BE60     		str	r6, [r7, #8]
 481:../Resources/Middlewares/Third_Party/FreeRTOS/Source/portable/MemMang/heap_4.c **** 	pxHeapStats->xNumberOfFreeBlocks = xBlocks;
 908              		.loc 1 481 2 is_stmt 1 view .LVU295
 909              		.loc 1 481 35 is_stmt 0 view .LVU296
 910 0044 FC60     		str	r4, [r7, #12]
 482:../Resources/Middlewares/Third_Party/FreeRTOS/Source/portable/MemMang/heap_4.c **** 
 483:../Resources/Middlewares/Third_Party/FreeRTOS/Source/portable/MemMang/heap_4.c **** 	taskENTER_CRITICAL();
 911              		.loc 1 483 2 is_stmt 1 view .LVU297
 912 0046 FFF7FEFF 		bl	vPortEnterCritical
 913              	.LVL68:
ARM GAS  /tmp/ccpmCXB0.s 			page 32


 484:../Resources/Middlewares/Third_Party/FreeRTOS/Source/portable/MemMang/heap_4.c **** 	{
 485:../Resources/Middlewares/Third_Party/FreeRTOS/Source/portable/MemMang/heap_4.c **** 		pxHeapStats->xAvailableHeapSpaceInBytes = xFreeBytesRemaining;
 914              		.loc 1 485 3 view .LVU298
 915              		.loc 1 485 43 is_stmt 0 view .LVU299
 916 004a 094B     		ldr	r3, .L72+8
 917 004c 1B68     		ldr	r3, [r3]
 918 004e 3B60     		str	r3, [r7]
 486:../Resources/Middlewares/Third_Party/FreeRTOS/Source/portable/MemMang/heap_4.c **** 		pxHeapStats->xNumberOfSuccessfulAllocations = xNumberOfSuccessfulAllocations;
 919              		.loc 1 486 3 is_stmt 1 view .LVU300
 920              		.loc 1 486 47 is_stmt 0 view .LVU301
 921 0050 084B     		ldr	r3, .L72+12
 922 0052 1B68     		ldr	r3, [r3]
 923 0054 7B61     		str	r3, [r7, #20]
 487:../Resources/Middlewares/Third_Party/FreeRTOS/Source/portable/MemMang/heap_4.c **** 		pxHeapStats->xNumberOfSuccessfulFrees = xNumberOfSuccessfulFrees;
 924              		.loc 1 487 3 is_stmt 1 view .LVU302
 925              		.loc 1 487 41 is_stmt 0 view .LVU303
 926 0056 084B     		ldr	r3, .L72+16
 927 0058 1B68     		ldr	r3, [r3]
 928 005a BB61     		str	r3, [r7, #24]
 488:../Resources/Middlewares/Third_Party/FreeRTOS/Source/portable/MemMang/heap_4.c **** 		pxHeapStats->xMinimumEverFreeBytesRemaining = xMinimumEverFreeBytesRemaining;
 929              		.loc 1 488 3 is_stmt 1 view .LVU304
 930              		.loc 1 488 47 is_stmt 0 view .LVU305
 931 005c 074B     		ldr	r3, .L72+20
 932 005e 1B68     		ldr	r3, [r3]
 933 0060 3B61     		str	r3, [r7, #16]
 489:../Resources/Middlewares/Third_Party/FreeRTOS/Source/portable/MemMang/heap_4.c **** 	}
 490:../Resources/Middlewares/Third_Party/FreeRTOS/Source/portable/MemMang/heap_4.c **** 	taskEXIT_CRITICAL();
 934              		.loc 1 490 2 is_stmt 1 view .LVU306
 935 0062 FFF7FEFF 		bl	vPortExitCritical
 936              	.LVL69:
 491:../Resources/Middlewares/Third_Party/FreeRTOS/Source/portable/MemMang/heap_4.c **** }
 937              		.loc 1 491 1 is_stmt 0 view .LVU307
 938 0066 F8BD     		pop	{r3, r4, r5, r6, r7, pc}
 939              	.LVL70:
 940              	.L73:
 941              		.loc 1 491 1 view .LVU308
 942              		.align	2
 943              	.L72:
 944 0068 00000000 		.word	.LANCHOR1
 945 006c 00000000 		.word	.LANCHOR2
 946 0070 00000000 		.word	.LANCHOR4
 947 0074 00000000 		.word	.LANCHOR6
 948 0078 00000000 		.word	.LANCHOR7
 949 007c 00000000 		.word	.LANCHOR3
 950              		.cfi_endproc
 951              	.LFE11:
 953              		.section	.bss.pxEnd,"aw",%nobits
 954              		.align	2
 955              		.set	.LANCHOR2,. + 0
 958              	pxEnd:
 959 0000 00000000 		.space	4
 960              		.section	.bss.ucHeap,"aw",%nobits
 961              		.align	2
 962              		.set	.LANCHOR0,. + 0
 965              	ucHeap:
 966 0000 00000000 		.space	3000
 966      00000000 
ARM GAS  /tmp/ccpmCXB0.s 			page 33


 966      00000000 
 966      00000000 
 966      00000000 
 967              		.section	.bss.xBlockAllocatedBit,"aw",%nobits
 968              		.align	2
 969              		.set	.LANCHOR5,. + 0
 972              	xBlockAllocatedBit:
 973 0000 00000000 		.space	4
 974              		.section	.bss.xFreeBytesRemaining,"aw",%nobits
 975              		.align	2
 976              		.set	.LANCHOR4,. + 0
 979              	xFreeBytesRemaining:
 980 0000 00000000 		.space	4
 981              		.section	.bss.xMinimumEverFreeBytesRemaining,"aw",%nobits
 982              		.align	2
 983              		.set	.LANCHOR3,. + 0
 986              	xMinimumEverFreeBytesRemaining:
 987 0000 00000000 		.space	4
 988              		.section	.bss.xNumberOfSuccessfulAllocations,"aw",%nobits
 989              		.align	2
 990              		.set	.LANCHOR6,. + 0
 993              	xNumberOfSuccessfulAllocations:
 994 0000 00000000 		.space	4
 995              		.section	.bss.xNumberOfSuccessfulFrees,"aw",%nobits
 996              		.align	2
 997              		.set	.LANCHOR7,. + 0
 1000              	xNumberOfSuccessfulFrees:
 1001 0000 00000000 		.space	4
 1002              		.section	.bss.xStart,"aw",%nobits
 1003              		.align	2
 1004              		.set	.LANCHOR1,. + 0
 1007              	xStart:
 1008 0000 00000000 		.space	8
 1008      00000000 
 1009              		.text
 1010              	.Letext0:
 1011              		.file 3 "/root/Linux-Dev/Car-IV-Firmware/Tools/gcc-arm-none-eabi-10.3-2021.10/lib/gcc/arm-none-eab
 1012              		.file 4 "/root/Linux-Dev/Car-IV-Firmware/Tools/gcc-arm-none-eabi-10.3-2021.10/arm-none-eabi/includ
 1013              		.file 5 "/root/Linux-Dev/Car-IV-Firmware/Tools/gcc-arm-none-eabi-10.3-2021.10/arm-none-eabi/includ
 1014              		.file 6 "../Resources/Middlewares/Third_Party/FreeRTOS/Source/include/portable.h"
 1015              		.file 7 "../Resources/Middlewares/Third_Party/FreeRTOS/Source/include/task.h"
ARM GAS  /tmp/ccpmCXB0.s 			page 34

