ARM GAS  /tmp/ccMFwPRI.s 			page 1


   1              		.cpu cortex-m4
   2              		.arch armv7e-m
   3              		.fpu fpv4-sp-d16
   4              		.eabi_attribute 27, 1
   5              		.eabi_attribute 28, 1
   6              		.eabi_attribute 20, 1
   7              		.eabi_attribute 21, 1
   8              		.eabi_attribute 23, 3
   9              		.eabi_attribute 24, 1
  10              		.eabi_attribute 25, 1
  11              		.eabi_attribute 26, 1
  12              		.eabi_attribute 30, 1
  13              		.eabi_attribute 34, 1
  14              		.eabi_attribute 18, 4
  15              		.file	"stm32l4xx_hal_pwr_ex.c"
  16              		.text
  17              	.Ltext0:
  18              		.cfi_sections	.debug_frame
  19              		.section	.text.HAL_PWREx_GetVoltageRange,"ax",%progbits
  20              		.align	1
  21              		.global	HAL_PWREx_GetVoltageRange
  22              		.syntax unified
  23              		.thumb
  24              		.thumb_func
  26              	HAL_PWREx_GetVoltageRange:
  27              	.LFB132:
  28              		.file 1 "../Resources/Drivers/STM32L4xx_HAL_Driver/Src/stm32l4xx_hal_pwr_ex.c"
   1:../Resources/Drivers/STM32L4xx_HAL_Driver/Src/stm32l4xx_hal_pwr_ex.c **** /**
   2:../Resources/Drivers/STM32L4xx_HAL_Driver/Src/stm32l4xx_hal_pwr_ex.c ****   ******************************************************************************
   3:../Resources/Drivers/STM32L4xx_HAL_Driver/Src/stm32l4xx_hal_pwr_ex.c ****   * @file    stm32l4xx_hal_pwr_ex.c
   4:../Resources/Drivers/STM32L4xx_HAL_Driver/Src/stm32l4xx_hal_pwr_ex.c ****   * @author  MCD Application Team
   5:../Resources/Drivers/STM32L4xx_HAL_Driver/Src/stm32l4xx_hal_pwr_ex.c ****   * @brief   Extended PWR HAL module driver.
   6:../Resources/Drivers/STM32L4xx_HAL_Driver/Src/stm32l4xx_hal_pwr_ex.c ****   *          This file provides firmware functions to manage the following
   7:../Resources/Drivers/STM32L4xx_HAL_Driver/Src/stm32l4xx_hal_pwr_ex.c ****   *          functionalities of the Power Controller (PWR) peripheral:
   8:../Resources/Drivers/STM32L4xx_HAL_Driver/Src/stm32l4xx_hal_pwr_ex.c ****   *           + Extended Initialization and de-initialization functions
   9:../Resources/Drivers/STM32L4xx_HAL_Driver/Src/stm32l4xx_hal_pwr_ex.c ****   *           + Extended Peripheral Control functions
  10:../Resources/Drivers/STM32L4xx_HAL_Driver/Src/stm32l4xx_hal_pwr_ex.c ****   *
  11:../Resources/Drivers/STM32L4xx_HAL_Driver/Src/stm32l4xx_hal_pwr_ex.c ****   ******************************************************************************
  12:../Resources/Drivers/STM32L4xx_HAL_Driver/Src/stm32l4xx_hal_pwr_ex.c ****   * @attention
  13:../Resources/Drivers/STM32L4xx_HAL_Driver/Src/stm32l4xx_hal_pwr_ex.c ****   *
  14:../Resources/Drivers/STM32L4xx_HAL_Driver/Src/stm32l4xx_hal_pwr_ex.c ****   * Copyright (c) 2017 STMicroelectronics.
  15:../Resources/Drivers/STM32L4xx_HAL_Driver/Src/stm32l4xx_hal_pwr_ex.c ****   * All rights reserved.
  16:../Resources/Drivers/STM32L4xx_HAL_Driver/Src/stm32l4xx_hal_pwr_ex.c ****   *
  17:../Resources/Drivers/STM32L4xx_HAL_Driver/Src/stm32l4xx_hal_pwr_ex.c ****   * This software is licensed under terms that can be found in the LICENSE file
  18:../Resources/Drivers/STM32L4xx_HAL_Driver/Src/stm32l4xx_hal_pwr_ex.c ****   * in the root directory of this software component.
  19:../Resources/Drivers/STM32L4xx_HAL_Driver/Src/stm32l4xx_hal_pwr_ex.c ****   * If no LICENSE file comes with this software, it is provided AS-IS.
  20:../Resources/Drivers/STM32L4xx_HAL_Driver/Src/stm32l4xx_hal_pwr_ex.c ****   *
  21:../Resources/Drivers/STM32L4xx_HAL_Driver/Src/stm32l4xx_hal_pwr_ex.c ****   ******************************************************************************
  22:../Resources/Drivers/STM32L4xx_HAL_Driver/Src/stm32l4xx_hal_pwr_ex.c ****   */
  23:../Resources/Drivers/STM32L4xx_HAL_Driver/Src/stm32l4xx_hal_pwr_ex.c **** 
  24:../Resources/Drivers/STM32L4xx_HAL_Driver/Src/stm32l4xx_hal_pwr_ex.c **** /* Includes ------------------------------------------------------------------*/
  25:../Resources/Drivers/STM32L4xx_HAL_Driver/Src/stm32l4xx_hal_pwr_ex.c **** #include "stm32l4xx_hal.h"
  26:../Resources/Drivers/STM32L4xx_HAL_Driver/Src/stm32l4xx_hal_pwr_ex.c **** 
  27:../Resources/Drivers/STM32L4xx_HAL_Driver/Src/stm32l4xx_hal_pwr_ex.c **** /** @addtogroup STM32L4xx_HAL_Driver
  28:../Resources/Drivers/STM32L4xx_HAL_Driver/Src/stm32l4xx_hal_pwr_ex.c ****   * @{
  29:../Resources/Drivers/STM32L4xx_HAL_Driver/Src/stm32l4xx_hal_pwr_ex.c ****   */
  30:../Resources/Drivers/STM32L4xx_HAL_Driver/Src/stm32l4xx_hal_pwr_ex.c **** 
ARM GAS  /tmp/ccMFwPRI.s 			page 2


  31:../Resources/Drivers/STM32L4xx_HAL_Driver/Src/stm32l4xx_hal_pwr_ex.c **** /** @defgroup PWREx PWREx
  32:../Resources/Drivers/STM32L4xx_HAL_Driver/Src/stm32l4xx_hal_pwr_ex.c ****   * @brief PWR Extended HAL module driver
  33:../Resources/Drivers/STM32L4xx_HAL_Driver/Src/stm32l4xx_hal_pwr_ex.c ****   * @{
  34:../Resources/Drivers/STM32L4xx_HAL_Driver/Src/stm32l4xx_hal_pwr_ex.c ****   */
  35:../Resources/Drivers/STM32L4xx_HAL_Driver/Src/stm32l4xx_hal_pwr_ex.c **** 
  36:../Resources/Drivers/STM32L4xx_HAL_Driver/Src/stm32l4xx_hal_pwr_ex.c **** #ifdef HAL_PWR_MODULE_ENABLED
  37:../Resources/Drivers/STM32L4xx_HAL_Driver/Src/stm32l4xx_hal_pwr_ex.c **** 
  38:../Resources/Drivers/STM32L4xx_HAL_Driver/Src/stm32l4xx_hal_pwr_ex.c **** /* Private typedef -----------------------------------------------------------*/
  39:../Resources/Drivers/STM32L4xx_HAL_Driver/Src/stm32l4xx_hal_pwr_ex.c **** /* Private define ------------------------------------------------------------*/
  40:../Resources/Drivers/STM32L4xx_HAL_Driver/Src/stm32l4xx_hal_pwr_ex.c **** 
  41:../Resources/Drivers/STM32L4xx_HAL_Driver/Src/stm32l4xx_hal_pwr_ex.c **** #if defined (STM32L412xx) || defined (STM32L422xx) || defined (STM32L431xx) || defined (STM32L432xx
  42:../Resources/Drivers/STM32L4xx_HAL_Driver/Src/stm32l4xx_hal_pwr_ex.c **** #define PWR_PORTH_AVAILABLE_PINS   ((uint32_t)0x0000000B) /* PH0/PH1/PH3 */
  43:../Resources/Drivers/STM32L4xx_HAL_Driver/Src/stm32l4xx_hal_pwr_ex.c **** #elif defined (STM32L451xx) || defined (STM32L452xx) || defined (STM32L462xx)
  44:../Resources/Drivers/STM32L4xx_HAL_Driver/Src/stm32l4xx_hal_pwr_ex.c **** #define PWR_PORTH_AVAILABLE_PINS   ((uint32_t)0x0000000B) /* PH0/PH1/PH3 */
  45:../Resources/Drivers/STM32L4xx_HAL_Driver/Src/stm32l4xx_hal_pwr_ex.c **** #elif defined (STM32L471xx) || defined (STM32L475xx) || defined (STM32L476xx) || defined (STM32L485
  46:../Resources/Drivers/STM32L4xx_HAL_Driver/Src/stm32l4xx_hal_pwr_ex.c **** #define PWR_PORTH_AVAILABLE_PINS   ((uint32_t)0x00000003) /* PH0/PH1 */
  47:../Resources/Drivers/STM32L4xx_HAL_Driver/Src/stm32l4xx_hal_pwr_ex.c **** #elif defined (STM32L496xx) || defined (STM32L4A6xx) || defined (STM32L4P5xx) || defined (STM32L4Q5
  48:../Resources/Drivers/STM32L4xx_HAL_Driver/Src/stm32l4xx_hal_pwr_ex.c **** #define PWR_PORTH_AVAILABLE_PINS   ((uint32_t)0x0000FFFF) /* PH0..PH15 */
  49:../Resources/Drivers/STM32L4xx_HAL_Driver/Src/stm32l4xx_hal_pwr_ex.c **** #endif
  50:../Resources/Drivers/STM32L4xx_HAL_Driver/Src/stm32l4xx_hal_pwr_ex.c **** 
  51:../Resources/Drivers/STM32L4xx_HAL_Driver/Src/stm32l4xx_hal_pwr_ex.c **** #if defined (STM32L496xx) || defined (STM32L4A6xx) || defined (STM32L4P5xx) || defined (STM32L4Q5xx
  52:../Resources/Drivers/STM32L4xx_HAL_Driver/Src/stm32l4xx_hal_pwr_ex.c **** #define PWR_PORTI_AVAILABLE_PINS   ((uint32_t)0x00000FFF) /* PI0..PI11 */
  53:../Resources/Drivers/STM32L4xx_HAL_Driver/Src/stm32l4xx_hal_pwr_ex.c **** #endif
  54:../Resources/Drivers/STM32L4xx_HAL_Driver/Src/stm32l4xx_hal_pwr_ex.c **** 
  55:../Resources/Drivers/STM32L4xx_HAL_Driver/Src/stm32l4xx_hal_pwr_ex.c **** /** @defgroup PWR_Extended_Private_Defines PWR Extended Private Defines
  56:../Resources/Drivers/STM32L4xx_HAL_Driver/Src/stm32l4xx_hal_pwr_ex.c ****   * @{
  57:../Resources/Drivers/STM32L4xx_HAL_Driver/Src/stm32l4xx_hal_pwr_ex.c ****   */
  58:../Resources/Drivers/STM32L4xx_HAL_Driver/Src/stm32l4xx_hal_pwr_ex.c **** 
  59:../Resources/Drivers/STM32L4xx_HAL_Driver/Src/stm32l4xx_hal_pwr_ex.c **** /** @defgroup PWREx_PVM_Mode_Mask PWR PVM Mode Mask
  60:../Resources/Drivers/STM32L4xx_HAL_Driver/Src/stm32l4xx_hal_pwr_ex.c ****   * @{
  61:../Resources/Drivers/STM32L4xx_HAL_Driver/Src/stm32l4xx_hal_pwr_ex.c ****   */
  62:../Resources/Drivers/STM32L4xx_HAL_Driver/Src/stm32l4xx_hal_pwr_ex.c **** #define PVM_MODE_IT               ((uint32_t)0x00010000)  /*!< Mask for interruption yielded by PVM
  63:../Resources/Drivers/STM32L4xx_HAL_Driver/Src/stm32l4xx_hal_pwr_ex.c **** #define PVM_MODE_EVT              ((uint32_t)0x00020000)  /*!< Mask for event yielded by PVM thresh
  64:../Resources/Drivers/STM32L4xx_HAL_Driver/Src/stm32l4xx_hal_pwr_ex.c **** #define PVM_RISING_EDGE           ((uint32_t)0x00000001)  /*!< Mask for rising edge set as PVM trig
  65:../Resources/Drivers/STM32L4xx_HAL_Driver/Src/stm32l4xx_hal_pwr_ex.c **** #define PVM_FALLING_EDGE          ((uint32_t)0x00000002)  /*!< Mask for falling edge set as PVM tri
  66:../Resources/Drivers/STM32L4xx_HAL_Driver/Src/stm32l4xx_hal_pwr_ex.c **** /**
  67:../Resources/Drivers/STM32L4xx_HAL_Driver/Src/stm32l4xx_hal_pwr_ex.c ****   * @}
  68:../Resources/Drivers/STM32L4xx_HAL_Driver/Src/stm32l4xx_hal_pwr_ex.c ****   */
  69:../Resources/Drivers/STM32L4xx_HAL_Driver/Src/stm32l4xx_hal_pwr_ex.c **** 
  70:../Resources/Drivers/STM32L4xx_HAL_Driver/Src/stm32l4xx_hal_pwr_ex.c **** /** @defgroup PWREx_TimeOut_Value PWR Extended Flag Setting Time Out Value
  71:../Resources/Drivers/STM32L4xx_HAL_Driver/Src/stm32l4xx_hal_pwr_ex.c ****   * @{
  72:../Resources/Drivers/STM32L4xx_HAL_Driver/Src/stm32l4xx_hal_pwr_ex.c ****   */
  73:../Resources/Drivers/STM32L4xx_HAL_Driver/Src/stm32l4xx_hal_pwr_ex.c **** #define PWR_FLAG_SETTING_DELAY_US                      50UL   /*!< Time out value for REGLPF and VO
  74:../Resources/Drivers/STM32L4xx_HAL_Driver/Src/stm32l4xx_hal_pwr_ex.c **** /**
  75:../Resources/Drivers/STM32L4xx_HAL_Driver/Src/stm32l4xx_hal_pwr_ex.c ****   * @}
  76:../Resources/Drivers/STM32L4xx_HAL_Driver/Src/stm32l4xx_hal_pwr_ex.c ****   */
  77:../Resources/Drivers/STM32L4xx_HAL_Driver/Src/stm32l4xx_hal_pwr_ex.c **** 
  78:../Resources/Drivers/STM32L4xx_HAL_Driver/Src/stm32l4xx_hal_pwr_ex.c **** 
  79:../Resources/Drivers/STM32L4xx_HAL_Driver/Src/stm32l4xx_hal_pwr_ex.c **** 
  80:../Resources/Drivers/STM32L4xx_HAL_Driver/Src/stm32l4xx_hal_pwr_ex.c **** /**
  81:../Resources/Drivers/STM32L4xx_HAL_Driver/Src/stm32l4xx_hal_pwr_ex.c ****   * @}
  82:../Resources/Drivers/STM32L4xx_HAL_Driver/Src/stm32l4xx_hal_pwr_ex.c ****   */
  83:../Resources/Drivers/STM32L4xx_HAL_Driver/Src/stm32l4xx_hal_pwr_ex.c **** 
  84:../Resources/Drivers/STM32L4xx_HAL_Driver/Src/stm32l4xx_hal_pwr_ex.c **** 
  85:../Resources/Drivers/STM32L4xx_HAL_Driver/Src/stm32l4xx_hal_pwr_ex.c **** 
  86:../Resources/Drivers/STM32L4xx_HAL_Driver/Src/stm32l4xx_hal_pwr_ex.c **** /* Private macro -------------------------------------------------------------*/
  87:../Resources/Drivers/STM32L4xx_HAL_Driver/Src/stm32l4xx_hal_pwr_ex.c **** /* Private variables ---------------------------------------------------------*/
ARM GAS  /tmp/ccMFwPRI.s 			page 3


  88:../Resources/Drivers/STM32L4xx_HAL_Driver/Src/stm32l4xx_hal_pwr_ex.c **** /* Private function prototypes -----------------------------------------------*/
  89:../Resources/Drivers/STM32L4xx_HAL_Driver/Src/stm32l4xx_hal_pwr_ex.c **** /* Exported functions --------------------------------------------------------*/
  90:../Resources/Drivers/STM32L4xx_HAL_Driver/Src/stm32l4xx_hal_pwr_ex.c **** 
  91:../Resources/Drivers/STM32L4xx_HAL_Driver/Src/stm32l4xx_hal_pwr_ex.c **** /** @defgroup PWREx_Exported_Functions PWR Extended Exported Functions
  92:../Resources/Drivers/STM32L4xx_HAL_Driver/Src/stm32l4xx_hal_pwr_ex.c ****   * @{
  93:../Resources/Drivers/STM32L4xx_HAL_Driver/Src/stm32l4xx_hal_pwr_ex.c ****   */
  94:../Resources/Drivers/STM32L4xx_HAL_Driver/Src/stm32l4xx_hal_pwr_ex.c **** 
  95:../Resources/Drivers/STM32L4xx_HAL_Driver/Src/stm32l4xx_hal_pwr_ex.c **** /** @defgroup PWREx_Exported_Functions_Group1 Extended Peripheral Control functions
  96:../Resources/Drivers/STM32L4xx_HAL_Driver/Src/stm32l4xx_hal_pwr_ex.c ****   *  @brief   Extended Peripheral Control functions
  97:../Resources/Drivers/STM32L4xx_HAL_Driver/Src/stm32l4xx_hal_pwr_ex.c ****   *
  98:../Resources/Drivers/STM32L4xx_HAL_Driver/Src/stm32l4xx_hal_pwr_ex.c **** @verbatim
  99:../Resources/Drivers/STM32L4xx_HAL_Driver/Src/stm32l4xx_hal_pwr_ex.c ****  ===============================================================================
 100:../Resources/Drivers/STM32L4xx_HAL_Driver/Src/stm32l4xx_hal_pwr_ex.c ****               ##### Extended Peripheral Initialization and de-initialization functions #####
 101:../Resources/Drivers/STM32L4xx_HAL_Driver/Src/stm32l4xx_hal_pwr_ex.c ****  ===============================================================================
 102:../Resources/Drivers/STM32L4xx_HAL_Driver/Src/stm32l4xx_hal_pwr_ex.c ****     [..]
 103:../Resources/Drivers/STM32L4xx_HAL_Driver/Src/stm32l4xx_hal_pwr_ex.c **** 
 104:../Resources/Drivers/STM32L4xx_HAL_Driver/Src/stm32l4xx_hal_pwr_ex.c **** @endverbatim
 105:../Resources/Drivers/STM32L4xx_HAL_Driver/Src/stm32l4xx_hal_pwr_ex.c ****   * @{
 106:../Resources/Drivers/STM32L4xx_HAL_Driver/Src/stm32l4xx_hal_pwr_ex.c ****   */
 107:../Resources/Drivers/STM32L4xx_HAL_Driver/Src/stm32l4xx_hal_pwr_ex.c **** 
 108:../Resources/Drivers/STM32L4xx_HAL_Driver/Src/stm32l4xx_hal_pwr_ex.c **** 
 109:../Resources/Drivers/STM32L4xx_HAL_Driver/Src/stm32l4xx_hal_pwr_ex.c **** /**
 110:../Resources/Drivers/STM32L4xx_HAL_Driver/Src/stm32l4xx_hal_pwr_ex.c ****   * @brief Return Voltage Scaling Range.
 111:../Resources/Drivers/STM32L4xx_HAL_Driver/Src/stm32l4xx_hal_pwr_ex.c ****   * @retval VOS bit field (PWR_REGULATOR_VOLTAGE_SCALE1 or PWR_REGULATOR_VOLTAGE_SCALE2
 112:../Resources/Drivers/STM32L4xx_HAL_Driver/Src/stm32l4xx_hal_pwr_ex.c ****   *         or PWR_REGULATOR_VOLTAGE_SCALE1_BOOST when applicable)
 113:../Resources/Drivers/STM32L4xx_HAL_Driver/Src/stm32l4xx_hal_pwr_ex.c ****   */
 114:../Resources/Drivers/STM32L4xx_HAL_Driver/Src/stm32l4xx_hal_pwr_ex.c **** uint32_t HAL_PWREx_GetVoltageRange(void)
 115:../Resources/Drivers/STM32L4xx_HAL_Driver/Src/stm32l4xx_hal_pwr_ex.c **** {
  29              		.loc 1 115 1 view -0
  30              		.cfi_startproc
  31              		@ args = 0, pretend = 0, frame = 0
  32              		@ frame_needed = 0, uses_anonymous_args = 0
  33              		@ link register save eliminated.
 116:../Resources/Drivers/STM32L4xx_HAL_Driver/Src/stm32l4xx_hal_pwr_ex.c **** #if defined(PWR_CR5_R1MODE)
 117:../Resources/Drivers/STM32L4xx_HAL_Driver/Src/stm32l4xx_hal_pwr_ex.c ****     if (READ_BIT(PWR->CR1, PWR_CR1_VOS) == PWR_REGULATOR_VOLTAGE_SCALE2)
 118:../Resources/Drivers/STM32L4xx_HAL_Driver/Src/stm32l4xx_hal_pwr_ex.c ****     {
 119:../Resources/Drivers/STM32L4xx_HAL_Driver/Src/stm32l4xx_hal_pwr_ex.c ****       return PWR_REGULATOR_VOLTAGE_SCALE2;
 120:../Resources/Drivers/STM32L4xx_HAL_Driver/Src/stm32l4xx_hal_pwr_ex.c ****     }
 121:../Resources/Drivers/STM32L4xx_HAL_Driver/Src/stm32l4xx_hal_pwr_ex.c ****     else if (READ_BIT(PWR->CR5, PWR_CR5_R1MODE) == PWR_CR5_R1MODE)
 122:../Resources/Drivers/STM32L4xx_HAL_Driver/Src/stm32l4xx_hal_pwr_ex.c ****     {
 123:../Resources/Drivers/STM32L4xx_HAL_Driver/Src/stm32l4xx_hal_pwr_ex.c ****       /* PWR_CR5_R1MODE bit set means that Range 1 Boost is disabled */
 124:../Resources/Drivers/STM32L4xx_HAL_Driver/Src/stm32l4xx_hal_pwr_ex.c ****       return PWR_REGULATOR_VOLTAGE_SCALE1;
 125:../Resources/Drivers/STM32L4xx_HAL_Driver/Src/stm32l4xx_hal_pwr_ex.c ****     }
 126:../Resources/Drivers/STM32L4xx_HAL_Driver/Src/stm32l4xx_hal_pwr_ex.c ****     else
 127:../Resources/Drivers/STM32L4xx_HAL_Driver/Src/stm32l4xx_hal_pwr_ex.c ****     {
 128:../Resources/Drivers/STM32L4xx_HAL_Driver/Src/stm32l4xx_hal_pwr_ex.c ****       return PWR_REGULATOR_VOLTAGE_SCALE1_BOOST;
 129:../Resources/Drivers/STM32L4xx_HAL_Driver/Src/stm32l4xx_hal_pwr_ex.c ****     }
 130:../Resources/Drivers/STM32L4xx_HAL_Driver/Src/stm32l4xx_hal_pwr_ex.c **** #else
 131:../Resources/Drivers/STM32L4xx_HAL_Driver/Src/stm32l4xx_hal_pwr_ex.c ****   return  (PWR->CR1 & PWR_CR1_VOS);
  34              		.loc 1 131 3 view .LVU1
  35              		.loc 1 131 15 is_stmt 0 view .LVU2
  36 0000 024B     		ldr	r3, .L2
  37 0002 1868     		ldr	r0, [r3]
 132:../Resources/Drivers/STM32L4xx_HAL_Driver/Src/stm32l4xx_hal_pwr_ex.c **** #endif
 133:../Resources/Drivers/STM32L4xx_HAL_Driver/Src/stm32l4xx_hal_pwr_ex.c **** }
  38              		.loc 1 133 1 view .LVU3
  39 0004 00F4C060 		and	r0, r0, #1536
ARM GAS  /tmp/ccMFwPRI.s 			page 4


  40 0008 7047     		bx	lr
  41              	.L3:
  42 000a 00BF     		.align	2
  43              	.L2:
  44 000c 00700040 		.word	1073770496
  45              		.cfi_endproc
  46              	.LFE132:
  48              		.section	.text.HAL_PWREx_ControlVoltageScaling,"ax",%progbits
  49              		.align	1
  50              		.global	HAL_PWREx_ControlVoltageScaling
  51              		.syntax unified
  52              		.thumb
  53              		.thumb_func
  55              	HAL_PWREx_ControlVoltageScaling:
  56              	.LVL0:
  57              	.LFB133:
 134:../Resources/Drivers/STM32L4xx_HAL_Driver/Src/stm32l4xx_hal_pwr_ex.c **** 
 135:../Resources/Drivers/STM32L4xx_HAL_Driver/Src/stm32l4xx_hal_pwr_ex.c **** 
 136:../Resources/Drivers/STM32L4xx_HAL_Driver/Src/stm32l4xx_hal_pwr_ex.c **** 
 137:../Resources/Drivers/STM32L4xx_HAL_Driver/Src/stm32l4xx_hal_pwr_ex.c **** /**
 138:../Resources/Drivers/STM32L4xx_HAL_Driver/Src/stm32l4xx_hal_pwr_ex.c ****   * @brief Configure the main internal regulator output voltage.
 139:../Resources/Drivers/STM32L4xx_HAL_Driver/Src/stm32l4xx_hal_pwr_ex.c ****   * @param  VoltageScaling specifies the regulator output voltage to achieve
 140:../Resources/Drivers/STM32L4xx_HAL_Driver/Src/stm32l4xx_hal_pwr_ex.c ****   *         a tradeoff between performance and power consumption.
 141:../Resources/Drivers/STM32L4xx_HAL_Driver/Src/stm32l4xx_hal_pwr_ex.c ****   *          This parameter can be one of the following values:
 142:../Resources/Drivers/STM32L4xx_HAL_Driver/Src/stm32l4xx_hal_pwr_ex.c ****   @if STM32L4S9xx
 143:../Resources/Drivers/STM32L4xx_HAL_Driver/Src/stm32l4xx_hal_pwr_ex.c ****   *            @arg @ref PWR_REGULATOR_VOLTAGE_SCALE1_BOOST when available, Regulator voltage outpu
 144:../Resources/Drivers/STM32L4xx_HAL_Driver/Src/stm32l4xx_hal_pwr_ex.c ****   *                                                typical output voltage at 1.2 V,
 145:../Resources/Drivers/STM32L4xx_HAL_Driver/Src/stm32l4xx_hal_pwr_ex.c ****   *                                                system frequency up to 120 MHz.
 146:../Resources/Drivers/STM32L4xx_HAL_Driver/Src/stm32l4xx_hal_pwr_ex.c ****   @endif
 147:../Resources/Drivers/STM32L4xx_HAL_Driver/Src/stm32l4xx_hal_pwr_ex.c ****   *            @arg @ref PWR_REGULATOR_VOLTAGE_SCALE1 Regulator voltage output range 1 mode,
 148:../Resources/Drivers/STM32L4xx_HAL_Driver/Src/stm32l4xx_hal_pwr_ex.c ****   *                                                typical output voltage at 1.2 V,
 149:../Resources/Drivers/STM32L4xx_HAL_Driver/Src/stm32l4xx_hal_pwr_ex.c ****   *                                                system frequency up to 80 MHz.
 150:../Resources/Drivers/STM32L4xx_HAL_Driver/Src/stm32l4xx_hal_pwr_ex.c ****   *            @arg @ref PWR_REGULATOR_VOLTAGE_SCALE2 Regulator voltage output range 2 mode,
 151:../Resources/Drivers/STM32L4xx_HAL_Driver/Src/stm32l4xx_hal_pwr_ex.c ****   *                                                typical output voltage at 1.0 V,
 152:../Resources/Drivers/STM32L4xx_HAL_Driver/Src/stm32l4xx_hal_pwr_ex.c ****   *                                                system frequency up to 26 MHz.
 153:../Resources/Drivers/STM32L4xx_HAL_Driver/Src/stm32l4xx_hal_pwr_ex.c ****   * @note  When moving from Range 1 to Range 2, the system frequency must be decreased to
 154:../Resources/Drivers/STM32L4xx_HAL_Driver/Src/stm32l4xx_hal_pwr_ex.c ****   *        a value below 26 MHz before calling HAL_PWREx_ControlVoltageScaling() API.
 155:../Resources/Drivers/STM32L4xx_HAL_Driver/Src/stm32l4xx_hal_pwr_ex.c ****   *        When moving from Range 2 to Range 1, the system frequency can be increased to
 156:../Resources/Drivers/STM32L4xx_HAL_Driver/Src/stm32l4xx_hal_pwr_ex.c ****   *        a value up to 80 MHz after calling HAL_PWREx_ControlVoltageScaling() API. For
 157:../Resources/Drivers/STM32L4xx_HAL_Driver/Src/stm32l4xx_hal_pwr_ex.c ****   *        some devices, the system frequency can be increased up to 120 MHz.
 158:../Resources/Drivers/STM32L4xx_HAL_Driver/Src/stm32l4xx_hal_pwr_ex.c ****   * @note  When moving from Range 2 to Range 1, the API waits for VOSF flag to be
 159:../Resources/Drivers/STM32L4xx_HAL_Driver/Src/stm32l4xx_hal_pwr_ex.c ****   *        cleared before returning the status. If the flag is not cleared within
 160:../Resources/Drivers/STM32L4xx_HAL_Driver/Src/stm32l4xx_hal_pwr_ex.c ****   *        50 microseconds, HAL_TIMEOUT status is reported.
 161:../Resources/Drivers/STM32L4xx_HAL_Driver/Src/stm32l4xx_hal_pwr_ex.c ****   * @retval HAL Status
 162:../Resources/Drivers/STM32L4xx_HAL_Driver/Src/stm32l4xx_hal_pwr_ex.c ****   */
 163:../Resources/Drivers/STM32L4xx_HAL_Driver/Src/stm32l4xx_hal_pwr_ex.c **** HAL_StatusTypeDef HAL_PWREx_ControlVoltageScaling(uint32_t VoltageScaling)
 164:../Resources/Drivers/STM32L4xx_HAL_Driver/Src/stm32l4xx_hal_pwr_ex.c **** {
  58              		.loc 1 164 1 is_stmt 1 view -0
  59              		.cfi_startproc
  60              		@ args = 0, pretend = 0, frame = 0
  61              		@ frame_needed = 0, uses_anonymous_args = 0
  62              		@ link register save eliminated.
 165:../Resources/Drivers/STM32L4xx_HAL_Driver/Src/stm32l4xx_hal_pwr_ex.c ****   uint32_t wait_loop_index;
  63              		.loc 1 165 3 view .LVU5
 166:../Resources/Drivers/STM32L4xx_HAL_Driver/Src/stm32l4xx_hal_pwr_ex.c **** 
 167:../Resources/Drivers/STM32L4xx_HAL_Driver/Src/stm32l4xx_hal_pwr_ex.c ****   assert_param(IS_PWR_VOLTAGE_SCALING_RANGE(VoltageScaling));
  64              		.loc 1 167 3 view .LVU6
ARM GAS  /tmp/ccMFwPRI.s 			page 5


 168:../Resources/Drivers/STM32L4xx_HAL_Driver/Src/stm32l4xx_hal_pwr_ex.c **** 
 169:../Resources/Drivers/STM32L4xx_HAL_Driver/Src/stm32l4xx_hal_pwr_ex.c **** #if defined(PWR_CR5_R1MODE)
 170:../Resources/Drivers/STM32L4xx_HAL_Driver/Src/stm32l4xx_hal_pwr_ex.c ****   if (VoltageScaling == PWR_REGULATOR_VOLTAGE_SCALE1_BOOST)
 171:../Resources/Drivers/STM32L4xx_HAL_Driver/Src/stm32l4xx_hal_pwr_ex.c ****   {
 172:../Resources/Drivers/STM32L4xx_HAL_Driver/Src/stm32l4xx_hal_pwr_ex.c ****     /* If current range is range 2 */
 173:../Resources/Drivers/STM32L4xx_HAL_Driver/Src/stm32l4xx_hal_pwr_ex.c ****     if (READ_BIT(PWR->CR1, PWR_CR1_VOS) == PWR_REGULATOR_VOLTAGE_SCALE2)
 174:../Resources/Drivers/STM32L4xx_HAL_Driver/Src/stm32l4xx_hal_pwr_ex.c ****     {
 175:../Resources/Drivers/STM32L4xx_HAL_Driver/Src/stm32l4xx_hal_pwr_ex.c ****       /* Make sure Range 1 Boost is enabled */
 176:../Resources/Drivers/STM32L4xx_HAL_Driver/Src/stm32l4xx_hal_pwr_ex.c ****       CLEAR_BIT(PWR->CR5, PWR_CR5_R1MODE);
 177:../Resources/Drivers/STM32L4xx_HAL_Driver/Src/stm32l4xx_hal_pwr_ex.c **** 
 178:../Resources/Drivers/STM32L4xx_HAL_Driver/Src/stm32l4xx_hal_pwr_ex.c ****       /* Set Range 1 */
 179:../Resources/Drivers/STM32L4xx_HAL_Driver/Src/stm32l4xx_hal_pwr_ex.c ****       MODIFY_REG(PWR->CR1, PWR_CR1_VOS, PWR_REGULATOR_VOLTAGE_SCALE1);
 180:../Resources/Drivers/STM32L4xx_HAL_Driver/Src/stm32l4xx_hal_pwr_ex.c **** 
 181:../Resources/Drivers/STM32L4xx_HAL_Driver/Src/stm32l4xx_hal_pwr_ex.c ****       /* Wait until VOSF is cleared */
 182:../Resources/Drivers/STM32L4xx_HAL_Driver/Src/stm32l4xx_hal_pwr_ex.c ****       wait_loop_index = ((PWR_FLAG_SETTING_DELAY_US * SystemCoreClock) / 1000000U) + 1;
 183:../Resources/Drivers/STM32L4xx_HAL_Driver/Src/stm32l4xx_hal_pwr_ex.c ****       while ((HAL_IS_BIT_SET(PWR->SR2, PWR_SR2_VOSF)) && (wait_loop_index != 0U))
 184:../Resources/Drivers/STM32L4xx_HAL_Driver/Src/stm32l4xx_hal_pwr_ex.c ****       {
 185:../Resources/Drivers/STM32L4xx_HAL_Driver/Src/stm32l4xx_hal_pwr_ex.c ****         wait_loop_index--;
 186:../Resources/Drivers/STM32L4xx_HAL_Driver/Src/stm32l4xx_hal_pwr_ex.c ****       }
 187:../Resources/Drivers/STM32L4xx_HAL_Driver/Src/stm32l4xx_hal_pwr_ex.c ****       if (HAL_IS_BIT_SET(PWR->SR2, PWR_SR2_VOSF))
 188:../Resources/Drivers/STM32L4xx_HAL_Driver/Src/stm32l4xx_hal_pwr_ex.c ****       {
 189:../Resources/Drivers/STM32L4xx_HAL_Driver/Src/stm32l4xx_hal_pwr_ex.c ****         return HAL_TIMEOUT;
 190:../Resources/Drivers/STM32L4xx_HAL_Driver/Src/stm32l4xx_hal_pwr_ex.c ****       }
 191:../Resources/Drivers/STM32L4xx_HAL_Driver/Src/stm32l4xx_hal_pwr_ex.c ****     }
 192:../Resources/Drivers/STM32L4xx_HAL_Driver/Src/stm32l4xx_hal_pwr_ex.c ****     /* If current range is range 1 normal or boost mode */
 193:../Resources/Drivers/STM32L4xx_HAL_Driver/Src/stm32l4xx_hal_pwr_ex.c ****     else
 194:../Resources/Drivers/STM32L4xx_HAL_Driver/Src/stm32l4xx_hal_pwr_ex.c ****     {
 195:../Resources/Drivers/STM32L4xx_HAL_Driver/Src/stm32l4xx_hal_pwr_ex.c ****       /* Enable Range 1 Boost (no issue if bit already reset) */
 196:../Resources/Drivers/STM32L4xx_HAL_Driver/Src/stm32l4xx_hal_pwr_ex.c ****       CLEAR_BIT(PWR->CR5, PWR_CR5_R1MODE);
 197:../Resources/Drivers/STM32L4xx_HAL_Driver/Src/stm32l4xx_hal_pwr_ex.c ****     }
 198:../Resources/Drivers/STM32L4xx_HAL_Driver/Src/stm32l4xx_hal_pwr_ex.c ****   }
 199:../Resources/Drivers/STM32L4xx_HAL_Driver/Src/stm32l4xx_hal_pwr_ex.c ****   else if (VoltageScaling == PWR_REGULATOR_VOLTAGE_SCALE1)
 200:../Resources/Drivers/STM32L4xx_HAL_Driver/Src/stm32l4xx_hal_pwr_ex.c ****   {
 201:../Resources/Drivers/STM32L4xx_HAL_Driver/Src/stm32l4xx_hal_pwr_ex.c ****     /* If current range is range 2 */
 202:../Resources/Drivers/STM32L4xx_HAL_Driver/Src/stm32l4xx_hal_pwr_ex.c ****     if (READ_BIT(PWR->CR1, PWR_CR1_VOS) == PWR_REGULATOR_VOLTAGE_SCALE2)
 203:../Resources/Drivers/STM32L4xx_HAL_Driver/Src/stm32l4xx_hal_pwr_ex.c ****     {
 204:../Resources/Drivers/STM32L4xx_HAL_Driver/Src/stm32l4xx_hal_pwr_ex.c ****       /* Make sure Range 1 Boost is disabled */
 205:../Resources/Drivers/STM32L4xx_HAL_Driver/Src/stm32l4xx_hal_pwr_ex.c ****       SET_BIT(PWR->CR5, PWR_CR5_R1MODE);
 206:../Resources/Drivers/STM32L4xx_HAL_Driver/Src/stm32l4xx_hal_pwr_ex.c **** 
 207:../Resources/Drivers/STM32L4xx_HAL_Driver/Src/stm32l4xx_hal_pwr_ex.c ****       /* Set Range 1 */
 208:../Resources/Drivers/STM32L4xx_HAL_Driver/Src/stm32l4xx_hal_pwr_ex.c ****       MODIFY_REG(PWR->CR1, PWR_CR1_VOS, PWR_REGULATOR_VOLTAGE_SCALE1);
 209:../Resources/Drivers/STM32L4xx_HAL_Driver/Src/stm32l4xx_hal_pwr_ex.c **** 
 210:../Resources/Drivers/STM32L4xx_HAL_Driver/Src/stm32l4xx_hal_pwr_ex.c ****       /* Wait until VOSF is cleared */
 211:../Resources/Drivers/STM32L4xx_HAL_Driver/Src/stm32l4xx_hal_pwr_ex.c ****       wait_loop_index = ((PWR_FLAG_SETTING_DELAY_US * SystemCoreClock) / 1000000U) + 1;
 212:../Resources/Drivers/STM32L4xx_HAL_Driver/Src/stm32l4xx_hal_pwr_ex.c ****       while ((HAL_IS_BIT_SET(PWR->SR2, PWR_SR2_VOSF)) && (wait_loop_index != 0U))
 213:../Resources/Drivers/STM32L4xx_HAL_Driver/Src/stm32l4xx_hal_pwr_ex.c ****       {
 214:../Resources/Drivers/STM32L4xx_HAL_Driver/Src/stm32l4xx_hal_pwr_ex.c ****         wait_loop_index--;
 215:../Resources/Drivers/STM32L4xx_HAL_Driver/Src/stm32l4xx_hal_pwr_ex.c ****       }
 216:../Resources/Drivers/STM32L4xx_HAL_Driver/Src/stm32l4xx_hal_pwr_ex.c ****       if (HAL_IS_BIT_SET(PWR->SR2, PWR_SR2_VOSF))
 217:../Resources/Drivers/STM32L4xx_HAL_Driver/Src/stm32l4xx_hal_pwr_ex.c ****       {
 218:../Resources/Drivers/STM32L4xx_HAL_Driver/Src/stm32l4xx_hal_pwr_ex.c ****         return HAL_TIMEOUT;
 219:../Resources/Drivers/STM32L4xx_HAL_Driver/Src/stm32l4xx_hal_pwr_ex.c ****       }
 220:../Resources/Drivers/STM32L4xx_HAL_Driver/Src/stm32l4xx_hal_pwr_ex.c ****     }
 221:../Resources/Drivers/STM32L4xx_HAL_Driver/Src/stm32l4xx_hal_pwr_ex.c ****      /* If current range is range 1 normal or boost mode */
 222:../Resources/Drivers/STM32L4xx_HAL_Driver/Src/stm32l4xx_hal_pwr_ex.c ****     else
 223:../Resources/Drivers/STM32L4xx_HAL_Driver/Src/stm32l4xx_hal_pwr_ex.c ****     {
 224:../Resources/Drivers/STM32L4xx_HAL_Driver/Src/stm32l4xx_hal_pwr_ex.c ****       /* Disable Range 1 Boost (no issue if bit already set) */
ARM GAS  /tmp/ccMFwPRI.s 			page 6


 225:../Resources/Drivers/STM32L4xx_HAL_Driver/Src/stm32l4xx_hal_pwr_ex.c ****       SET_BIT(PWR->CR5, PWR_CR5_R1MODE);
 226:../Resources/Drivers/STM32L4xx_HAL_Driver/Src/stm32l4xx_hal_pwr_ex.c ****     }
 227:../Resources/Drivers/STM32L4xx_HAL_Driver/Src/stm32l4xx_hal_pwr_ex.c ****   }
 228:../Resources/Drivers/STM32L4xx_HAL_Driver/Src/stm32l4xx_hal_pwr_ex.c ****   else
 229:../Resources/Drivers/STM32L4xx_HAL_Driver/Src/stm32l4xx_hal_pwr_ex.c ****   {
 230:../Resources/Drivers/STM32L4xx_HAL_Driver/Src/stm32l4xx_hal_pwr_ex.c ****     /* Set Range 2 */
 231:../Resources/Drivers/STM32L4xx_HAL_Driver/Src/stm32l4xx_hal_pwr_ex.c ****     MODIFY_REG(PWR->CR1, PWR_CR1_VOS, PWR_REGULATOR_VOLTAGE_SCALE2);
 232:../Resources/Drivers/STM32L4xx_HAL_Driver/Src/stm32l4xx_hal_pwr_ex.c ****     /* No need to wait for VOSF to be cleared for this transition */
 233:../Resources/Drivers/STM32L4xx_HAL_Driver/Src/stm32l4xx_hal_pwr_ex.c ****     /* PWR_CR5_R1MODE bit setting has no effect in Range 2        */
 234:../Resources/Drivers/STM32L4xx_HAL_Driver/Src/stm32l4xx_hal_pwr_ex.c ****   }
 235:../Resources/Drivers/STM32L4xx_HAL_Driver/Src/stm32l4xx_hal_pwr_ex.c **** 
 236:../Resources/Drivers/STM32L4xx_HAL_Driver/Src/stm32l4xx_hal_pwr_ex.c **** #else
 237:../Resources/Drivers/STM32L4xx_HAL_Driver/Src/stm32l4xx_hal_pwr_ex.c **** 
 238:../Resources/Drivers/STM32L4xx_HAL_Driver/Src/stm32l4xx_hal_pwr_ex.c ****   /* If Set Range 1 */
 239:../Resources/Drivers/STM32L4xx_HAL_Driver/Src/stm32l4xx_hal_pwr_ex.c ****   if (VoltageScaling == PWR_REGULATOR_VOLTAGE_SCALE1)
  65              		.loc 1 239 3 view .LVU7
  66              		.loc 1 239 6 is_stmt 0 view .LVU8
  67 0000 B0F5007F 		cmp	r0, #512
  68 0004 0FD0     		beq	.L13
 240:../Resources/Drivers/STM32L4xx_HAL_Driver/Src/stm32l4xx_hal_pwr_ex.c ****   {
 241:../Resources/Drivers/STM32L4xx_HAL_Driver/Src/stm32l4xx_hal_pwr_ex.c ****     if (READ_BIT(PWR->CR1, PWR_CR1_VOS) != PWR_REGULATOR_VOLTAGE_SCALE1)
 242:../Resources/Drivers/STM32L4xx_HAL_Driver/Src/stm32l4xx_hal_pwr_ex.c ****     {
 243:../Resources/Drivers/STM32L4xx_HAL_Driver/Src/stm32l4xx_hal_pwr_ex.c ****       /* Set Range 1 */
 244:../Resources/Drivers/STM32L4xx_HAL_Driver/Src/stm32l4xx_hal_pwr_ex.c ****       MODIFY_REG(PWR->CR1, PWR_CR1_VOS, PWR_REGULATOR_VOLTAGE_SCALE1);
 245:../Resources/Drivers/STM32L4xx_HAL_Driver/Src/stm32l4xx_hal_pwr_ex.c **** 
 246:../Resources/Drivers/STM32L4xx_HAL_Driver/Src/stm32l4xx_hal_pwr_ex.c ****       /* Wait until VOSF is cleared */
 247:../Resources/Drivers/STM32L4xx_HAL_Driver/Src/stm32l4xx_hal_pwr_ex.c ****       wait_loop_index = ((PWR_FLAG_SETTING_DELAY_US * SystemCoreClock) / 1000000U) + 1U;
 248:../Resources/Drivers/STM32L4xx_HAL_Driver/Src/stm32l4xx_hal_pwr_ex.c ****       while ((HAL_IS_BIT_SET(PWR->SR2, PWR_SR2_VOSF)) && (wait_loop_index != 0U))
 249:../Resources/Drivers/STM32L4xx_HAL_Driver/Src/stm32l4xx_hal_pwr_ex.c ****       {
 250:../Resources/Drivers/STM32L4xx_HAL_Driver/Src/stm32l4xx_hal_pwr_ex.c ****         wait_loop_index--;
 251:../Resources/Drivers/STM32L4xx_HAL_Driver/Src/stm32l4xx_hal_pwr_ex.c ****       }
 252:../Resources/Drivers/STM32L4xx_HAL_Driver/Src/stm32l4xx_hal_pwr_ex.c ****       if (HAL_IS_BIT_SET(PWR->SR2, PWR_SR2_VOSF))
 253:../Resources/Drivers/STM32L4xx_HAL_Driver/Src/stm32l4xx_hal_pwr_ex.c ****       {
 254:../Resources/Drivers/STM32L4xx_HAL_Driver/Src/stm32l4xx_hal_pwr_ex.c ****         return HAL_TIMEOUT;
 255:../Resources/Drivers/STM32L4xx_HAL_Driver/Src/stm32l4xx_hal_pwr_ex.c ****       }
 256:../Resources/Drivers/STM32L4xx_HAL_Driver/Src/stm32l4xx_hal_pwr_ex.c ****     }
 257:../Resources/Drivers/STM32L4xx_HAL_Driver/Src/stm32l4xx_hal_pwr_ex.c ****   }
 258:../Resources/Drivers/STM32L4xx_HAL_Driver/Src/stm32l4xx_hal_pwr_ex.c ****   else
 259:../Resources/Drivers/STM32L4xx_HAL_Driver/Src/stm32l4xx_hal_pwr_ex.c ****   {
 260:../Resources/Drivers/STM32L4xx_HAL_Driver/Src/stm32l4xx_hal_pwr_ex.c ****     if (READ_BIT(PWR->CR1, PWR_CR1_VOS) != PWR_REGULATOR_VOLTAGE_SCALE2)
  69              		.loc 1 260 5 is_stmt 1 view .LVU9
  70              		.loc 1 260 9 is_stmt 0 view .LVU10
  71 0006 1F4B     		ldr	r3, .L14
  72 0008 1B68     		ldr	r3, [r3]
  73 000a 03F4C063 		and	r3, r3, #1536
  74              		.loc 1 260 8 view .LVU11
  75 000e B3F5806F 		cmp	r3, #1024
  76 0012 34D0     		beq	.L12
 261:../Resources/Drivers/STM32L4xx_HAL_Driver/Src/stm32l4xx_hal_pwr_ex.c ****     {
 262:../Resources/Drivers/STM32L4xx_HAL_Driver/Src/stm32l4xx_hal_pwr_ex.c ****       /* Set Range 2 */
 263:../Resources/Drivers/STM32L4xx_HAL_Driver/Src/stm32l4xx_hal_pwr_ex.c ****       MODIFY_REG(PWR->CR1, PWR_CR1_VOS, PWR_REGULATOR_VOLTAGE_SCALE2);
  77              		.loc 1 263 7 is_stmt 1 view .LVU12
  78 0014 1B4A     		ldr	r2, .L14
  79 0016 1368     		ldr	r3, [r2]
  80 0018 23F4C063 		bic	r3, r3, #1536
  81 001c 43F48063 		orr	r3, r3, #1024
  82 0020 1360     		str	r3, [r2]
ARM GAS  /tmp/ccMFwPRI.s 			page 7


 264:../Resources/Drivers/STM32L4xx_HAL_Driver/Src/stm32l4xx_hal_pwr_ex.c ****       /* No need to wait for VOSF to be cleared for this transition */
 265:../Resources/Drivers/STM32L4xx_HAL_Driver/Src/stm32l4xx_hal_pwr_ex.c ****     }
 266:../Resources/Drivers/STM32L4xx_HAL_Driver/Src/stm32l4xx_hal_pwr_ex.c ****   }
 267:../Resources/Drivers/STM32L4xx_HAL_Driver/Src/stm32l4xx_hal_pwr_ex.c **** #endif
 268:../Resources/Drivers/STM32L4xx_HAL_Driver/Src/stm32l4xx_hal_pwr_ex.c **** 
 269:../Resources/Drivers/STM32L4xx_HAL_Driver/Src/stm32l4xx_hal_pwr_ex.c ****   return HAL_OK;
  83              		.loc 1 269 10 is_stmt 0 view .LVU13
  84 0022 0020     		movs	r0, #0
  85              	.LVL1:
  86              		.loc 1 269 10 view .LVU14
  87 0024 7047     		bx	lr
  88              	.LVL2:
  89              	.L13:
 241:../Resources/Drivers/STM32L4xx_HAL_Driver/Src/stm32l4xx_hal_pwr_ex.c ****     {
  90              		.loc 1 241 5 is_stmt 1 view .LVU15
 241:../Resources/Drivers/STM32L4xx_HAL_Driver/Src/stm32l4xx_hal_pwr_ex.c ****     {
  91              		.loc 1 241 9 is_stmt 0 view .LVU16
  92 0026 174B     		ldr	r3, .L14
  93 0028 1B68     		ldr	r3, [r3]
  94 002a 03F4C063 		and	r3, r3, #1536
 241:../Resources/Drivers/STM32L4xx_HAL_Driver/Src/stm32l4xx_hal_pwr_ex.c ****     {
  95              		.loc 1 241 8 view .LVU17
  96 002e B3F5007F 		cmp	r3, #512
  97 0032 20D0     		beq	.L10
 244:../Resources/Drivers/STM32L4xx_HAL_Driver/Src/stm32l4xx_hal_pwr_ex.c **** 
  98              		.loc 1 244 7 is_stmt 1 view .LVU18
  99 0034 134A     		ldr	r2, .L14
 100 0036 1368     		ldr	r3, [r2]
 101 0038 23F4C063 		bic	r3, r3, #1536
 102 003c 43F40073 		orr	r3, r3, #512
 103 0040 1360     		str	r3, [r2]
 247:../Resources/Drivers/STM32L4xx_HAL_Driver/Src/stm32l4xx_hal_pwr_ex.c ****       while ((HAL_IS_BIT_SET(PWR->SR2, PWR_SR2_VOSF)) && (wait_loop_index != 0U))
 104              		.loc 1 247 7 view .LVU19
 247:../Resources/Drivers/STM32L4xx_HAL_Driver/Src/stm32l4xx_hal_pwr_ex.c ****       while ((HAL_IS_BIT_SET(PWR->SR2, PWR_SR2_VOSF)) && (wait_loop_index != 0U))
 105              		.loc 1 247 53 is_stmt 0 view .LVU20
 106 0042 114B     		ldr	r3, .L14+4
 107 0044 1B68     		ldr	r3, [r3]
 108 0046 3222     		movs	r2, #50
 109 0048 02FB03F3 		mul	r3, r2, r3
 247:../Resources/Drivers/STM32L4xx_HAL_Driver/Src/stm32l4xx_hal_pwr_ex.c ****       while ((HAL_IS_BIT_SET(PWR->SR2, PWR_SR2_VOSF)) && (wait_loop_index != 0U))
 110              		.loc 1 247 72 view .LVU21
 111 004c 0F4A     		ldr	r2, .L14+8
 112 004e A2FB0323 		umull	r2, r3, r2, r3
 113 0052 9B0C     		lsrs	r3, r3, #18
 247:../Resources/Drivers/STM32L4xx_HAL_Driver/Src/stm32l4xx_hal_pwr_ex.c ****       while ((HAL_IS_BIT_SET(PWR->SR2, PWR_SR2_VOSF)) && (wait_loop_index != 0U))
 114              		.loc 1 247 23 view .LVU22
 115 0054 0133     		adds	r3, r3, #1
 116              	.LVL3:
 248:../Resources/Drivers/STM32L4xx_HAL_Driver/Src/stm32l4xx_hal_pwr_ex.c ****       {
 117              		.loc 1 248 7 is_stmt 1 view .LVU23
 248:../Resources/Drivers/STM32L4xx_HAL_Driver/Src/stm32l4xx_hal_pwr_ex.c ****       {
 118              		.loc 1 248 13 is_stmt 0 view .LVU24
 119 0056 00E0     		b	.L7
 120              	.L9:
 250:../Resources/Drivers/STM32L4xx_HAL_Driver/Src/stm32l4xx_hal_pwr_ex.c ****       }
 121              		.loc 1 250 9 is_stmt 1 view .LVU25
 250:../Resources/Drivers/STM32L4xx_HAL_Driver/Src/stm32l4xx_hal_pwr_ex.c ****       }
ARM GAS  /tmp/ccMFwPRI.s 			page 8


 122              		.loc 1 250 24 is_stmt 0 view .LVU26
 123 0058 013B     		subs	r3, r3, #1
 124              	.LVL4:
 125              	.L7:
 248:../Resources/Drivers/STM32L4xx_HAL_Driver/Src/stm32l4xx_hal_pwr_ex.c ****       {
 126              		.loc 1 248 13 is_stmt 1 view .LVU27
 248:../Resources/Drivers/STM32L4xx_HAL_Driver/Src/stm32l4xx_hal_pwr_ex.c ****       {
 127              		.loc 1 248 15 is_stmt 0 view .LVU28
 128 005a 0A4A     		ldr	r2, .L14
 129 005c 5269     		ldr	r2, [r2, #20]
 248:../Resources/Drivers/STM32L4xx_HAL_Driver/Src/stm32l4xx_hal_pwr_ex.c ****       {
 130              		.loc 1 248 13 view .LVU29
 131 005e 12F4806F 		tst	r2, #1024
 132 0062 01D0     		beq	.L8
 248:../Resources/Drivers/STM32L4xx_HAL_Driver/Src/stm32l4xx_hal_pwr_ex.c ****       {
 133              		.loc 1 248 55 discriminator 1 view .LVU30
 134 0064 002B     		cmp	r3, #0
 135 0066 F7D1     		bne	.L9
 136              	.L8:
 252:../Resources/Drivers/STM32L4xx_HAL_Driver/Src/stm32l4xx_hal_pwr_ex.c ****       {
 137              		.loc 1 252 7 is_stmt 1 view .LVU31
 252:../Resources/Drivers/STM32L4xx_HAL_Driver/Src/stm32l4xx_hal_pwr_ex.c ****       {
 138              		.loc 1 252 11 is_stmt 0 view .LVU32
 139 0068 064B     		ldr	r3, .L14
 140              	.LVL5:
 252:../Resources/Drivers/STM32L4xx_HAL_Driver/Src/stm32l4xx_hal_pwr_ex.c ****       {
 141              		.loc 1 252 11 view .LVU33
 142 006a 5B69     		ldr	r3, [r3, #20]
 252:../Resources/Drivers/STM32L4xx_HAL_Driver/Src/stm32l4xx_hal_pwr_ex.c ****       {
 143              		.loc 1 252 10 view .LVU34
 144 006c 13F4806F 		tst	r3, #1024
 145 0070 03D1     		bne	.L11
 146              		.loc 1 269 10 view .LVU35
 147 0072 0020     		movs	r0, #0
 148              	.LVL6:
 149              		.loc 1 269 10 view .LVU36
 150 0074 7047     		bx	lr
 151              	.LVL7:
 152              	.L10:
 153              		.loc 1 269 10 view .LVU37
 154 0076 0020     		movs	r0, #0
 155              	.LVL8:
 156              		.loc 1 269 10 view .LVU38
 157 0078 7047     		bx	lr
 158              	.LVL9:
 159              	.L11:
 254:../Resources/Drivers/STM32L4xx_HAL_Driver/Src/stm32l4xx_hal_pwr_ex.c ****       }
 160              		.loc 1 254 16 view .LVU39
 161 007a 0320     		movs	r0, #3
 162              	.LVL10:
 254:../Resources/Drivers/STM32L4xx_HAL_Driver/Src/stm32l4xx_hal_pwr_ex.c ****       }
 163              		.loc 1 254 16 view .LVU40
 164 007c 7047     		bx	lr
 165              	.LVL11:
 166              	.L12:
 167              		.loc 1 269 10 view .LVU41
 168 007e 0020     		movs	r0, #0
ARM GAS  /tmp/ccMFwPRI.s 			page 9


 169              	.LVL12:
 270:../Resources/Drivers/STM32L4xx_HAL_Driver/Src/stm32l4xx_hal_pwr_ex.c **** }
 170              		.loc 1 270 1 view .LVU42
 171 0080 7047     		bx	lr
 172              	.L15:
 173 0082 00BF     		.align	2
 174              	.L14:
 175 0084 00700040 		.word	1073770496
 176 0088 00000000 		.word	SystemCoreClock
 177 008c 83DE1B43 		.word	1125899907
 178              		.cfi_endproc
 179              	.LFE133:
 181              		.section	.text.HAL_PWREx_EnableBatteryCharging,"ax",%progbits
 182              		.align	1
 183              		.global	HAL_PWREx_EnableBatteryCharging
 184              		.syntax unified
 185              		.thumb
 186              		.thumb_func
 188              	HAL_PWREx_EnableBatteryCharging:
 189              	.LVL13:
 190              	.LFB134:
 271:../Resources/Drivers/STM32L4xx_HAL_Driver/Src/stm32l4xx_hal_pwr_ex.c **** 
 272:../Resources/Drivers/STM32L4xx_HAL_Driver/Src/stm32l4xx_hal_pwr_ex.c **** 
 273:../Resources/Drivers/STM32L4xx_HAL_Driver/Src/stm32l4xx_hal_pwr_ex.c **** /**
 274:../Resources/Drivers/STM32L4xx_HAL_Driver/Src/stm32l4xx_hal_pwr_ex.c ****   * @brief Enable battery charging.
 275:../Resources/Drivers/STM32L4xx_HAL_Driver/Src/stm32l4xx_hal_pwr_ex.c ****   *        When VDD is present, charge the external battery on VBAT thru an internal resistor.
 276:../Resources/Drivers/STM32L4xx_HAL_Driver/Src/stm32l4xx_hal_pwr_ex.c ****   * @param  ResistorSelection specifies the resistor impedance.
 277:../Resources/Drivers/STM32L4xx_HAL_Driver/Src/stm32l4xx_hal_pwr_ex.c ****   *          This parameter can be one of the following values:
 278:../Resources/Drivers/STM32L4xx_HAL_Driver/Src/stm32l4xx_hal_pwr_ex.c ****   *            @arg @ref PWR_BATTERY_CHARGING_RESISTOR_5     5 kOhms resistor
 279:../Resources/Drivers/STM32L4xx_HAL_Driver/Src/stm32l4xx_hal_pwr_ex.c ****   *            @arg @ref PWR_BATTERY_CHARGING_RESISTOR_1_5 1.5 kOhms resistor
 280:../Resources/Drivers/STM32L4xx_HAL_Driver/Src/stm32l4xx_hal_pwr_ex.c ****   * @retval None
 281:../Resources/Drivers/STM32L4xx_HAL_Driver/Src/stm32l4xx_hal_pwr_ex.c ****   */
 282:../Resources/Drivers/STM32L4xx_HAL_Driver/Src/stm32l4xx_hal_pwr_ex.c **** void HAL_PWREx_EnableBatteryCharging(uint32_t ResistorSelection)
 283:../Resources/Drivers/STM32L4xx_HAL_Driver/Src/stm32l4xx_hal_pwr_ex.c **** {
 191              		.loc 1 283 1 is_stmt 1 view -0
 192              		.cfi_startproc
 193              		@ args = 0, pretend = 0, frame = 0
 194              		@ frame_needed = 0, uses_anonymous_args = 0
 195              		@ link register save eliminated.
 284:../Resources/Drivers/STM32L4xx_HAL_Driver/Src/stm32l4xx_hal_pwr_ex.c ****   assert_param(IS_PWR_BATTERY_RESISTOR_SELECT(ResistorSelection));
 196              		.loc 1 284 3 view .LVU44
 285:../Resources/Drivers/STM32L4xx_HAL_Driver/Src/stm32l4xx_hal_pwr_ex.c **** 
 286:../Resources/Drivers/STM32L4xx_HAL_Driver/Src/stm32l4xx_hal_pwr_ex.c ****   /* Specify resistor selection */
 287:../Resources/Drivers/STM32L4xx_HAL_Driver/Src/stm32l4xx_hal_pwr_ex.c ****   MODIFY_REG(PWR->CR4, PWR_CR4_VBRS, ResistorSelection);
 197              		.loc 1 287 3 view .LVU45
 198 0000 054A     		ldr	r2, .L17
 199 0002 D368     		ldr	r3, [r2, #12]
 200 0004 23F40073 		bic	r3, r3, #512
 201 0008 0343     		orrs	r3, r3, r0
 202 000a D360     		str	r3, [r2, #12]
 288:../Resources/Drivers/STM32L4xx_HAL_Driver/Src/stm32l4xx_hal_pwr_ex.c **** 
 289:../Resources/Drivers/STM32L4xx_HAL_Driver/Src/stm32l4xx_hal_pwr_ex.c ****   /* Enable battery charging */
 290:../Resources/Drivers/STM32L4xx_HAL_Driver/Src/stm32l4xx_hal_pwr_ex.c ****   SET_BIT(PWR->CR4, PWR_CR4_VBE);
 203              		.loc 1 290 3 view .LVU46
 204 000c D368     		ldr	r3, [r2, #12]
 205 000e 43F48073 		orr	r3, r3, #256
 206 0012 D360     		str	r3, [r2, #12]
ARM GAS  /tmp/ccMFwPRI.s 			page 10


 291:../Resources/Drivers/STM32L4xx_HAL_Driver/Src/stm32l4xx_hal_pwr_ex.c **** }
 207              		.loc 1 291 1 is_stmt 0 view .LVU47
 208 0014 7047     		bx	lr
 209              	.L18:
 210 0016 00BF     		.align	2
 211              	.L17:
 212 0018 00700040 		.word	1073770496
 213              		.cfi_endproc
 214              	.LFE134:
 216              		.section	.text.HAL_PWREx_DisableBatteryCharging,"ax",%progbits
 217              		.align	1
 218              		.global	HAL_PWREx_DisableBatteryCharging
 219              		.syntax unified
 220              		.thumb
 221              		.thumb_func
 223              	HAL_PWREx_DisableBatteryCharging:
 224              	.LFB135:
 292:../Resources/Drivers/STM32L4xx_HAL_Driver/Src/stm32l4xx_hal_pwr_ex.c **** 
 293:../Resources/Drivers/STM32L4xx_HAL_Driver/Src/stm32l4xx_hal_pwr_ex.c **** 
 294:../Resources/Drivers/STM32L4xx_HAL_Driver/Src/stm32l4xx_hal_pwr_ex.c **** /**
 295:../Resources/Drivers/STM32L4xx_HAL_Driver/Src/stm32l4xx_hal_pwr_ex.c ****   * @brief Disable battery charging.
 296:../Resources/Drivers/STM32L4xx_HAL_Driver/Src/stm32l4xx_hal_pwr_ex.c ****   * @retval None
 297:../Resources/Drivers/STM32L4xx_HAL_Driver/Src/stm32l4xx_hal_pwr_ex.c ****   */
 298:../Resources/Drivers/STM32L4xx_HAL_Driver/Src/stm32l4xx_hal_pwr_ex.c **** void HAL_PWREx_DisableBatteryCharging(void)
 299:../Resources/Drivers/STM32L4xx_HAL_Driver/Src/stm32l4xx_hal_pwr_ex.c **** {
 225              		.loc 1 299 1 is_stmt 1 view -0
 226              		.cfi_startproc
 227              		@ args = 0, pretend = 0, frame = 0
 228              		@ frame_needed = 0, uses_anonymous_args = 0
 229              		@ link register save eliminated.
 300:../Resources/Drivers/STM32L4xx_HAL_Driver/Src/stm32l4xx_hal_pwr_ex.c ****   CLEAR_BIT(PWR->CR4, PWR_CR4_VBE);
 230              		.loc 1 300 3 view .LVU49
 231 0000 024A     		ldr	r2, .L20
 232 0002 D368     		ldr	r3, [r2, #12]
 233 0004 23F48073 		bic	r3, r3, #256
 234 0008 D360     		str	r3, [r2, #12]
 301:../Resources/Drivers/STM32L4xx_HAL_Driver/Src/stm32l4xx_hal_pwr_ex.c **** }
 235              		.loc 1 301 1 is_stmt 0 view .LVU50
 236 000a 7047     		bx	lr
 237              	.L21:
 238              		.align	2
 239              	.L20:
 240 000c 00700040 		.word	1073770496
 241              		.cfi_endproc
 242              	.LFE135:
 244              		.section	.text.HAL_PWREx_EnableVddUSB,"ax",%progbits
 245              		.align	1
 246              		.global	HAL_PWREx_EnableVddUSB
 247              		.syntax unified
 248              		.thumb
 249              		.thumb_func
 251              	HAL_PWREx_EnableVddUSB:
 252              	.LFB136:
 302:../Resources/Drivers/STM32L4xx_HAL_Driver/Src/stm32l4xx_hal_pwr_ex.c **** 
 303:../Resources/Drivers/STM32L4xx_HAL_Driver/Src/stm32l4xx_hal_pwr_ex.c **** 
 304:../Resources/Drivers/STM32L4xx_HAL_Driver/Src/stm32l4xx_hal_pwr_ex.c **** #if defined(PWR_CR2_USV)
 305:../Resources/Drivers/STM32L4xx_HAL_Driver/Src/stm32l4xx_hal_pwr_ex.c **** /**
ARM GAS  /tmp/ccMFwPRI.s 			page 11


 306:../Resources/Drivers/STM32L4xx_HAL_Driver/Src/stm32l4xx_hal_pwr_ex.c ****   * @brief Enable VDDUSB supply.
 307:../Resources/Drivers/STM32L4xx_HAL_Driver/Src/stm32l4xx_hal_pwr_ex.c ****   * @note  Remove VDDUSB electrical and logical isolation, once VDDUSB supply is present.
 308:../Resources/Drivers/STM32L4xx_HAL_Driver/Src/stm32l4xx_hal_pwr_ex.c ****   * @retval None
 309:../Resources/Drivers/STM32L4xx_HAL_Driver/Src/stm32l4xx_hal_pwr_ex.c ****   */
 310:../Resources/Drivers/STM32L4xx_HAL_Driver/Src/stm32l4xx_hal_pwr_ex.c **** void HAL_PWREx_EnableVddUSB(void)
 311:../Resources/Drivers/STM32L4xx_HAL_Driver/Src/stm32l4xx_hal_pwr_ex.c **** {
 253              		.loc 1 311 1 is_stmt 1 view -0
 254              		.cfi_startproc
 255              		@ args = 0, pretend = 0, frame = 0
 256              		@ frame_needed = 0, uses_anonymous_args = 0
 257              		@ link register save eliminated.
 312:../Resources/Drivers/STM32L4xx_HAL_Driver/Src/stm32l4xx_hal_pwr_ex.c ****   SET_BIT(PWR->CR2, PWR_CR2_USV);
 258              		.loc 1 312 3 view .LVU52
 259 0000 024A     		ldr	r2, .L23
 260 0002 5368     		ldr	r3, [r2, #4]
 261 0004 43F48063 		orr	r3, r3, #1024
 262 0008 5360     		str	r3, [r2, #4]
 313:../Resources/Drivers/STM32L4xx_HAL_Driver/Src/stm32l4xx_hal_pwr_ex.c **** }
 263              		.loc 1 313 1 is_stmt 0 view .LVU53
 264 000a 7047     		bx	lr
 265              	.L24:
 266              		.align	2
 267              	.L23:
 268 000c 00700040 		.word	1073770496
 269              		.cfi_endproc
 270              	.LFE136:
 272              		.section	.text.HAL_PWREx_DisableVddUSB,"ax",%progbits
 273              		.align	1
 274              		.global	HAL_PWREx_DisableVddUSB
 275              		.syntax unified
 276              		.thumb
 277              		.thumb_func
 279              	HAL_PWREx_DisableVddUSB:
 280              	.LFB137:
 314:../Resources/Drivers/STM32L4xx_HAL_Driver/Src/stm32l4xx_hal_pwr_ex.c **** 
 315:../Resources/Drivers/STM32L4xx_HAL_Driver/Src/stm32l4xx_hal_pwr_ex.c **** 
 316:../Resources/Drivers/STM32L4xx_HAL_Driver/Src/stm32l4xx_hal_pwr_ex.c **** /**
 317:../Resources/Drivers/STM32L4xx_HAL_Driver/Src/stm32l4xx_hal_pwr_ex.c ****   * @brief Disable VDDUSB supply.
 318:../Resources/Drivers/STM32L4xx_HAL_Driver/Src/stm32l4xx_hal_pwr_ex.c ****   * @retval None
 319:../Resources/Drivers/STM32L4xx_HAL_Driver/Src/stm32l4xx_hal_pwr_ex.c ****   */
 320:../Resources/Drivers/STM32L4xx_HAL_Driver/Src/stm32l4xx_hal_pwr_ex.c **** void HAL_PWREx_DisableVddUSB(void)
 321:../Resources/Drivers/STM32L4xx_HAL_Driver/Src/stm32l4xx_hal_pwr_ex.c **** {
 281              		.loc 1 321 1 is_stmt 1 view -0
 282              		.cfi_startproc
 283              		@ args = 0, pretend = 0, frame = 0
 284              		@ frame_needed = 0, uses_anonymous_args = 0
 285              		@ link register save eliminated.
 322:../Resources/Drivers/STM32L4xx_HAL_Driver/Src/stm32l4xx_hal_pwr_ex.c ****   CLEAR_BIT(PWR->CR2, PWR_CR2_USV);
 286              		.loc 1 322 3 view .LVU55
 287 0000 024A     		ldr	r2, .L26
 288 0002 5368     		ldr	r3, [r2, #4]
 289 0004 23F48063 		bic	r3, r3, #1024
 290 0008 5360     		str	r3, [r2, #4]
 323:../Resources/Drivers/STM32L4xx_HAL_Driver/Src/stm32l4xx_hal_pwr_ex.c **** }
 291              		.loc 1 323 1 is_stmt 0 view .LVU56
 292 000a 7047     		bx	lr
 293              	.L27:
ARM GAS  /tmp/ccMFwPRI.s 			page 12


 294              		.align	2
 295              	.L26:
 296 000c 00700040 		.word	1073770496
 297              		.cfi_endproc
 298              	.LFE137:
 300              		.section	.text.HAL_PWREx_EnableVddIO2,"ax",%progbits
 301              		.align	1
 302              		.global	HAL_PWREx_EnableVddIO2
 303              		.syntax unified
 304              		.thumb
 305              		.thumb_func
 307              	HAL_PWREx_EnableVddIO2:
 308              	.LFB138:
 324:../Resources/Drivers/STM32L4xx_HAL_Driver/Src/stm32l4xx_hal_pwr_ex.c **** #endif /* PWR_CR2_USV */
 325:../Resources/Drivers/STM32L4xx_HAL_Driver/Src/stm32l4xx_hal_pwr_ex.c **** 
 326:../Resources/Drivers/STM32L4xx_HAL_Driver/Src/stm32l4xx_hal_pwr_ex.c **** #if defined(PWR_CR2_IOSV)
 327:../Resources/Drivers/STM32L4xx_HAL_Driver/Src/stm32l4xx_hal_pwr_ex.c **** /**
 328:../Resources/Drivers/STM32L4xx_HAL_Driver/Src/stm32l4xx_hal_pwr_ex.c ****   * @brief Enable VDDIO2 supply.
 329:../Resources/Drivers/STM32L4xx_HAL_Driver/Src/stm32l4xx_hal_pwr_ex.c ****   * @note  Remove VDDIO2 electrical and logical isolation, once VDDIO2 supply is present.
 330:../Resources/Drivers/STM32L4xx_HAL_Driver/Src/stm32l4xx_hal_pwr_ex.c ****   * @retval None
 331:../Resources/Drivers/STM32L4xx_HAL_Driver/Src/stm32l4xx_hal_pwr_ex.c ****   */
 332:../Resources/Drivers/STM32L4xx_HAL_Driver/Src/stm32l4xx_hal_pwr_ex.c **** void HAL_PWREx_EnableVddIO2(void)
 333:../Resources/Drivers/STM32L4xx_HAL_Driver/Src/stm32l4xx_hal_pwr_ex.c **** {
 309              		.loc 1 333 1 is_stmt 1 view -0
 310              		.cfi_startproc
 311              		@ args = 0, pretend = 0, frame = 0
 312              		@ frame_needed = 0, uses_anonymous_args = 0
 313              		@ link register save eliminated.
 334:../Resources/Drivers/STM32L4xx_HAL_Driver/Src/stm32l4xx_hal_pwr_ex.c ****   SET_BIT(PWR->CR2, PWR_CR2_IOSV);
 314              		.loc 1 334 3 view .LVU58
 315 0000 024A     		ldr	r2, .L29
 316 0002 5368     		ldr	r3, [r2, #4]
 317 0004 43F40073 		orr	r3, r3, #512
 318 0008 5360     		str	r3, [r2, #4]
 335:../Resources/Drivers/STM32L4xx_HAL_Driver/Src/stm32l4xx_hal_pwr_ex.c **** }
 319              		.loc 1 335 1 is_stmt 0 view .LVU59
 320 000a 7047     		bx	lr
 321              	.L30:
 322              		.align	2
 323              	.L29:
 324 000c 00700040 		.word	1073770496
 325              		.cfi_endproc
 326              	.LFE138:
 328              		.section	.text.HAL_PWREx_DisableVddIO2,"ax",%progbits
 329              		.align	1
 330              		.global	HAL_PWREx_DisableVddIO2
 331              		.syntax unified
 332              		.thumb
 333              		.thumb_func
 335              	HAL_PWREx_DisableVddIO2:
 336              	.LFB139:
 336:../Resources/Drivers/STM32L4xx_HAL_Driver/Src/stm32l4xx_hal_pwr_ex.c **** 
 337:../Resources/Drivers/STM32L4xx_HAL_Driver/Src/stm32l4xx_hal_pwr_ex.c **** 
 338:../Resources/Drivers/STM32L4xx_HAL_Driver/Src/stm32l4xx_hal_pwr_ex.c **** /**
 339:../Resources/Drivers/STM32L4xx_HAL_Driver/Src/stm32l4xx_hal_pwr_ex.c ****   * @brief Disable VDDIO2 supply.
 340:../Resources/Drivers/STM32L4xx_HAL_Driver/Src/stm32l4xx_hal_pwr_ex.c ****   * @retval None
 341:../Resources/Drivers/STM32L4xx_HAL_Driver/Src/stm32l4xx_hal_pwr_ex.c ****   */
ARM GAS  /tmp/ccMFwPRI.s 			page 13


 342:../Resources/Drivers/STM32L4xx_HAL_Driver/Src/stm32l4xx_hal_pwr_ex.c **** void HAL_PWREx_DisableVddIO2(void)
 343:../Resources/Drivers/STM32L4xx_HAL_Driver/Src/stm32l4xx_hal_pwr_ex.c **** {
 337              		.loc 1 343 1 is_stmt 1 view -0
 338              		.cfi_startproc
 339              		@ args = 0, pretend = 0, frame = 0
 340              		@ frame_needed = 0, uses_anonymous_args = 0
 341              		@ link register save eliminated.
 344:../Resources/Drivers/STM32L4xx_HAL_Driver/Src/stm32l4xx_hal_pwr_ex.c ****   CLEAR_BIT(PWR->CR2, PWR_CR2_IOSV);
 342              		.loc 1 344 3 view .LVU61
 343 0000 024A     		ldr	r2, .L32
 344 0002 5368     		ldr	r3, [r2, #4]
 345 0004 23F40073 		bic	r3, r3, #512
 346 0008 5360     		str	r3, [r2, #4]
 345:../Resources/Drivers/STM32L4xx_HAL_Driver/Src/stm32l4xx_hal_pwr_ex.c **** }
 347              		.loc 1 345 1 is_stmt 0 view .LVU62
 348 000a 7047     		bx	lr
 349              	.L33:
 350              		.align	2
 351              	.L32:
 352 000c 00700040 		.word	1073770496
 353              		.cfi_endproc
 354              	.LFE139:
 356              		.section	.text.HAL_PWREx_EnableInternalWakeUpLine,"ax",%progbits
 357              		.align	1
 358              		.global	HAL_PWREx_EnableInternalWakeUpLine
 359              		.syntax unified
 360              		.thumb
 361              		.thumb_func
 363              	HAL_PWREx_EnableInternalWakeUpLine:
 364              	.LFB140:
 346:../Resources/Drivers/STM32L4xx_HAL_Driver/Src/stm32l4xx_hal_pwr_ex.c **** #endif /* PWR_CR2_IOSV */
 347:../Resources/Drivers/STM32L4xx_HAL_Driver/Src/stm32l4xx_hal_pwr_ex.c **** 
 348:../Resources/Drivers/STM32L4xx_HAL_Driver/Src/stm32l4xx_hal_pwr_ex.c **** 
 349:../Resources/Drivers/STM32L4xx_HAL_Driver/Src/stm32l4xx_hal_pwr_ex.c **** /**
 350:../Resources/Drivers/STM32L4xx_HAL_Driver/Src/stm32l4xx_hal_pwr_ex.c ****   * @brief Enable Internal Wake-up Line.
 351:../Resources/Drivers/STM32L4xx_HAL_Driver/Src/stm32l4xx_hal_pwr_ex.c ****   * @retval None
 352:../Resources/Drivers/STM32L4xx_HAL_Driver/Src/stm32l4xx_hal_pwr_ex.c ****   */
 353:../Resources/Drivers/STM32L4xx_HAL_Driver/Src/stm32l4xx_hal_pwr_ex.c **** void HAL_PWREx_EnableInternalWakeUpLine(void)
 354:../Resources/Drivers/STM32L4xx_HAL_Driver/Src/stm32l4xx_hal_pwr_ex.c **** {
 365              		.loc 1 354 1 is_stmt 1 view -0
 366              		.cfi_startproc
 367              		@ args = 0, pretend = 0, frame = 0
 368              		@ frame_needed = 0, uses_anonymous_args = 0
 369              		@ link register save eliminated.
 355:../Resources/Drivers/STM32L4xx_HAL_Driver/Src/stm32l4xx_hal_pwr_ex.c ****   SET_BIT(PWR->CR3, PWR_CR3_EIWF);
 370              		.loc 1 355 3 view .LVU64
 371 0000 024A     		ldr	r2, .L35
 372 0002 9368     		ldr	r3, [r2, #8]
 373 0004 43F40043 		orr	r3, r3, #32768
 374 0008 9360     		str	r3, [r2, #8]
 356:../Resources/Drivers/STM32L4xx_HAL_Driver/Src/stm32l4xx_hal_pwr_ex.c **** }
 375              		.loc 1 356 1 is_stmt 0 view .LVU65
 376 000a 7047     		bx	lr
 377              	.L36:
 378              		.align	2
 379              	.L35:
 380 000c 00700040 		.word	1073770496
ARM GAS  /tmp/ccMFwPRI.s 			page 14


 381              		.cfi_endproc
 382              	.LFE140:
 384              		.section	.text.HAL_PWREx_DisableInternalWakeUpLine,"ax",%progbits
 385              		.align	1
 386              		.global	HAL_PWREx_DisableInternalWakeUpLine
 387              		.syntax unified
 388              		.thumb
 389              		.thumb_func
 391              	HAL_PWREx_DisableInternalWakeUpLine:
 392              	.LFB141:
 357:../Resources/Drivers/STM32L4xx_HAL_Driver/Src/stm32l4xx_hal_pwr_ex.c **** 
 358:../Resources/Drivers/STM32L4xx_HAL_Driver/Src/stm32l4xx_hal_pwr_ex.c **** 
 359:../Resources/Drivers/STM32L4xx_HAL_Driver/Src/stm32l4xx_hal_pwr_ex.c **** /**
 360:../Resources/Drivers/STM32L4xx_HAL_Driver/Src/stm32l4xx_hal_pwr_ex.c ****   * @brief Disable Internal Wake-up Line.
 361:../Resources/Drivers/STM32L4xx_HAL_Driver/Src/stm32l4xx_hal_pwr_ex.c ****   * @retval None
 362:../Resources/Drivers/STM32L4xx_HAL_Driver/Src/stm32l4xx_hal_pwr_ex.c ****   */
 363:../Resources/Drivers/STM32L4xx_HAL_Driver/Src/stm32l4xx_hal_pwr_ex.c **** void HAL_PWREx_DisableInternalWakeUpLine(void)
 364:../Resources/Drivers/STM32L4xx_HAL_Driver/Src/stm32l4xx_hal_pwr_ex.c **** {
 393              		.loc 1 364 1 is_stmt 1 view -0
 394              		.cfi_startproc
 395              		@ args = 0, pretend = 0, frame = 0
 396              		@ frame_needed = 0, uses_anonymous_args = 0
 397              		@ link register save eliminated.
 365:../Resources/Drivers/STM32L4xx_HAL_Driver/Src/stm32l4xx_hal_pwr_ex.c ****   CLEAR_BIT(PWR->CR3, PWR_CR3_EIWF);
 398              		.loc 1 365 3 view .LVU67
 399 0000 024A     		ldr	r2, .L38
 400 0002 9368     		ldr	r3, [r2, #8]
 401 0004 23F40043 		bic	r3, r3, #32768
 402 0008 9360     		str	r3, [r2, #8]
 366:../Resources/Drivers/STM32L4xx_HAL_Driver/Src/stm32l4xx_hal_pwr_ex.c **** }
 403              		.loc 1 366 1 is_stmt 0 view .LVU68
 404 000a 7047     		bx	lr
 405              	.L39:
 406              		.align	2
 407              	.L38:
 408 000c 00700040 		.word	1073770496
 409              		.cfi_endproc
 410              	.LFE141:
 412              		.section	.text.HAL_PWREx_EnableGPIOPullUp,"ax",%progbits
 413              		.align	1
 414              		.global	HAL_PWREx_EnableGPIOPullUp
 415              		.syntax unified
 416              		.thumb
 417              		.thumb_func
 419              	HAL_PWREx_EnableGPIOPullUp:
 420              	.LVL14:
 421              	.LFB142:
 367:../Resources/Drivers/STM32L4xx_HAL_Driver/Src/stm32l4xx_hal_pwr_ex.c **** 
 368:../Resources/Drivers/STM32L4xx_HAL_Driver/Src/stm32l4xx_hal_pwr_ex.c **** 
 369:../Resources/Drivers/STM32L4xx_HAL_Driver/Src/stm32l4xx_hal_pwr_ex.c **** 
 370:../Resources/Drivers/STM32L4xx_HAL_Driver/Src/stm32l4xx_hal_pwr_ex.c **** /**
 371:../Resources/Drivers/STM32L4xx_HAL_Driver/Src/stm32l4xx_hal_pwr_ex.c ****   * @brief Enable GPIO pull-up state in Standby and Shutdown modes.
 372:../Resources/Drivers/STM32L4xx_HAL_Driver/Src/stm32l4xx_hal_pwr_ex.c ****   * @note  Set the relevant PUy bits of PWR_PUCRx register to configure the I/O in
 373:../Resources/Drivers/STM32L4xx_HAL_Driver/Src/stm32l4xx_hal_pwr_ex.c ****   *        pull-up state in Standby and Shutdown modes.
 374:../Resources/Drivers/STM32L4xx_HAL_Driver/Src/stm32l4xx_hal_pwr_ex.c ****   * @note  This state is effective in Standby and Shutdown modes only if APC bit
 375:../Resources/Drivers/STM32L4xx_HAL_Driver/Src/stm32l4xx_hal_pwr_ex.c ****   *        is set through HAL_PWREx_EnablePullUpPullDownConfig() API.
 376:../Resources/Drivers/STM32L4xx_HAL_Driver/Src/stm32l4xx_hal_pwr_ex.c ****   * @note  The configuration is lost when exiting the Shutdown mode due to the
ARM GAS  /tmp/ccMFwPRI.s 			page 15


 377:../Resources/Drivers/STM32L4xx_HAL_Driver/Src/stm32l4xx_hal_pwr_ex.c ****   *        power-on reset, maintained when exiting the Standby mode.
 378:../Resources/Drivers/STM32L4xx_HAL_Driver/Src/stm32l4xx_hal_pwr_ex.c ****   * @note  To avoid any conflict at Standby and Shutdown modes exits, the corresponding
 379:../Resources/Drivers/STM32L4xx_HAL_Driver/Src/stm32l4xx_hal_pwr_ex.c ****   *        PDy bit of PWR_PDCRx register is cleared unless it is reserved.
 380:../Resources/Drivers/STM32L4xx_HAL_Driver/Src/stm32l4xx_hal_pwr_ex.c ****   * @note  Even if a PUy bit to set is reserved, the other PUy bits entered as input
 381:../Resources/Drivers/STM32L4xx_HAL_Driver/Src/stm32l4xx_hal_pwr_ex.c ****   *        parameter at the same time are set.
 382:../Resources/Drivers/STM32L4xx_HAL_Driver/Src/stm32l4xx_hal_pwr_ex.c ****   * @param  GPIO Specify the IO port. This parameter can be PWR_GPIO_A, ..., PWR_GPIO_H
 383:../Resources/Drivers/STM32L4xx_HAL_Driver/Src/stm32l4xx_hal_pwr_ex.c ****   *         (or PWR_GPIO_I depending on the devices) to select the GPIO peripheral.
 384:../Resources/Drivers/STM32L4xx_HAL_Driver/Src/stm32l4xx_hal_pwr_ex.c ****   * @param  GPIONumber Specify the I/O pins numbers.
 385:../Resources/Drivers/STM32L4xx_HAL_Driver/Src/stm32l4xx_hal_pwr_ex.c ****   *         This parameter can be one of the following values:
 386:../Resources/Drivers/STM32L4xx_HAL_Driver/Src/stm32l4xx_hal_pwr_ex.c ****   *         PWR_GPIO_BIT_0, ..., PWR_GPIO_BIT_15 (except for the port where less
 387:../Resources/Drivers/STM32L4xx_HAL_Driver/Src/stm32l4xx_hal_pwr_ex.c ****   *         I/O pins are available) or the logical OR of several of them to set
 388:../Resources/Drivers/STM32L4xx_HAL_Driver/Src/stm32l4xx_hal_pwr_ex.c ****   *         several bits for a given port in a single API call.
 389:../Resources/Drivers/STM32L4xx_HAL_Driver/Src/stm32l4xx_hal_pwr_ex.c ****   * @retval HAL Status
 390:../Resources/Drivers/STM32L4xx_HAL_Driver/Src/stm32l4xx_hal_pwr_ex.c ****   */
 391:../Resources/Drivers/STM32L4xx_HAL_Driver/Src/stm32l4xx_hal_pwr_ex.c **** HAL_StatusTypeDef HAL_PWREx_EnableGPIOPullUp(uint32_t GPIO, uint32_t GPIONumber)
 392:../Resources/Drivers/STM32L4xx_HAL_Driver/Src/stm32l4xx_hal_pwr_ex.c **** {
 422              		.loc 1 392 1 is_stmt 1 view -0
 423              		.cfi_startproc
 424              		@ args = 0, pretend = 0, frame = 0
 425              		@ frame_needed = 0, uses_anonymous_args = 0
 426              		@ link register save eliminated.
 393:../Resources/Drivers/STM32L4xx_HAL_Driver/Src/stm32l4xx_hal_pwr_ex.c ****   HAL_StatusTypeDef status = HAL_OK;
 427              		.loc 1 393 3 view .LVU70
 394:../Resources/Drivers/STM32L4xx_HAL_Driver/Src/stm32l4xx_hal_pwr_ex.c **** 
 395:../Resources/Drivers/STM32L4xx_HAL_Driver/Src/stm32l4xx_hal_pwr_ex.c ****   assert_param(IS_PWR_GPIO(GPIO));
 428              		.loc 1 395 3 view .LVU71
 396:../Resources/Drivers/STM32L4xx_HAL_Driver/Src/stm32l4xx_hal_pwr_ex.c ****   assert_param(IS_PWR_GPIO_BIT_NUMBER(GPIONumber));
 429              		.loc 1 396 3 view .LVU72
 397:../Resources/Drivers/STM32L4xx_HAL_Driver/Src/stm32l4xx_hal_pwr_ex.c **** 
 398:../Resources/Drivers/STM32L4xx_HAL_Driver/Src/stm32l4xx_hal_pwr_ex.c ****   switch (GPIO)
 430              		.loc 1 398 3 view .LVU73
 431 0000 0728     		cmp	r0, #7
 432 0002 5DD8     		bhi	.L51
 433 0004 DFE800F0 		tbb	[pc, r0]
 434              	.L43:
 435 0008 04       		.byte	(.L50-.L43)/2
 436 0009 12       		.byte	(.L49-.L43)/2
 437 000a 1E       		.byte	(.L48-.L43)/2
 438 000b 28       		.byte	(.L47-.L43)/2
 439 000c 32       		.byte	(.L46-.L43)/2
 440 000d 3C       		.byte	(.L45-.L43)/2
 441 000e 46       		.byte	(.L44-.L43)/2
 442 000f 50       		.byte	(.L42-.L43)/2
 443              		.p2align 1
 444              	.L50:
 399:../Resources/Drivers/STM32L4xx_HAL_Driver/Src/stm32l4xx_hal_pwr_ex.c ****   {
 400:../Resources/Drivers/STM32L4xx_HAL_Driver/Src/stm32l4xx_hal_pwr_ex.c ****     case PWR_GPIO_A:
 401:../Resources/Drivers/STM32L4xx_HAL_Driver/Src/stm32l4xx_hal_pwr_ex.c ****        SET_BIT(PWR->PUCRA, (GPIONumber & (~(PWR_GPIO_BIT_14))));
 445              		.loc 1 401 8 view .LVU74
 446 0010 2C4B     		ldr	r3, .L52
 447 0012 1A6A     		ldr	r2, [r3, #32]
 448 0014 21F48040 		bic	r0, r1, #16384
 449              	.LVL15:
 450              		.loc 1 401 8 is_stmt 0 view .LVU75
 451 0018 0243     		orrs	r2, r2, r0
 452 001a 1A62     		str	r2, [r3, #32]
 402:../Resources/Drivers/STM32L4xx_HAL_Driver/Src/stm32l4xx_hal_pwr_ex.c ****        CLEAR_BIT(PWR->PDCRA, (GPIONumber & (~(PWR_GPIO_BIT_13|PWR_GPIO_BIT_15))));
ARM GAS  /tmp/ccMFwPRI.s 			page 16


 453              		.loc 1 402 8 is_stmt 1 view .LVU76
 454 001c 5A6A     		ldr	r2, [r3, #36]
 455 001e 21F42041 		bic	r1, r1, #40960
 456              	.LVL16:
 457              		.loc 1 402 8 is_stmt 0 view .LVU77
 458 0022 22EA0101 		bic	r1, r2, r1
 459 0026 5962     		str	r1, [r3, #36]
 403:../Resources/Drivers/STM32L4xx_HAL_Driver/Src/stm32l4xx_hal_pwr_ex.c ****        break;
 460              		.loc 1 403 8 is_stmt 1 view .LVU78
 393:../Resources/Drivers/STM32L4xx_HAL_Driver/Src/stm32l4xx_hal_pwr_ex.c **** 
 461              		.loc 1 393 21 is_stmt 0 view .LVU79
 462 0028 0020     		movs	r0, #0
 463              		.loc 1 403 8 view .LVU80
 464 002a 7047     		bx	lr
 465              	.LVL17:
 466              	.L49:
 404:../Resources/Drivers/STM32L4xx_HAL_Driver/Src/stm32l4xx_hal_pwr_ex.c ****     case PWR_GPIO_B:
 405:../Resources/Drivers/STM32L4xx_HAL_Driver/Src/stm32l4xx_hal_pwr_ex.c ****        SET_BIT(PWR->PUCRB, GPIONumber);
 467              		.loc 1 405 8 is_stmt 1 view .LVU81
 468 002c 254B     		ldr	r3, .L52
 469 002e 9A6A     		ldr	r2, [r3, #40]
 470 0030 0A43     		orrs	r2, r2, r1
 471 0032 9A62     		str	r2, [r3, #40]
 406:../Resources/Drivers/STM32L4xx_HAL_Driver/Src/stm32l4xx_hal_pwr_ex.c ****        CLEAR_BIT(PWR->PDCRB, (GPIONumber & (~(PWR_GPIO_BIT_4))));
 472              		.loc 1 406 8 view .LVU82
 473 0034 DA6A     		ldr	r2, [r3, #44]
 474 0036 21F01001 		bic	r1, r1, #16
 475              	.LVL18:
 476              		.loc 1 406 8 is_stmt 0 view .LVU83
 477 003a 22EA0101 		bic	r1, r2, r1
 478 003e D962     		str	r1, [r3, #44]
 407:../Resources/Drivers/STM32L4xx_HAL_Driver/Src/stm32l4xx_hal_pwr_ex.c ****        break;
 479              		.loc 1 407 8 is_stmt 1 view .LVU84
 393:../Resources/Drivers/STM32L4xx_HAL_Driver/Src/stm32l4xx_hal_pwr_ex.c **** 
 480              		.loc 1 393 21 is_stmt 0 view .LVU85
 481 0040 0020     		movs	r0, #0
 482              	.LVL19:
 483              		.loc 1 407 8 view .LVU86
 484 0042 7047     		bx	lr
 485              	.LVL20:
 486              	.L48:
 408:../Resources/Drivers/STM32L4xx_HAL_Driver/Src/stm32l4xx_hal_pwr_ex.c ****     case PWR_GPIO_C:
 409:../Resources/Drivers/STM32L4xx_HAL_Driver/Src/stm32l4xx_hal_pwr_ex.c ****        SET_BIT(PWR->PUCRC, GPIONumber);
 487              		.loc 1 409 8 is_stmt 1 view .LVU87
 488 0044 1F4B     		ldr	r3, .L52
 489 0046 1A6B     		ldr	r2, [r3, #48]
 490 0048 0A43     		orrs	r2, r2, r1
 491 004a 1A63     		str	r2, [r3, #48]
 410:../Resources/Drivers/STM32L4xx_HAL_Driver/Src/stm32l4xx_hal_pwr_ex.c ****        CLEAR_BIT(PWR->PDCRC, GPIONumber);
 492              		.loc 1 410 8 view .LVU88
 493 004c 5A6B     		ldr	r2, [r3, #52]
 494 004e 22EA0101 		bic	r1, r2, r1
 495              	.LVL21:
 496              		.loc 1 410 8 is_stmt 0 view .LVU89
 497 0052 5963     		str	r1, [r3, #52]
 411:../Resources/Drivers/STM32L4xx_HAL_Driver/Src/stm32l4xx_hal_pwr_ex.c ****        break;
 498              		.loc 1 411 8 is_stmt 1 view .LVU90
ARM GAS  /tmp/ccMFwPRI.s 			page 17


 393:../Resources/Drivers/STM32L4xx_HAL_Driver/Src/stm32l4xx_hal_pwr_ex.c **** 
 499              		.loc 1 393 21 is_stmt 0 view .LVU91
 500 0054 0020     		movs	r0, #0
 501              	.LVL22:
 502              		.loc 1 411 8 view .LVU92
 503 0056 7047     		bx	lr
 504              	.LVL23:
 505              	.L47:
 412:../Resources/Drivers/STM32L4xx_HAL_Driver/Src/stm32l4xx_hal_pwr_ex.c **** #if defined(GPIOD)
 413:../Resources/Drivers/STM32L4xx_HAL_Driver/Src/stm32l4xx_hal_pwr_ex.c ****     case PWR_GPIO_D:
 414:../Resources/Drivers/STM32L4xx_HAL_Driver/Src/stm32l4xx_hal_pwr_ex.c ****        SET_BIT(PWR->PUCRD, GPIONumber);
 506              		.loc 1 414 8 is_stmt 1 view .LVU93
 507 0058 1A4B     		ldr	r3, .L52
 508 005a 9A6B     		ldr	r2, [r3, #56]
 509 005c 0A43     		orrs	r2, r2, r1
 510 005e 9A63     		str	r2, [r3, #56]
 415:../Resources/Drivers/STM32L4xx_HAL_Driver/Src/stm32l4xx_hal_pwr_ex.c ****        CLEAR_BIT(PWR->PDCRD, GPIONumber);
 511              		.loc 1 415 8 view .LVU94
 512 0060 DA6B     		ldr	r2, [r3, #60]
 513 0062 22EA0101 		bic	r1, r2, r1
 514              	.LVL24:
 515              		.loc 1 415 8 is_stmt 0 view .LVU95
 516 0066 D963     		str	r1, [r3, #60]
 416:../Resources/Drivers/STM32L4xx_HAL_Driver/Src/stm32l4xx_hal_pwr_ex.c ****        break;
 517              		.loc 1 416 8 is_stmt 1 view .LVU96
 393:../Resources/Drivers/STM32L4xx_HAL_Driver/Src/stm32l4xx_hal_pwr_ex.c **** 
 518              		.loc 1 393 21 is_stmt 0 view .LVU97
 519 0068 0020     		movs	r0, #0
 520              	.LVL25:
 521              		.loc 1 416 8 view .LVU98
 522 006a 7047     		bx	lr
 523              	.LVL26:
 524              	.L46:
 417:../Resources/Drivers/STM32L4xx_HAL_Driver/Src/stm32l4xx_hal_pwr_ex.c **** #endif
 418:../Resources/Drivers/STM32L4xx_HAL_Driver/Src/stm32l4xx_hal_pwr_ex.c **** #if defined(GPIOE)
 419:../Resources/Drivers/STM32L4xx_HAL_Driver/Src/stm32l4xx_hal_pwr_ex.c ****     case PWR_GPIO_E:
 420:../Resources/Drivers/STM32L4xx_HAL_Driver/Src/stm32l4xx_hal_pwr_ex.c ****        SET_BIT(PWR->PUCRE, GPIONumber);
 525              		.loc 1 420 8 is_stmt 1 view .LVU99
 526 006c 154B     		ldr	r3, .L52
 527 006e 1A6C     		ldr	r2, [r3, #64]
 528 0070 0A43     		orrs	r2, r2, r1
 529 0072 1A64     		str	r2, [r3, #64]
 421:../Resources/Drivers/STM32L4xx_HAL_Driver/Src/stm32l4xx_hal_pwr_ex.c ****        CLEAR_BIT(PWR->PDCRE, GPIONumber);
 530              		.loc 1 421 8 view .LVU100
 531 0074 5A6C     		ldr	r2, [r3, #68]
 532 0076 22EA0101 		bic	r1, r2, r1
 533              	.LVL27:
 534              		.loc 1 421 8 is_stmt 0 view .LVU101
 535 007a 5964     		str	r1, [r3, #68]
 422:../Resources/Drivers/STM32L4xx_HAL_Driver/Src/stm32l4xx_hal_pwr_ex.c ****        break;
 536              		.loc 1 422 8 is_stmt 1 view .LVU102
 393:../Resources/Drivers/STM32L4xx_HAL_Driver/Src/stm32l4xx_hal_pwr_ex.c **** 
 537              		.loc 1 393 21 is_stmt 0 view .LVU103
 538 007c 0020     		movs	r0, #0
 539              	.LVL28:
 540              		.loc 1 422 8 view .LVU104
 541 007e 7047     		bx	lr
ARM GAS  /tmp/ccMFwPRI.s 			page 18


 542              	.LVL29:
 543              	.L45:
 423:../Resources/Drivers/STM32L4xx_HAL_Driver/Src/stm32l4xx_hal_pwr_ex.c **** #endif
 424:../Resources/Drivers/STM32L4xx_HAL_Driver/Src/stm32l4xx_hal_pwr_ex.c **** #if defined(GPIOF)
 425:../Resources/Drivers/STM32L4xx_HAL_Driver/Src/stm32l4xx_hal_pwr_ex.c ****     case PWR_GPIO_F:
 426:../Resources/Drivers/STM32L4xx_HAL_Driver/Src/stm32l4xx_hal_pwr_ex.c ****        SET_BIT(PWR->PUCRF, GPIONumber);
 544              		.loc 1 426 8 is_stmt 1 view .LVU105
 545 0080 104B     		ldr	r3, .L52
 546 0082 9A6C     		ldr	r2, [r3, #72]
 547 0084 0A43     		orrs	r2, r2, r1
 548 0086 9A64     		str	r2, [r3, #72]
 427:../Resources/Drivers/STM32L4xx_HAL_Driver/Src/stm32l4xx_hal_pwr_ex.c ****        CLEAR_BIT(PWR->PDCRF, GPIONumber);
 549              		.loc 1 427 8 view .LVU106
 550 0088 DA6C     		ldr	r2, [r3, #76]
 551 008a 22EA0101 		bic	r1, r2, r1
 552              	.LVL30:
 553              		.loc 1 427 8 is_stmt 0 view .LVU107
 554 008e D964     		str	r1, [r3, #76]
 428:../Resources/Drivers/STM32L4xx_HAL_Driver/Src/stm32l4xx_hal_pwr_ex.c ****        break;
 555              		.loc 1 428 8 is_stmt 1 view .LVU108
 393:../Resources/Drivers/STM32L4xx_HAL_Driver/Src/stm32l4xx_hal_pwr_ex.c **** 
 556              		.loc 1 393 21 is_stmt 0 view .LVU109
 557 0090 0020     		movs	r0, #0
 558              	.LVL31:
 559              		.loc 1 428 8 view .LVU110
 560 0092 7047     		bx	lr
 561              	.LVL32:
 562              	.L44:
 429:../Resources/Drivers/STM32L4xx_HAL_Driver/Src/stm32l4xx_hal_pwr_ex.c **** #endif
 430:../Resources/Drivers/STM32L4xx_HAL_Driver/Src/stm32l4xx_hal_pwr_ex.c **** #if defined(GPIOG)
 431:../Resources/Drivers/STM32L4xx_HAL_Driver/Src/stm32l4xx_hal_pwr_ex.c ****     case PWR_GPIO_G:
 432:../Resources/Drivers/STM32L4xx_HAL_Driver/Src/stm32l4xx_hal_pwr_ex.c ****        SET_BIT(PWR->PUCRG, GPIONumber);
 563              		.loc 1 432 8 is_stmt 1 view .LVU111
 564 0094 0B4B     		ldr	r3, .L52
 565 0096 1A6D     		ldr	r2, [r3, #80]
 566 0098 0A43     		orrs	r2, r2, r1
 567 009a 1A65     		str	r2, [r3, #80]
 433:../Resources/Drivers/STM32L4xx_HAL_Driver/Src/stm32l4xx_hal_pwr_ex.c ****        CLEAR_BIT(PWR->PDCRG, GPIONumber);
 568              		.loc 1 433 8 view .LVU112
 569 009c 5A6D     		ldr	r2, [r3, #84]
 570 009e 22EA0101 		bic	r1, r2, r1
 571              	.LVL33:
 572              		.loc 1 433 8 is_stmt 0 view .LVU113
 573 00a2 5965     		str	r1, [r3, #84]
 434:../Resources/Drivers/STM32L4xx_HAL_Driver/Src/stm32l4xx_hal_pwr_ex.c ****        break;
 574              		.loc 1 434 8 is_stmt 1 view .LVU114
 393:../Resources/Drivers/STM32L4xx_HAL_Driver/Src/stm32l4xx_hal_pwr_ex.c **** 
 575              		.loc 1 393 21 is_stmt 0 view .LVU115
 576 00a4 0020     		movs	r0, #0
 577              	.LVL34:
 578              		.loc 1 434 8 view .LVU116
 579 00a6 7047     		bx	lr
 580              	.LVL35:
 581              	.L42:
 435:../Resources/Drivers/STM32L4xx_HAL_Driver/Src/stm32l4xx_hal_pwr_ex.c **** #endif
 436:../Resources/Drivers/STM32L4xx_HAL_Driver/Src/stm32l4xx_hal_pwr_ex.c ****     case PWR_GPIO_H:
 437:../Resources/Drivers/STM32L4xx_HAL_Driver/Src/stm32l4xx_hal_pwr_ex.c ****        SET_BIT(PWR->PUCRH, (GPIONumber & PWR_PORTH_AVAILABLE_PINS));
ARM GAS  /tmp/ccMFwPRI.s 			page 19


 582              		.loc 1 437 8 is_stmt 1 view .LVU117
 583 00a8 064B     		ldr	r3, .L52
 584 00aa 9A6D     		ldr	r2, [r3, #88]
 585 00ac 01F00301 		and	r1, r1, #3
 586              	.LVL36:
 587              		.loc 1 437 8 is_stmt 0 view .LVU118
 588 00b0 0A43     		orrs	r2, r2, r1
 589 00b2 9A65     		str	r2, [r3, #88]
 438:../Resources/Drivers/STM32L4xx_HAL_Driver/Src/stm32l4xx_hal_pwr_ex.c **** #if defined (STM32L496xx) || defined (STM32L4A6xx)
 439:../Resources/Drivers/STM32L4xx_HAL_Driver/Src/stm32l4xx_hal_pwr_ex.c ****        CLEAR_BIT(PWR->PDCRH, ((GPIONumber & PWR_PORTH_AVAILABLE_PINS) & (~(PWR_GPIO_BIT_3))));
 440:../Resources/Drivers/STM32L4xx_HAL_Driver/Src/stm32l4xx_hal_pwr_ex.c **** #else
 441:../Resources/Drivers/STM32L4xx_HAL_Driver/Src/stm32l4xx_hal_pwr_ex.c ****        CLEAR_BIT(PWR->PDCRH, (GPIONumber & PWR_PORTH_AVAILABLE_PINS));
 590              		.loc 1 441 8 is_stmt 1 view .LVU119
 591 00b4 DA6D     		ldr	r2, [r3, #92]
 592 00b6 22EA0101 		bic	r1, r2, r1
 593 00ba D965     		str	r1, [r3, #92]
 442:../Resources/Drivers/STM32L4xx_HAL_Driver/Src/stm32l4xx_hal_pwr_ex.c **** #endif
 443:../Resources/Drivers/STM32L4xx_HAL_Driver/Src/stm32l4xx_hal_pwr_ex.c ****        break;
 594              		.loc 1 443 8 view .LVU120
 393:../Resources/Drivers/STM32L4xx_HAL_Driver/Src/stm32l4xx_hal_pwr_ex.c **** 
 595              		.loc 1 393 21 is_stmt 0 view .LVU121
 596 00bc 0020     		movs	r0, #0
 597              	.LVL37:
 598              		.loc 1 443 8 view .LVU122
 599 00be 7047     		bx	lr
 600              	.LVL38:
 601              	.L51:
 398:../Resources/Drivers/STM32L4xx_HAL_Driver/Src/stm32l4xx_hal_pwr_ex.c ****   {
 602              		.loc 1 398 3 view .LVU123
 603 00c0 0120     		movs	r0, #1
 604              	.LVL39:
 444:../Resources/Drivers/STM32L4xx_HAL_Driver/Src/stm32l4xx_hal_pwr_ex.c **** #if defined(GPIOI)
 445:../Resources/Drivers/STM32L4xx_HAL_Driver/Src/stm32l4xx_hal_pwr_ex.c ****     case PWR_GPIO_I:
 446:../Resources/Drivers/STM32L4xx_HAL_Driver/Src/stm32l4xx_hal_pwr_ex.c ****        SET_BIT(PWR->PUCRI, (GPIONumber & PWR_PORTI_AVAILABLE_PINS));
 447:../Resources/Drivers/STM32L4xx_HAL_Driver/Src/stm32l4xx_hal_pwr_ex.c ****        CLEAR_BIT(PWR->PDCRI, (GPIONumber & PWR_PORTI_AVAILABLE_PINS));
 448:../Resources/Drivers/STM32L4xx_HAL_Driver/Src/stm32l4xx_hal_pwr_ex.c ****        break;
 449:../Resources/Drivers/STM32L4xx_HAL_Driver/Src/stm32l4xx_hal_pwr_ex.c **** #endif
 450:../Resources/Drivers/STM32L4xx_HAL_Driver/Src/stm32l4xx_hal_pwr_ex.c ****     default:
 451:../Resources/Drivers/STM32L4xx_HAL_Driver/Src/stm32l4xx_hal_pwr_ex.c ****       status = HAL_ERROR;
 452:../Resources/Drivers/STM32L4xx_HAL_Driver/Src/stm32l4xx_hal_pwr_ex.c ****       break;
 453:../Resources/Drivers/STM32L4xx_HAL_Driver/Src/stm32l4xx_hal_pwr_ex.c ****   }
 454:../Resources/Drivers/STM32L4xx_HAL_Driver/Src/stm32l4xx_hal_pwr_ex.c **** 
 455:../Resources/Drivers/STM32L4xx_HAL_Driver/Src/stm32l4xx_hal_pwr_ex.c ****   return status;
 605              		.loc 1 455 3 is_stmt 1 view .LVU124
 456:../Resources/Drivers/STM32L4xx_HAL_Driver/Src/stm32l4xx_hal_pwr_ex.c **** }
 606              		.loc 1 456 1 is_stmt 0 view .LVU125
 607 00c2 7047     		bx	lr
 608              	.L53:
 609              		.align	2
 610              	.L52:
 611 00c4 00700040 		.word	1073770496
 612              		.cfi_endproc
 613              	.LFE142:
 615              		.section	.text.HAL_PWREx_DisableGPIOPullUp,"ax",%progbits
 616              		.align	1
 617              		.global	HAL_PWREx_DisableGPIOPullUp
 618              		.syntax unified
ARM GAS  /tmp/ccMFwPRI.s 			page 20


 619              		.thumb
 620              		.thumb_func
 622              	HAL_PWREx_DisableGPIOPullUp:
 623              	.LVL40:
 624              	.LFB143:
 457:../Resources/Drivers/STM32L4xx_HAL_Driver/Src/stm32l4xx_hal_pwr_ex.c **** 
 458:../Resources/Drivers/STM32L4xx_HAL_Driver/Src/stm32l4xx_hal_pwr_ex.c **** 
 459:../Resources/Drivers/STM32L4xx_HAL_Driver/Src/stm32l4xx_hal_pwr_ex.c **** /**
 460:../Resources/Drivers/STM32L4xx_HAL_Driver/Src/stm32l4xx_hal_pwr_ex.c ****   * @brief Disable GPIO pull-up state in Standby mode and Shutdown modes.
 461:../Resources/Drivers/STM32L4xx_HAL_Driver/Src/stm32l4xx_hal_pwr_ex.c ****   * @note  Reset the relevant PUy bits of PWR_PUCRx register used to configure the I/O
 462:../Resources/Drivers/STM32L4xx_HAL_Driver/Src/stm32l4xx_hal_pwr_ex.c ****   *        in pull-up state in Standby and Shutdown modes.
 463:../Resources/Drivers/STM32L4xx_HAL_Driver/Src/stm32l4xx_hal_pwr_ex.c ****   * @note  Even if a PUy bit to reset is reserved, the other PUy bits entered as input
 464:../Resources/Drivers/STM32L4xx_HAL_Driver/Src/stm32l4xx_hal_pwr_ex.c ****   *        parameter at the same time are reset.
 465:../Resources/Drivers/STM32L4xx_HAL_Driver/Src/stm32l4xx_hal_pwr_ex.c ****   * @param  GPIO Specifies the IO port. This parameter can be PWR_GPIO_A, ..., PWR_GPIO_H
 466:../Resources/Drivers/STM32L4xx_HAL_Driver/Src/stm32l4xx_hal_pwr_ex.c ****   *          (or PWR_GPIO_I depending on the devices) to select the GPIO peripheral.
 467:../Resources/Drivers/STM32L4xx_HAL_Driver/Src/stm32l4xx_hal_pwr_ex.c ****   * @param  GPIONumber Specify the I/O pins numbers.
 468:../Resources/Drivers/STM32L4xx_HAL_Driver/Src/stm32l4xx_hal_pwr_ex.c ****   *         This parameter can be one of the following values:
 469:../Resources/Drivers/STM32L4xx_HAL_Driver/Src/stm32l4xx_hal_pwr_ex.c ****   *         PWR_GPIO_BIT_0, ..., PWR_GPIO_BIT_15 (except for the port where less
 470:../Resources/Drivers/STM32L4xx_HAL_Driver/Src/stm32l4xx_hal_pwr_ex.c ****   *         I/O pins are available) or the logical OR of several of them to reset
 471:../Resources/Drivers/STM32L4xx_HAL_Driver/Src/stm32l4xx_hal_pwr_ex.c ****   *         several bits for a given port in a single API call.
 472:../Resources/Drivers/STM32L4xx_HAL_Driver/Src/stm32l4xx_hal_pwr_ex.c ****   * @retval HAL Status
 473:../Resources/Drivers/STM32L4xx_HAL_Driver/Src/stm32l4xx_hal_pwr_ex.c ****   */
 474:../Resources/Drivers/STM32L4xx_HAL_Driver/Src/stm32l4xx_hal_pwr_ex.c **** HAL_StatusTypeDef HAL_PWREx_DisableGPIOPullUp(uint32_t GPIO, uint32_t GPIONumber)
 475:../Resources/Drivers/STM32L4xx_HAL_Driver/Src/stm32l4xx_hal_pwr_ex.c **** {
 625              		.loc 1 475 1 is_stmt 1 view -0
 626              		.cfi_startproc
 627              		@ args = 0, pretend = 0, frame = 0
 628              		@ frame_needed = 0, uses_anonymous_args = 0
 629              		@ link register save eliminated.
 476:../Resources/Drivers/STM32L4xx_HAL_Driver/Src/stm32l4xx_hal_pwr_ex.c ****   HAL_StatusTypeDef status = HAL_OK;
 630              		.loc 1 476 3 view .LVU127
 477:../Resources/Drivers/STM32L4xx_HAL_Driver/Src/stm32l4xx_hal_pwr_ex.c **** 
 478:../Resources/Drivers/STM32L4xx_HAL_Driver/Src/stm32l4xx_hal_pwr_ex.c ****   assert_param(IS_PWR_GPIO(GPIO));
 631              		.loc 1 478 3 view .LVU128
 479:../Resources/Drivers/STM32L4xx_HAL_Driver/Src/stm32l4xx_hal_pwr_ex.c ****   assert_param(IS_PWR_GPIO_BIT_NUMBER(GPIONumber));
 632              		.loc 1 479 3 view .LVU129
 480:../Resources/Drivers/STM32L4xx_HAL_Driver/Src/stm32l4xx_hal_pwr_ex.c **** 
 481:../Resources/Drivers/STM32L4xx_HAL_Driver/Src/stm32l4xx_hal_pwr_ex.c ****   switch (GPIO)
 633              		.loc 1 481 3 view .LVU130
 634 0000 0728     		cmp	r0, #7
 635 0002 41D8     		bhi	.L65
 636 0004 DFE800F0 		tbb	[pc, r0]
 637              	.L57:
 638 0008 04       		.byte	(.L64-.L57)/2
 639 0009 0D       		.byte	(.L63-.L57)/2
 640 000a 14       		.byte	(.L62-.L57)/2
 641 000b 1B       		.byte	(.L61-.L57)/2
 642 000c 22       		.byte	(.L60-.L57)/2
 643 000d 29       		.byte	(.L59-.L57)/2
 644 000e 30       		.byte	(.L58-.L57)/2
 645 000f 37       		.byte	(.L56-.L57)/2
 646              		.p2align 1
 647              	.L64:
 482:../Resources/Drivers/STM32L4xx_HAL_Driver/Src/stm32l4xx_hal_pwr_ex.c ****   {
 483:../Resources/Drivers/STM32L4xx_HAL_Driver/Src/stm32l4xx_hal_pwr_ex.c ****     case PWR_GPIO_A:
 484:../Resources/Drivers/STM32L4xx_HAL_Driver/Src/stm32l4xx_hal_pwr_ex.c ****        CLEAR_BIT(PWR->PUCRA, (GPIONumber & (~(PWR_GPIO_BIT_14))));
 648              		.loc 1 484 8 view .LVU131
ARM GAS  /tmp/ccMFwPRI.s 			page 21


 649 0010 1E4A     		ldr	r2, .L66
 650 0012 136A     		ldr	r3, [r2, #32]
 651 0014 21F48041 		bic	r1, r1, #16384
 652              	.LVL41:
 653              		.loc 1 484 8 is_stmt 0 view .LVU132
 654 0018 23EA0101 		bic	r1, r3, r1
 655 001c 1162     		str	r1, [r2, #32]
 485:../Resources/Drivers/STM32L4xx_HAL_Driver/Src/stm32l4xx_hal_pwr_ex.c ****        break;
 656              		.loc 1 485 8 is_stmt 1 view .LVU133
 476:../Resources/Drivers/STM32L4xx_HAL_Driver/Src/stm32l4xx_hal_pwr_ex.c **** 
 657              		.loc 1 476 21 is_stmt 0 view .LVU134
 658 001e 0020     		movs	r0, #0
 659              	.LVL42:
 660              		.loc 1 485 8 view .LVU135
 661 0020 7047     		bx	lr
 662              	.LVL43:
 663              	.L63:
 486:../Resources/Drivers/STM32L4xx_HAL_Driver/Src/stm32l4xx_hal_pwr_ex.c ****     case PWR_GPIO_B:
 487:../Resources/Drivers/STM32L4xx_HAL_Driver/Src/stm32l4xx_hal_pwr_ex.c ****        CLEAR_BIT(PWR->PUCRB, GPIONumber);
 664              		.loc 1 487 8 is_stmt 1 view .LVU136
 665 0022 1A4A     		ldr	r2, .L66
 666 0024 936A     		ldr	r3, [r2, #40]
 667 0026 23EA0101 		bic	r1, r3, r1
 668              	.LVL44:
 669              		.loc 1 487 8 is_stmt 0 view .LVU137
 670 002a 9162     		str	r1, [r2, #40]
 488:../Resources/Drivers/STM32L4xx_HAL_Driver/Src/stm32l4xx_hal_pwr_ex.c ****        break;
 671              		.loc 1 488 8 is_stmt 1 view .LVU138
 476:../Resources/Drivers/STM32L4xx_HAL_Driver/Src/stm32l4xx_hal_pwr_ex.c **** 
 672              		.loc 1 476 21 is_stmt 0 view .LVU139
 673 002c 0020     		movs	r0, #0
 674              	.LVL45:
 675              		.loc 1 488 8 view .LVU140
 676 002e 7047     		bx	lr
 677              	.LVL46:
 678              	.L62:
 489:../Resources/Drivers/STM32L4xx_HAL_Driver/Src/stm32l4xx_hal_pwr_ex.c ****     case PWR_GPIO_C:
 490:../Resources/Drivers/STM32L4xx_HAL_Driver/Src/stm32l4xx_hal_pwr_ex.c ****        CLEAR_BIT(PWR->PUCRC, GPIONumber);
 679              		.loc 1 490 8 is_stmt 1 view .LVU141
 680 0030 164A     		ldr	r2, .L66
 681 0032 136B     		ldr	r3, [r2, #48]
 682 0034 23EA0101 		bic	r1, r3, r1
 683              	.LVL47:
 684              		.loc 1 490 8 is_stmt 0 view .LVU142
 685 0038 1163     		str	r1, [r2, #48]
 491:../Resources/Drivers/STM32L4xx_HAL_Driver/Src/stm32l4xx_hal_pwr_ex.c ****        break;
 686              		.loc 1 491 8 is_stmt 1 view .LVU143
 476:../Resources/Drivers/STM32L4xx_HAL_Driver/Src/stm32l4xx_hal_pwr_ex.c **** 
 687              		.loc 1 476 21 is_stmt 0 view .LVU144
 688 003a 0020     		movs	r0, #0
 689              	.LVL48:
 690              		.loc 1 491 8 view .LVU145
 691 003c 7047     		bx	lr
 692              	.LVL49:
 693              	.L61:
 492:../Resources/Drivers/STM32L4xx_HAL_Driver/Src/stm32l4xx_hal_pwr_ex.c **** #if defined(GPIOD)
 493:../Resources/Drivers/STM32L4xx_HAL_Driver/Src/stm32l4xx_hal_pwr_ex.c ****     case PWR_GPIO_D:
ARM GAS  /tmp/ccMFwPRI.s 			page 22


 494:../Resources/Drivers/STM32L4xx_HAL_Driver/Src/stm32l4xx_hal_pwr_ex.c ****        CLEAR_BIT(PWR->PUCRD, GPIONumber);
 694              		.loc 1 494 8 is_stmt 1 view .LVU146
 695 003e 134A     		ldr	r2, .L66
 696 0040 936B     		ldr	r3, [r2, #56]
 697 0042 23EA0101 		bic	r1, r3, r1
 698              	.LVL50:
 699              		.loc 1 494 8 is_stmt 0 view .LVU147
 700 0046 9163     		str	r1, [r2, #56]
 495:../Resources/Drivers/STM32L4xx_HAL_Driver/Src/stm32l4xx_hal_pwr_ex.c ****        break;
 701              		.loc 1 495 8 is_stmt 1 view .LVU148
 476:../Resources/Drivers/STM32L4xx_HAL_Driver/Src/stm32l4xx_hal_pwr_ex.c **** 
 702              		.loc 1 476 21 is_stmt 0 view .LVU149
 703 0048 0020     		movs	r0, #0
 704              	.LVL51:
 705              		.loc 1 495 8 view .LVU150
 706 004a 7047     		bx	lr
 707              	.LVL52:
 708              	.L60:
 496:../Resources/Drivers/STM32L4xx_HAL_Driver/Src/stm32l4xx_hal_pwr_ex.c **** #endif
 497:../Resources/Drivers/STM32L4xx_HAL_Driver/Src/stm32l4xx_hal_pwr_ex.c **** #if defined(GPIOE)
 498:../Resources/Drivers/STM32L4xx_HAL_Driver/Src/stm32l4xx_hal_pwr_ex.c ****     case PWR_GPIO_E:
 499:../Resources/Drivers/STM32L4xx_HAL_Driver/Src/stm32l4xx_hal_pwr_ex.c ****        CLEAR_BIT(PWR->PUCRE, GPIONumber);
 709              		.loc 1 499 8 is_stmt 1 view .LVU151
 710 004c 0F4A     		ldr	r2, .L66
 711 004e 136C     		ldr	r3, [r2, #64]
 712 0050 23EA0101 		bic	r1, r3, r1
 713              	.LVL53:
 714              		.loc 1 499 8 is_stmt 0 view .LVU152
 715 0054 1164     		str	r1, [r2, #64]
 500:../Resources/Drivers/STM32L4xx_HAL_Driver/Src/stm32l4xx_hal_pwr_ex.c ****        break;
 716              		.loc 1 500 8 is_stmt 1 view .LVU153
 476:../Resources/Drivers/STM32L4xx_HAL_Driver/Src/stm32l4xx_hal_pwr_ex.c **** 
 717              		.loc 1 476 21 is_stmt 0 view .LVU154
 718 0056 0020     		movs	r0, #0
 719              	.LVL54:
 720              		.loc 1 500 8 view .LVU155
 721 0058 7047     		bx	lr
 722              	.LVL55:
 723              	.L59:
 501:../Resources/Drivers/STM32L4xx_HAL_Driver/Src/stm32l4xx_hal_pwr_ex.c **** #endif
 502:../Resources/Drivers/STM32L4xx_HAL_Driver/Src/stm32l4xx_hal_pwr_ex.c **** #if defined(GPIOF)
 503:../Resources/Drivers/STM32L4xx_HAL_Driver/Src/stm32l4xx_hal_pwr_ex.c ****     case PWR_GPIO_F:
 504:../Resources/Drivers/STM32L4xx_HAL_Driver/Src/stm32l4xx_hal_pwr_ex.c ****        CLEAR_BIT(PWR->PUCRF, GPIONumber);
 724              		.loc 1 504 8 is_stmt 1 view .LVU156
 725 005a 0C4A     		ldr	r2, .L66
 726 005c 936C     		ldr	r3, [r2, #72]
 727 005e 23EA0101 		bic	r1, r3, r1
 728              	.LVL56:
 729              		.loc 1 504 8 is_stmt 0 view .LVU157
 730 0062 9164     		str	r1, [r2, #72]
 505:../Resources/Drivers/STM32L4xx_HAL_Driver/Src/stm32l4xx_hal_pwr_ex.c ****        break;
 731              		.loc 1 505 8 is_stmt 1 view .LVU158
 476:../Resources/Drivers/STM32L4xx_HAL_Driver/Src/stm32l4xx_hal_pwr_ex.c **** 
 732              		.loc 1 476 21 is_stmt 0 view .LVU159
 733 0064 0020     		movs	r0, #0
 734              	.LVL57:
 735              		.loc 1 505 8 view .LVU160
ARM GAS  /tmp/ccMFwPRI.s 			page 23


 736 0066 7047     		bx	lr
 737              	.LVL58:
 738              	.L58:
 506:../Resources/Drivers/STM32L4xx_HAL_Driver/Src/stm32l4xx_hal_pwr_ex.c **** #endif
 507:../Resources/Drivers/STM32L4xx_HAL_Driver/Src/stm32l4xx_hal_pwr_ex.c **** #if defined(GPIOG)
 508:../Resources/Drivers/STM32L4xx_HAL_Driver/Src/stm32l4xx_hal_pwr_ex.c ****     case PWR_GPIO_G:
 509:../Resources/Drivers/STM32L4xx_HAL_Driver/Src/stm32l4xx_hal_pwr_ex.c ****        CLEAR_BIT(PWR->PUCRG, GPIONumber);
 739              		.loc 1 509 8 is_stmt 1 view .LVU161
 740 0068 084A     		ldr	r2, .L66
 741 006a 136D     		ldr	r3, [r2, #80]
 742 006c 23EA0101 		bic	r1, r3, r1
 743              	.LVL59:
 744              		.loc 1 509 8 is_stmt 0 view .LVU162
 745 0070 1165     		str	r1, [r2, #80]
 510:../Resources/Drivers/STM32L4xx_HAL_Driver/Src/stm32l4xx_hal_pwr_ex.c ****        break;
 746              		.loc 1 510 8 is_stmt 1 view .LVU163
 476:../Resources/Drivers/STM32L4xx_HAL_Driver/Src/stm32l4xx_hal_pwr_ex.c **** 
 747              		.loc 1 476 21 is_stmt 0 view .LVU164
 748 0072 0020     		movs	r0, #0
 749              	.LVL60:
 750              		.loc 1 510 8 view .LVU165
 751 0074 7047     		bx	lr
 752              	.LVL61:
 753              	.L56:
 511:../Resources/Drivers/STM32L4xx_HAL_Driver/Src/stm32l4xx_hal_pwr_ex.c **** #endif
 512:../Resources/Drivers/STM32L4xx_HAL_Driver/Src/stm32l4xx_hal_pwr_ex.c ****     case PWR_GPIO_H:
 513:../Resources/Drivers/STM32L4xx_HAL_Driver/Src/stm32l4xx_hal_pwr_ex.c ****        CLEAR_BIT(PWR->PUCRH, (GPIONumber & PWR_PORTH_AVAILABLE_PINS));
 754              		.loc 1 513 8 is_stmt 1 view .LVU166
 755 0076 054A     		ldr	r2, .L66
 756 0078 936D     		ldr	r3, [r2, #88]
 757 007a 01F00301 		and	r1, r1, #3
 758              	.LVL62:
 759              		.loc 1 513 8 is_stmt 0 view .LVU167
 760 007e 23EA0101 		bic	r1, r3, r1
 761 0082 9165     		str	r1, [r2, #88]
 514:../Resources/Drivers/STM32L4xx_HAL_Driver/Src/stm32l4xx_hal_pwr_ex.c ****        break;
 762              		.loc 1 514 8 is_stmt 1 view .LVU168
 476:../Resources/Drivers/STM32L4xx_HAL_Driver/Src/stm32l4xx_hal_pwr_ex.c **** 
 763              		.loc 1 476 21 is_stmt 0 view .LVU169
 764 0084 0020     		movs	r0, #0
 765              	.LVL63:
 766              		.loc 1 514 8 view .LVU170
 767 0086 7047     		bx	lr
 768              	.LVL64:
 769              	.L65:
 481:../Resources/Drivers/STM32L4xx_HAL_Driver/Src/stm32l4xx_hal_pwr_ex.c ****   {
 770              		.loc 1 481 3 view .LVU171
 771 0088 0120     		movs	r0, #1
 772              	.LVL65:
 515:../Resources/Drivers/STM32L4xx_HAL_Driver/Src/stm32l4xx_hal_pwr_ex.c **** #if defined(GPIOI)
 516:../Resources/Drivers/STM32L4xx_HAL_Driver/Src/stm32l4xx_hal_pwr_ex.c ****     case PWR_GPIO_I:
 517:../Resources/Drivers/STM32L4xx_HAL_Driver/Src/stm32l4xx_hal_pwr_ex.c ****        CLEAR_BIT(PWR->PUCRI, (GPIONumber & PWR_PORTI_AVAILABLE_PINS));
 518:../Resources/Drivers/STM32L4xx_HAL_Driver/Src/stm32l4xx_hal_pwr_ex.c ****        break;
 519:../Resources/Drivers/STM32L4xx_HAL_Driver/Src/stm32l4xx_hal_pwr_ex.c **** #endif
 520:../Resources/Drivers/STM32L4xx_HAL_Driver/Src/stm32l4xx_hal_pwr_ex.c ****     default:
 521:../Resources/Drivers/STM32L4xx_HAL_Driver/Src/stm32l4xx_hal_pwr_ex.c ****        status = HAL_ERROR;
 522:../Resources/Drivers/STM32L4xx_HAL_Driver/Src/stm32l4xx_hal_pwr_ex.c ****        break;
ARM GAS  /tmp/ccMFwPRI.s 			page 24


 523:../Resources/Drivers/STM32L4xx_HAL_Driver/Src/stm32l4xx_hal_pwr_ex.c ****   }
 524:../Resources/Drivers/STM32L4xx_HAL_Driver/Src/stm32l4xx_hal_pwr_ex.c **** 
 525:../Resources/Drivers/STM32L4xx_HAL_Driver/Src/stm32l4xx_hal_pwr_ex.c ****   return status;
 773              		.loc 1 525 3 is_stmt 1 view .LVU172
 526:../Resources/Drivers/STM32L4xx_HAL_Driver/Src/stm32l4xx_hal_pwr_ex.c **** }
 774              		.loc 1 526 1 is_stmt 0 view .LVU173
 775 008a 7047     		bx	lr
 776              	.L67:
 777              		.align	2
 778              	.L66:
 779 008c 00700040 		.word	1073770496
 780              		.cfi_endproc
 781              	.LFE143:
 783              		.section	.text.HAL_PWREx_EnableGPIOPullDown,"ax",%progbits
 784              		.align	1
 785              		.global	HAL_PWREx_EnableGPIOPullDown
 786              		.syntax unified
 787              		.thumb
 788              		.thumb_func
 790              	HAL_PWREx_EnableGPIOPullDown:
 791              	.LVL66:
 792              	.LFB144:
 527:../Resources/Drivers/STM32L4xx_HAL_Driver/Src/stm32l4xx_hal_pwr_ex.c **** 
 528:../Resources/Drivers/STM32L4xx_HAL_Driver/Src/stm32l4xx_hal_pwr_ex.c **** 
 529:../Resources/Drivers/STM32L4xx_HAL_Driver/Src/stm32l4xx_hal_pwr_ex.c **** 
 530:../Resources/Drivers/STM32L4xx_HAL_Driver/Src/stm32l4xx_hal_pwr_ex.c **** /**
 531:../Resources/Drivers/STM32L4xx_HAL_Driver/Src/stm32l4xx_hal_pwr_ex.c ****   * @brief Enable GPIO pull-down state in Standby and Shutdown modes.
 532:../Resources/Drivers/STM32L4xx_HAL_Driver/Src/stm32l4xx_hal_pwr_ex.c ****   * @note  Set the relevant PDy bits of PWR_PDCRx register to configure the I/O in
 533:../Resources/Drivers/STM32L4xx_HAL_Driver/Src/stm32l4xx_hal_pwr_ex.c ****   *        pull-down state in Standby and Shutdown modes.
 534:../Resources/Drivers/STM32L4xx_HAL_Driver/Src/stm32l4xx_hal_pwr_ex.c ****   * @note  This state is effective in Standby and Shutdown modes only if APC bit
 535:../Resources/Drivers/STM32L4xx_HAL_Driver/Src/stm32l4xx_hal_pwr_ex.c ****   *        is set through HAL_PWREx_EnablePullUpPullDownConfig() API.
 536:../Resources/Drivers/STM32L4xx_HAL_Driver/Src/stm32l4xx_hal_pwr_ex.c ****   * @note  The configuration is lost when exiting the Shutdown mode due to the
 537:../Resources/Drivers/STM32L4xx_HAL_Driver/Src/stm32l4xx_hal_pwr_ex.c ****   *        power-on reset, maintained when exiting the Standby mode.
 538:../Resources/Drivers/STM32L4xx_HAL_Driver/Src/stm32l4xx_hal_pwr_ex.c ****   * @note  To avoid any conflict at Standby and Shutdown modes exits, the corresponding
 539:../Resources/Drivers/STM32L4xx_HAL_Driver/Src/stm32l4xx_hal_pwr_ex.c ****   *        PUy bit of PWR_PUCRx register is cleared unless it is reserved.
 540:../Resources/Drivers/STM32L4xx_HAL_Driver/Src/stm32l4xx_hal_pwr_ex.c ****   * @note  Even if a PDy bit to set is reserved, the other PDy bits entered as input
 541:../Resources/Drivers/STM32L4xx_HAL_Driver/Src/stm32l4xx_hal_pwr_ex.c ****   *        parameter at the same time are set.
 542:../Resources/Drivers/STM32L4xx_HAL_Driver/Src/stm32l4xx_hal_pwr_ex.c ****   * @param  GPIO Specify the IO port. This parameter can be PWR_GPIO_A..PWR_GPIO_H
 543:../Resources/Drivers/STM32L4xx_HAL_Driver/Src/stm32l4xx_hal_pwr_ex.c ****   *         (or PWR_GPIO_I depending on the devices) to select the GPIO peripheral.
 544:../Resources/Drivers/STM32L4xx_HAL_Driver/Src/stm32l4xx_hal_pwr_ex.c ****   * @param  GPIONumber Specify the I/O pins numbers.
 545:../Resources/Drivers/STM32L4xx_HAL_Driver/Src/stm32l4xx_hal_pwr_ex.c ****   *         This parameter can be one of the following values:
 546:../Resources/Drivers/STM32L4xx_HAL_Driver/Src/stm32l4xx_hal_pwr_ex.c ****   *         PWR_GPIO_BIT_0, ..., PWR_GPIO_BIT_15 (except for the port where less
 547:../Resources/Drivers/STM32L4xx_HAL_Driver/Src/stm32l4xx_hal_pwr_ex.c ****   *         I/O pins are available) or the logical OR of several of them to set
 548:../Resources/Drivers/STM32L4xx_HAL_Driver/Src/stm32l4xx_hal_pwr_ex.c ****   *         several bits for a given port in a single API call.
 549:../Resources/Drivers/STM32L4xx_HAL_Driver/Src/stm32l4xx_hal_pwr_ex.c ****   * @retval HAL Status
 550:../Resources/Drivers/STM32L4xx_HAL_Driver/Src/stm32l4xx_hal_pwr_ex.c ****   */
 551:../Resources/Drivers/STM32L4xx_HAL_Driver/Src/stm32l4xx_hal_pwr_ex.c **** HAL_StatusTypeDef HAL_PWREx_EnableGPIOPullDown(uint32_t GPIO, uint32_t GPIONumber)
 552:../Resources/Drivers/STM32L4xx_HAL_Driver/Src/stm32l4xx_hal_pwr_ex.c **** {
 793              		.loc 1 552 1 is_stmt 1 view -0
 794              		.cfi_startproc
 795              		@ args = 0, pretend = 0, frame = 0
 796              		@ frame_needed = 0, uses_anonymous_args = 0
 797              		@ link register save eliminated.
 553:../Resources/Drivers/STM32L4xx_HAL_Driver/Src/stm32l4xx_hal_pwr_ex.c ****   HAL_StatusTypeDef status = HAL_OK;
 798              		.loc 1 553 3 view .LVU175
 554:../Resources/Drivers/STM32L4xx_HAL_Driver/Src/stm32l4xx_hal_pwr_ex.c **** 
 555:../Resources/Drivers/STM32L4xx_HAL_Driver/Src/stm32l4xx_hal_pwr_ex.c ****   assert_param(IS_PWR_GPIO(GPIO));
ARM GAS  /tmp/ccMFwPRI.s 			page 25


 799              		.loc 1 555 3 view .LVU176
 556:../Resources/Drivers/STM32L4xx_HAL_Driver/Src/stm32l4xx_hal_pwr_ex.c ****   assert_param(IS_PWR_GPIO_BIT_NUMBER(GPIONumber));
 800              		.loc 1 556 3 view .LVU177
 557:../Resources/Drivers/STM32L4xx_HAL_Driver/Src/stm32l4xx_hal_pwr_ex.c **** 
 558:../Resources/Drivers/STM32L4xx_HAL_Driver/Src/stm32l4xx_hal_pwr_ex.c ****   switch (GPIO)
 801              		.loc 1 558 3 view .LVU178
 802 0000 0728     		cmp	r0, #7
 803 0002 5DD8     		bhi	.L79
 804 0004 DFE800F0 		tbb	[pc, r0]
 805              	.L71:
 806 0008 04       		.byte	(.L78-.L71)/2
 807 0009 12       		.byte	(.L77-.L71)/2
 808 000a 1E       		.byte	(.L76-.L71)/2
 809 000b 28       		.byte	(.L75-.L71)/2
 810 000c 32       		.byte	(.L74-.L71)/2
 811 000d 3C       		.byte	(.L73-.L71)/2
 812 000e 46       		.byte	(.L72-.L71)/2
 813 000f 50       		.byte	(.L70-.L71)/2
 814              		.p2align 1
 815              	.L78:
 559:../Resources/Drivers/STM32L4xx_HAL_Driver/Src/stm32l4xx_hal_pwr_ex.c ****   {
 560:../Resources/Drivers/STM32L4xx_HAL_Driver/Src/stm32l4xx_hal_pwr_ex.c ****     case PWR_GPIO_A:
 561:../Resources/Drivers/STM32L4xx_HAL_Driver/Src/stm32l4xx_hal_pwr_ex.c ****        SET_BIT(PWR->PDCRA, (GPIONumber & (~(PWR_GPIO_BIT_13|PWR_GPIO_BIT_15))));
 816              		.loc 1 561 8 view .LVU179
 817 0010 2C4B     		ldr	r3, .L80
 818 0012 5A6A     		ldr	r2, [r3, #36]
 819 0014 21F42040 		bic	r0, r1, #40960
 820              	.LVL67:
 821              		.loc 1 561 8 is_stmt 0 view .LVU180
 822 0018 0243     		orrs	r2, r2, r0
 823 001a 5A62     		str	r2, [r3, #36]
 562:../Resources/Drivers/STM32L4xx_HAL_Driver/Src/stm32l4xx_hal_pwr_ex.c ****        CLEAR_BIT(PWR->PUCRA, (GPIONumber & (~(PWR_GPIO_BIT_14))));
 824              		.loc 1 562 8 is_stmt 1 view .LVU181
 825 001c 1A6A     		ldr	r2, [r3, #32]
 826 001e 21F48041 		bic	r1, r1, #16384
 827              	.LVL68:
 828              		.loc 1 562 8 is_stmt 0 view .LVU182
 829 0022 22EA0101 		bic	r1, r2, r1
 830 0026 1962     		str	r1, [r3, #32]
 563:../Resources/Drivers/STM32L4xx_HAL_Driver/Src/stm32l4xx_hal_pwr_ex.c ****        break;
 831              		.loc 1 563 8 is_stmt 1 view .LVU183
 553:../Resources/Drivers/STM32L4xx_HAL_Driver/Src/stm32l4xx_hal_pwr_ex.c **** 
 832              		.loc 1 553 21 is_stmt 0 view .LVU184
 833 0028 0020     		movs	r0, #0
 834              		.loc 1 563 8 view .LVU185
 835 002a 7047     		bx	lr
 836              	.LVL69:
 837              	.L77:
 564:../Resources/Drivers/STM32L4xx_HAL_Driver/Src/stm32l4xx_hal_pwr_ex.c ****     case PWR_GPIO_B:
 565:../Resources/Drivers/STM32L4xx_HAL_Driver/Src/stm32l4xx_hal_pwr_ex.c ****        SET_BIT(PWR->PDCRB, (GPIONumber & (~(PWR_GPIO_BIT_4))));
 838              		.loc 1 565 8 is_stmt 1 view .LVU186
 839 002c 254B     		ldr	r3, .L80
 840 002e DA6A     		ldr	r2, [r3, #44]
 841 0030 21F01000 		bic	r0, r1, #16
 842              	.LVL70:
 843              		.loc 1 565 8 is_stmt 0 view .LVU187
 844 0034 0243     		orrs	r2, r2, r0
ARM GAS  /tmp/ccMFwPRI.s 			page 26


 845 0036 DA62     		str	r2, [r3, #44]
 566:../Resources/Drivers/STM32L4xx_HAL_Driver/Src/stm32l4xx_hal_pwr_ex.c ****        CLEAR_BIT(PWR->PUCRB, GPIONumber);
 846              		.loc 1 566 8 is_stmt 1 view .LVU188
 847 0038 9A6A     		ldr	r2, [r3, #40]
 848 003a 22EA0101 		bic	r1, r2, r1
 849              	.LVL71:
 850              		.loc 1 566 8 is_stmt 0 view .LVU189
 851 003e 9962     		str	r1, [r3, #40]
 567:../Resources/Drivers/STM32L4xx_HAL_Driver/Src/stm32l4xx_hal_pwr_ex.c ****        break;
 852              		.loc 1 567 8 is_stmt 1 view .LVU190
 553:../Resources/Drivers/STM32L4xx_HAL_Driver/Src/stm32l4xx_hal_pwr_ex.c **** 
 853              		.loc 1 553 21 is_stmt 0 view .LVU191
 854 0040 0020     		movs	r0, #0
 855              		.loc 1 567 8 view .LVU192
 856 0042 7047     		bx	lr
 857              	.LVL72:
 858              	.L76:
 568:../Resources/Drivers/STM32L4xx_HAL_Driver/Src/stm32l4xx_hal_pwr_ex.c ****     case PWR_GPIO_C:
 569:../Resources/Drivers/STM32L4xx_HAL_Driver/Src/stm32l4xx_hal_pwr_ex.c ****        SET_BIT(PWR->PDCRC, GPIONumber);
 859              		.loc 1 569 8 is_stmt 1 view .LVU193
 860 0044 1F4B     		ldr	r3, .L80
 861 0046 5A6B     		ldr	r2, [r3, #52]
 862 0048 0A43     		orrs	r2, r2, r1
 863 004a 5A63     		str	r2, [r3, #52]
 570:../Resources/Drivers/STM32L4xx_HAL_Driver/Src/stm32l4xx_hal_pwr_ex.c ****        CLEAR_BIT(PWR->PUCRC, GPIONumber);
 864              		.loc 1 570 8 view .LVU194
 865 004c 1A6B     		ldr	r2, [r3, #48]
 866 004e 22EA0101 		bic	r1, r2, r1
 867              	.LVL73:
 868              		.loc 1 570 8 is_stmt 0 view .LVU195
 869 0052 1963     		str	r1, [r3, #48]
 571:../Resources/Drivers/STM32L4xx_HAL_Driver/Src/stm32l4xx_hal_pwr_ex.c ****        break;
 870              		.loc 1 571 8 is_stmt 1 view .LVU196
 553:../Resources/Drivers/STM32L4xx_HAL_Driver/Src/stm32l4xx_hal_pwr_ex.c **** 
 871              		.loc 1 553 21 is_stmt 0 view .LVU197
 872 0054 0020     		movs	r0, #0
 873              	.LVL74:
 874              		.loc 1 571 8 view .LVU198
 875 0056 7047     		bx	lr
 876              	.LVL75:
 877              	.L75:
 572:../Resources/Drivers/STM32L4xx_HAL_Driver/Src/stm32l4xx_hal_pwr_ex.c **** #if defined(GPIOD)
 573:../Resources/Drivers/STM32L4xx_HAL_Driver/Src/stm32l4xx_hal_pwr_ex.c ****     case PWR_GPIO_D:
 574:../Resources/Drivers/STM32L4xx_HAL_Driver/Src/stm32l4xx_hal_pwr_ex.c ****        SET_BIT(PWR->PDCRD, GPIONumber);
 878              		.loc 1 574 8 is_stmt 1 view .LVU199
 879 0058 1A4B     		ldr	r3, .L80
 880 005a DA6B     		ldr	r2, [r3, #60]
 881 005c 0A43     		orrs	r2, r2, r1
 882 005e DA63     		str	r2, [r3, #60]
 575:../Resources/Drivers/STM32L4xx_HAL_Driver/Src/stm32l4xx_hal_pwr_ex.c ****        CLEAR_BIT(PWR->PUCRD, GPIONumber);
 883              		.loc 1 575 8 view .LVU200
 884 0060 9A6B     		ldr	r2, [r3, #56]
 885 0062 22EA0101 		bic	r1, r2, r1
 886              	.LVL76:
 887              		.loc 1 575 8 is_stmt 0 view .LVU201
 888 0066 9963     		str	r1, [r3, #56]
 576:../Resources/Drivers/STM32L4xx_HAL_Driver/Src/stm32l4xx_hal_pwr_ex.c ****        break;
ARM GAS  /tmp/ccMFwPRI.s 			page 27


 889              		.loc 1 576 8 is_stmt 1 view .LVU202
 553:../Resources/Drivers/STM32L4xx_HAL_Driver/Src/stm32l4xx_hal_pwr_ex.c **** 
 890              		.loc 1 553 21 is_stmt 0 view .LVU203
 891 0068 0020     		movs	r0, #0
 892              	.LVL77:
 893              		.loc 1 576 8 view .LVU204
 894 006a 7047     		bx	lr
 895              	.LVL78:
 896              	.L74:
 577:../Resources/Drivers/STM32L4xx_HAL_Driver/Src/stm32l4xx_hal_pwr_ex.c **** #endif
 578:../Resources/Drivers/STM32L4xx_HAL_Driver/Src/stm32l4xx_hal_pwr_ex.c **** #if defined(GPIOE)
 579:../Resources/Drivers/STM32L4xx_HAL_Driver/Src/stm32l4xx_hal_pwr_ex.c ****     case PWR_GPIO_E:
 580:../Resources/Drivers/STM32L4xx_HAL_Driver/Src/stm32l4xx_hal_pwr_ex.c ****        SET_BIT(PWR->PDCRE, GPIONumber);
 897              		.loc 1 580 8 is_stmt 1 view .LVU205
 898 006c 154B     		ldr	r3, .L80
 899 006e 5A6C     		ldr	r2, [r3, #68]
 900 0070 0A43     		orrs	r2, r2, r1
 901 0072 5A64     		str	r2, [r3, #68]
 581:../Resources/Drivers/STM32L4xx_HAL_Driver/Src/stm32l4xx_hal_pwr_ex.c ****        CLEAR_BIT(PWR->PUCRE, GPIONumber);
 902              		.loc 1 581 8 view .LVU206
 903 0074 1A6C     		ldr	r2, [r3, #64]
 904 0076 22EA0101 		bic	r1, r2, r1
 905              	.LVL79:
 906              		.loc 1 581 8 is_stmt 0 view .LVU207
 907 007a 1964     		str	r1, [r3, #64]
 582:../Resources/Drivers/STM32L4xx_HAL_Driver/Src/stm32l4xx_hal_pwr_ex.c ****        break;
 908              		.loc 1 582 8 is_stmt 1 view .LVU208
 553:../Resources/Drivers/STM32L4xx_HAL_Driver/Src/stm32l4xx_hal_pwr_ex.c **** 
 909              		.loc 1 553 21 is_stmt 0 view .LVU209
 910 007c 0020     		movs	r0, #0
 911              	.LVL80:
 912              		.loc 1 582 8 view .LVU210
 913 007e 7047     		bx	lr
 914              	.LVL81:
 915              	.L73:
 583:../Resources/Drivers/STM32L4xx_HAL_Driver/Src/stm32l4xx_hal_pwr_ex.c **** #endif
 584:../Resources/Drivers/STM32L4xx_HAL_Driver/Src/stm32l4xx_hal_pwr_ex.c **** #if defined(GPIOF)
 585:../Resources/Drivers/STM32L4xx_HAL_Driver/Src/stm32l4xx_hal_pwr_ex.c ****     case PWR_GPIO_F:
 586:../Resources/Drivers/STM32L4xx_HAL_Driver/Src/stm32l4xx_hal_pwr_ex.c ****        SET_BIT(PWR->PDCRF, GPIONumber);
 916              		.loc 1 586 8 is_stmt 1 view .LVU211
 917 0080 104B     		ldr	r3, .L80
 918 0082 DA6C     		ldr	r2, [r3, #76]
 919 0084 0A43     		orrs	r2, r2, r1
 920 0086 DA64     		str	r2, [r3, #76]
 587:../Resources/Drivers/STM32L4xx_HAL_Driver/Src/stm32l4xx_hal_pwr_ex.c ****        CLEAR_BIT(PWR->PUCRF, GPIONumber);
 921              		.loc 1 587 8 view .LVU212
 922 0088 9A6C     		ldr	r2, [r3, #72]
 923 008a 22EA0101 		bic	r1, r2, r1
 924              	.LVL82:
 925              		.loc 1 587 8 is_stmt 0 view .LVU213
 926 008e 9964     		str	r1, [r3, #72]
 588:../Resources/Drivers/STM32L4xx_HAL_Driver/Src/stm32l4xx_hal_pwr_ex.c ****        break;
 927              		.loc 1 588 8 is_stmt 1 view .LVU214
 553:../Resources/Drivers/STM32L4xx_HAL_Driver/Src/stm32l4xx_hal_pwr_ex.c **** 
 928              		.loc 1 553 21 is_stmt 0 view .LVU215
 929 0090 0020     		movs	r0, #0
 930              	.LVL83:
ARM GAS  /tmp/ccMFwPRI.s 			page 28


 931              		.loc 1 588 8 view .LVU216
 932 0092 7047     		bx	lr
 933              	.LVL84:
 934              	.L72:
 589:../Resources/Drivers/STM32L4xx_HAL_Driver/Src/stm32l4xx_hal_pwr_ex.c **** #endif
 590:../Resources/Drivers/STM32L4xx_HAL_Driver/Src/stm32l4xx_hal_pwr_ex.c **** #if defined(GPIOG)
 591:../Resources/Drivers/STM32L4xx_HAL_Driver/Src/stm32l4xx_hal_pwr_ex.c ****     case PWR_GPIO_G:
 592:../Resources/Drivers/STM32L4xx_HAL_Driver/Src/stm32l4xx_hal_pwr_ex.c ****        SET_BIT(PWR->PDCRG, GPIONumber);
 935              		.loc 1 592 8 is_stmt 1 view .LVU217
 936 0094 0B4B     		ldr	r3, .L80
 937 0096 5A6D     		ldr	r2, [r3, #84]
 938 0098 0A43     		orrs	r2, r2, r1
 939 009a 5A65     		str	r2, [r3, #84]
 593:../Resources/Drivers/STM32L4xx_HAL_Driver/Src/stm32l4xx_hal_pwr_ex.c ****        CLEAR_BIT(PWR->PUCRG, GPIONumber);
 940              		.loc 1 593 8 view .LVU218
 941 009c 1A6D     		ldr	r2, [r3, #80]
 942 009e 22EA0101 		bic	r1, r2, r1
 943              	.LVL85:
 944              		.loc 1 593 8 is_stmt 0 view .LVU219
 945 00a2 1965     		str	r1, [r3, #80]
 594:../Resources/Drivers/STM32L4xx_HAL_Driver/Src/stm32l4xx_hal_pwr_ex.c ****        break;
 946              		.loc 1 594 8 is_stmt 1 view .LVU220
 553:../Resources/Drivers/STM32L4xx_HAL_Driver/Src/stm32l4xx_hal_pwr_ex.c **** 
 947              		.loc 1 553 21 is_stmt 0 view .LVU221
 948 00a4 0020     		movs	r0, #0
 949              	.LVL86:
 950              		.loc 1 594 8 view .LVU222
 951 00a6 7047     		bx	lr
 952              	.LVL87:
 953              	.L70:
 595:../Resources/Drivers/STM32L4xx_HAL_Driver/Src/stm32l4xx_hal_pwr_ex.c **** #endif
 596:../Resources/Drivers/STM32L4xx_HAL_Driver/Src/stm32l4xx_hal_pwr_ex.c ****     case PWR_GPIO_H:
 597:../Resources/Drivers/STM32L4xx_HAL_Driver/Src/stm32l4xx_hal_pwr_ex.c **** #if defined (STM32L496xx) || defined (STM32L4A6xx)
 598:../Resources/Drivers/STM32L4xx_HAL_Driver/Src/stm32l4xx_hal_pwr_ex.c ****        SET_BIT(PWR->PDCRH, ((GPIONumber & PWR_PORTH_AVAILABLE_PINS) & (~(PWR_GPIO_BIT_3))));
 599:../Resources/Drivers/STM32L4xx_HAL_Driver/Src/stm32l4xx_hal_pwr_ex.c **** #else
 600:../Resources/Drivers/STM32L4xx_HAL_Driver/Src/stm32l4xx_hal_pwr_ex.c ****        SET_BIT(PWR->PDCRH, (GPIONumber & PWR_PORTH_AVAILABLE_PINS));
 954              		.loc 1 600 8 is_stmt 1 view .LVU223
 955 00a8 064B     		ldr	r3, .L80
 956 00aa DA6D     		ldr	r2, [r3, #92]
 957 00ac 01F00301 		and	r1, r1, #3
 958              	.LVL88:
 959              		.loc 1 600 8 is_stmt 0 view .LVU224
 960 00b0 0A43     		orrs	r2, r2, r1
 961 00b2 DA65     		str	r2, [r3, #92]
 601:../Resources/Drivers/STM32L4xx_HAL_Driver/Src/stm32l4xx_hal_pwr_ex.c **** #endif
 602:../Resources/Drivers/STM32L4xx_HAL_Driver/Src/stm32l4xx_hal_pwr_ex.c ****        CLEAR_BIT(PWR->PUCRH, (GPIONumber & PWR_PORTH_AVAILABLE_PINS));
 962              		.loc 1 602 8 is_stmt 1 view .LVU225
 963 00b4 9A6D     		ldr	r2, [r3, #88]
 964 00b6 22EA0101 		bic	r1, r2, r1
 965 00ba 9965     		str	r1, [r3, #88]
 603:../Resources/Drivers/STM32L4xx_HAL_Driver/Src/stm32l4xx_hal_pwr_ex.c ****        break;
 966              		.loc 1 603 8 view .LVU226
 553:../Resources/Drivers/STM32L4xx_HAL_Driver/Src/stm32l4xx_hal_pwr_ex.c **** 
 967              		.loc 1 553 21 is_stmt 0 view .LVU227
 968 00bc 0020     		movs	r0, #0
 969              	.LVL89:
 970              		.loc 1 603 8 view .LVU228
ARM GAS  /tmp/ccMFwPRI.s 			page 29


 971 00be 7047     		bx	lr
 972              	.LVL90:
 973              	.L79:
 558:../Resources/Drivers/STM32L4xx_HAL_Driver/Src/stm32l4xx_hal_pwr_ex.c ****   {
 974              		.loc 1 558 3 view .LVU229
 975 00c0 0120     		movs	r0, #1
 976              	.LVL91:
 604:../Resources/Drivers/STM32L4xx_HAL_Driver/Src/stm32l4xx_hal_pwr_ex.c **** #if defined(GPIOI)
 605:../Resources/Drivers/STM32L4xx_HAL_Driver/Src/stm32l4xx_hal_pwr_ex.c ****     case PWR_GPIO_I:
 606:../Resources/Drivers/STM32L4xx_HAL_Driver/Src/stm32l4xx_hal_pwr_ex.c ****        SET_BIT(PWR->PDCRI, (GPIONumber & PWR_PORTI_AVAILABLE_PINS));
 607:../Resources/Drivers/STM32L4xx_HAL_Driver/Src/stm32l4xx_hal_pwr_ex.c ****        CLEAR_BIT(PWR->PUCRI, (GPIONumber & PWR_PORTI_AVAILABLE_PINS));
 608:../Resources/Drivers/STM32L4xx_HAL_Driver/Src/stm32l4xx_hal_pwr_ex.c ****        break;
 609:../Resources/Drivers/STM32L4xx_HAL_Driver/Src/stm32l4xx_hal_pwr_ex.c **** #endif
 610:../Resources/Drivers/STM32L4xx_HAL_Driver/Src/stm32l4xx_hal_pwr_ex.c ****     default:
 611:../Resources/Drivers/STM32L4xx_HAL_Driver/Src/stm32l4xx_hal_pwr_ex.c ****       status = HAL_ERROR;
 612:../Resources/Drivers/STM32L4xx_HAL_Driver/Src/stm32l4xx_hal_pwr_ex.c ****       break;
 613:../Resources/Drivers/STM32L4xx_HAL_Driver/Src/stm32l4xx_hal_pwr_ex.c ****   }
 614:../Resources/Drivers/STM32L4xx_HAL_Driver/Src/stm32l4xx_hal_pwr_ex.c **** 
 615:../Resources/Drivers/STM32L4xx_HAL_Driver/Src/stm32l4xx_hal_pwr_ex.c ****   return status;
 977              		.loc 1 615 3 is_stmt 1 view .LVU230
 616:../Resources/Drivers/STM32L4xx_HAL_Driver/Src/stm32l4xx_hal_pwr_ex.c **** }
 978              		.loc 1 616 1 is_stmt 0 view .LVU231
 979 00c2 7047     		bx	lr
 980              	.L81:
 981              		.align	2
 982              	.L80:
 983 00c4 00700040 		.word	1073770496
 984              		.cfi_endproc
 985              	.LFE144:
 987              		.section	.text.HAL_PWREx_DisableGPIOPullDown,"ax",%progbits
 988              		.align	1
 989              		.global	HAL_PWREx_DisableGPIOPullDown
 990              		.syntax unified
 991              		.thumb
 992              		.thumb_func
 994              	HAL_PWREx_DisableGPIOPullDown:
 995              	.LVL92:
 996              	.LFB145:
 617:../Resources/Drivers/STM32L4xx_HAL_Driver/Src/stm32l4xx_hal_pwr_ex.c **** 
 618:../Resources/Drivers/STM32L4xx_HAL_Driver/Src/stm32l4xx_hal_pwr_ex.c **** 
 619:../Resources/Drivers/STM32L4xx_HAL_Driver/Src/stm32l4xx_hal_pwr_ex.c **** /**
 620:../Resources/Drivers/STM32L4xx_HAL_Driver/Src/stm32l4xx_hal_pwr_ex.c ****   * @brief Disable GPIO pull-down state in Standby and Shutdown modes.
 621:../Resources/Drivers/STM32L4xx_HAL_Driver/Src/stm32l4xx_hal_pwr_ex.c ****   * @note  Reset the relevant PDy bits of PWR_PDCRx register used to configure the I/O
 622:../Resources/Drivers/STM32L4xx_HAL_Driver/Src/stm32l4xx_hal_pwr_ex.c ****   *        in pull-down state in Standby and Shutdown modes.
 623:../Resources/Drivers/STM32L4xx_HAL_Driver/Src/stm32l4xx_hal_pwr_ex.c ****   * @note  Even if a PDy bit to reset is reserved, the other PDy bits entered as input
 624:../Resources/Drivers/STM32L4xx_HAL_Driver/Src/stm32l4xx_hal_pwr_ex.c ****   *        parameter at the same time are reset.
 625:../Resources/Drivers/STM32L4xx_HAL_Driver/Src/stm32l4xx_hal_pwr_ex.c ****   * @param  GPIO Specifies the IO port. This parameter can be PWR_GPIO_A..PWR_GPIO_H
 626:../Resources/Drivers/STM32L4xx_HAL_Driver/Src/stm32l4xx_hal_pwr_ex.c ****   *         (or PWR_GPIO_I depending on the devices) to select the GPIO peripheral.
 627:../Resources/Drivers/STM32L4xx_HAL_Driver/Src/stm32l4xx_hal_pwr_ex.c ****   * @param  GPIONumber Specify the I/O pins numbers.
 628:../Resources/Drivers/STM32L4xx_HAL_Driver/Src/stm32l4xx_hal_pwr_ex.c ****   *         This parameter can be one of the following values:
 629:../Resources/Drivers/STM32L4xx_HAL_Driver/Src/stm32l4xx_hal_pwr_ex.c ****   *         PWR_GPIO_BIT_0, ..., PWR_GPIO_BIT_15 (except for the port where less
 630:../Resources/Drivers/STM32L4xx_HAL_Driver/Src/stm32l4xx_hal_pwr_ex.c ****   *         I/O pins are available) or the logical OR of several of them to reset
 631:../Resources/Drivers/STM32L4xx_HAL_Driver/Src/stm32l4xx_hal_pwr_ex.c ****   *         several bits for a given port in a single API call.
 632:../Resources/Drivers/STM32L4xx_HAL_Driver/Src/stm32l4xx_hal_pwr_ex.c ****   * @retval HAL Status
 633:../Resources/Drivers/STM32L4xx_HAL_Driver/Src/stm32l4xx_hal_pwr_ex.c ****   */
 634:../Resources/Drivers/STM32L4xx_HAL_Driver/Src/stm32l4xx_hal_pwr_ex.c **** HAL_StatusTypeDef HAL_PWREx_DisableGPIOPullDown(uint32_t GPIO, uint32_t GPIONumber)
 635:../Resources/Drivers/STM32L4xx_HAL_Driver/Src/stm32l4xx_hal_pwr_ex.c **** {
ARM GAS  /tmp/ccMFwPRI.s 			page 30


 997              		.loc 1 635 1 is_stmt 1 view -0
 998              		.cfi_startproc
 999              		@ args = 0, pretend = 0, frame = 0
 1000              		@ frame_needed = 0, uses_anonymous_args = 0
 1001              		@ link register save eliminated.
 636:../Resources/Drivers/STM32L4xx_HAL_Driver/Src/stm32l4xx_hal_pwr_ex.c ****   HAL_StatusTypeDef status = HAL_OK;
 1002              		.loc 1 636 3 view .LVU233
 637:../Resources/Drivers/STM32L4xx_HAL_Driver/Src/stm32l4xx_hal_pwr_ex.c **** 
 638:../Resources/Drivers/STM32L4xx_HAL_Driver/Src/stm32l4xx_hal_pwr_ex.c ****   assert_param(IS_PWR_GPIO(GPIO));
 1003              		.loc 1 638 3 view .LVU234
 639:../Resources/Drivers/STM32L4xx_HAL_Driver/Src/stm32l4xx_hal_pwr_ex.c ****   assert_param(IS_PWR_GPIO_BIT_NUMBER(GPIONumber));
 1004              		.loc 1 639 3 view .LVU235
 640:../Resources/Drivers/STM32L4xx_HAL_Driver/Src/stm32l4xx_hal_pwr_ex.c **** 
 641:../Resources/Drivers/STM32L4xx_HAL_Driver/Src/stm32l4xx_hal_pwr_ex.c ****   switch (GPIO)
 1005              		.loc 1 641 3 view .LVU236
 1006 0000 0728     		cmp	r0, #7
 1007 0002 43D8     		bhi	.L93
 1008 0004 DFE800F0 		tbb	[pc, r0]
 1009              	.L85:
 1010 0008 04       		.byte	(.L92-.L85)/2
 1011 0009 0D       		.byte	(.L91-.L85)/2
 1012 000a 16       		.byte	(.L90-.L85)/2
 1013 000b 1D       		.byte	(.L89-.L85)/2
 1014 000c 24       		.byte	(.L88-.L85)/2
 1015 000d 2B       		.byte	(.L87-.L85)/2
 1016 000e 32       		.byte	(.L86-.L85)/2
 1017 000f 39       		.byte	(.L84-.L85)/2
 1018              		.p2align 1
 1019              	.L92:
 642:../Resources/Drivers/STM32L4xx_HAL_Driver/Src/stm32l4xx_hal_pwr_ex.c ****   {
 643:../Resources/Drivers/STM32L4xx_HAL_Driver/Src/stm32l4xx_hal_pwr_ex.c ****     case PWR_GPIO_A:
 644:../Resources/Drivers/STM32L4xx_HAL_Driver/Src/stm32l4xx_hal_pwr_ex.c ****        CLEAR_BIT(PWR->PDCRA, (GPIONumber & (~(PWR_GPIO_BIT_13|PWR_GPIO_BIT_15))));
 1020              		.loc 1 644 8 view .LVU237
 1021 0010 1F4A     		ldr	r2, .L94
 1022 0012 536A     		ldr	r3, [r2, #36]
 1023 0014 21F42041 		bic	r1, r1, #40960
 1024              	.LVL93:
 1025              		.loc 1 644 8 is_stmt 0 view .LVU238
 1026 0018 23EA0101 		bic	r1, r3, r1
 1027 001c 5162     		str	r1, [r2, #36]
 645:../Resources/Drivers/STM32L4xx_HAL_Driver/Src/stm32l4xx_hal_pwr_ex.c ****        break;
 1028              		.loc 1 645 8 is_stmt 1 view .LVU239
 636:../Resources/Drivers/STM32L4xx_HAL_Driver/Src/stm32l4xx_hal_pwr_ex.c **** 
 1029              		.loc 1 636 21 is_stmt 0 view .LVU240
 1030 001e 0020     		movs	r0, #0
 1031              	.LVL94:
 1032              		.loc 1 645 8 view .LVU241
 1033 0020 7047     		bx	lr
 1034              	.LVL95:
 1035              	.L91:
 646:../Resources/Drivers/STM32L4xx_HAL_Driver/Src/stm32l4xx_hal_pwr_ex.c ****     case PWR_GPIO_B:
 647:../Resources/Drivers/STM32L4xx_HAL_Driver/Src/stm32l4xx_hal_pwr_ex.c ****        CLEAR_BIT(PWR->PDCRB, (GPIONumber & (~(PWR_GPIO_BIT_4))));
 1036              		.loc 1 647 8 is_stmt 1 view .LVU242
 1037 0022 1B4A     		ldr	r2, .L94
 1038 0024 D36A     		ldr	r3, [r2, #44]
 1039 0026 21F01001 		bic	r1, r1, #16
 1040              	.LVL96:
ARM GAS  /tmp/ccMFwPRI.s 			page 31


 1041              		.loc 1 647 8 is_stmt 0 view .LVU243
 1042 002a 23EA0101 		bic	r1, r3, r1
 1043 002e D162     		str	r1, [r2, #44]
 648:../Resources/Drivers/STM32L4xx_HAL_Driver/Src/stm32l4xx_hal_pwr_ex.c ****        break;
 1044              		.loc 1 648 8 is_stmt 1 view .LVU244
 636:../Resources/Drivers/STM32L4xx_HAL_Driver/Src/stm32l4xx_hal_pwr_ex.c **** 
 1045              		.loc 1 636 21 is_stmt 0 view .LVU245
 1046 0030 0020     		movs	r0, #0
 1047              	.LVL97:
 1048              		.loc 1 648 8 view .LVU246
 1049 0032 7047     		bx	lr
 1050              	.LVL98:
 1051              	.L90:
 649:../Resources/Drivers/STM32L4xx_HAL_Driver/Src/stm32l4xx_hal_pwr_ex.c ****     case PWR_GPIO_C:
 650:../Resources/Drivers/STM32L4xx_HAL_Driver/Src/stm32l4xx_hal_pwr_ex.c ****        CLEAR_BIT(PWR->PDCRC, GPIONumber);
 1052              		.loc 1 650 8 is_stmt 1 view .LVU247
 1053 0034 164A     		ldr	r2, .L94
 1054 0036 536B     		ldr	r3, [r2, #52]
 1055 0038 23EA0101 		bic	r1, r3, r1
 1056              	.LVL99:
 1057              		.loc 1 650 8 is_stmt 0 view .LVU248
 1058 003c 5163     		str	r1, [r2, #52]
 651:../Resources/Drivers/STM32L4xx_HAL_Driver/Src/stm32l4xx_hal_pwr_ex.c ****        break;
 1059              		.loc 1 651 8 is_stmt 1 view .LVU249
 636:../Resources/Drivers/STM32L4xx_HAL_Driver/Src/stm32l4xx_hal_pwr_ex.c **** 
 1060              		.loc 1 636 21 is_stmt 0 view .LVU250
 1061 003e 0020     		movs	r0, #0
 1062              	.LVL100:
 1063              		.loc 1 651 8 view .LVU251
 1064 0040 7047     		bx	lr
 1065              	.LVL101:
 1066              	.L89:
 652:../Resources/Drivers/STM32L4xx_HAL_Driver/Src/stm32l4xx_hal_pwr_ex.c **** #if defined(GPIOD)
 653:../Resources/Drivers/STM32L4xx_HAL_Driver/Src/stm32l4xx_hal_pwr_ex.c ****     case PWR_GPIO_D:
 654:../Resources/Drivers/STM32L4xx_HAL_Driver/Src/stm32l4xx_hal_pwr_ex.c ****        CLEAR_BIT(PWR->PDCRD, GPIONumber);
 1067              		.loc 1 654 8 is_stmt 1 view .LVU252
 1068 0042 134A     		ldr	r2, .L94
 1069 0044 D36B     		ldr	r3, [r2, #60]
 1070 0046 23EA0101 		bic	r1, r3, r1
 1071              	.LVL102:
 1072              		.loc 1 654 8 is_stmt 0 view .LVU253
 1073 004a D163     		str	r1, [r2, #60]
 655:../Resources/Drivers/STM32L4xx_HAL_Driver/Src/stm32l4xx_hal_pwr_ex.c ****        break;
 1074              		.loc 1 655 8 is_stmt 1 view .LVU254
 636:../Resources/Drivers/STM32L4xx_HAL_Driver/Src/stm32l4xx_hal_pwr_ex.c **** 
 1075              		.loc 1 636 21 is_stmt 0 view .LVU255
 1076 004c 0020     		movs	r0, #0
 1077              	.LVL103:
 1078              		.loc 1 655 8 view .LVU256
 1079 004e 7047     		bx	lr
 1080              	.LVL104:
 1081              	.L88:
 656:../Resources/Drivers/STM32L4xx_HAL_Driver/Src/stm32l4xx_hal_pwr_ex.c **** #endif
 657:../Resources/Drivers/STM32L4xx_HAL_Driver/Src/stm32l4xx_hal_pwr_ex.c **** #if defined(GPIOE)
 658:../Resources/Drivers/STM32L4xx_HAL_Driver/Src/stm32l4xx_hal_pwr_ex.c ****     case PWR_GPIO_E:
 659:../Resources/Drivers/STM32L4xx_HAL_Driver/Src/stm32l4xx_hal_pwr_ex.c ****        CLEAR_BIT(PWR->PDCRE, GPIONumber);
 1082              		.loc 1 659 8 is_stmt 1 view .LVU257
ARM GAS  /tmp/ccMFwPRI.s 			page 32


 1083 0050 0F4A     		ldr	r2, .L94
 1084 0052 536C     		ldr	r3, [r2, #68]
 1085 0054 23EA0101 		bic	r1, r3, r1
 1086              	.LVL105:
 1087              		.loc 1 659 8 is_stmt 0 view .LVU258
 1088 0058 5164     		str	r1, [r2, #68]
 660:../Resources/Drivers/STM32L4xx_HAL_Driver/Src/stm32l4xx_hal_pwr_ex.c ****        break;
 1089              		.loc 1 660 8 is_stmt 1 view .LVU259
 636:../Resources/Drivers/STM32L4xx_HAL_Driver/Src/stm32l4xx_hal_pwr_ex.c **** 
 1090              		.loc 1 636 21 is_stmt 0 view .LVU260
 1091 005a 0020     		movs	r0, #0
 1092              	.LVL106:
 1093              		.loc 1 660 8 view .LVU261
 1094 005c 7047     		bx	lr
 1095              	.LVL107:
 1096              	.L87:
 661:../Resources/Drivers/STM32L4xx_HAL_Driver/Src/stm32l4xx_hal_pwr_ex.c **** #endif
 662:../Resources/Drivers/STM32L4xx_HAL_Driver/Src/stm32l4xx_hal_pwr_ex.c **** #if defined(GPIOF)
 663:../Resources/Drivers/STM32L4xx_HAL_Driver/Src/stm32l4xx_hal_pwr_ex.c ****     case PWR_GPIO_F:
 664:../Resources/Drivers/STM32L4xx_HAL_Driver/Src/stm32l4xx_hal_pwr_ex.c ****        CLEAR_BIT(PWR->PDCRF, GPIONumber);
 1097              		.loc 1 664 8 is_stmt 1 view .LVU262
 1098 005e 0C4A     		ldr	r2, .L94
 1099 0060 D36C     		ldr	r3, [r2, #76]
 1100 0062 23EA0101 		bic	r1, r3, r1
 1101              	.LVL108:
 1102              		.loc 1 664 8 is_stmt 0 view .LVU263
 1103 0066 D164     		str	r1, [r2, #76]
 665:../Resources/Drivers/STM32L4xx_HAL_Driver/Src/stm32l4xx_hal_pwr_ex.c ****        break;
 1104              		.loc 1 665 8 is_stmt 1 view .LVU264
 636:../Resources/Drivers/STM32L4xx_HAL_Driver/Src/stm32l4xx_hal_pwr_ex.c **** 
 1105              		.loc 1 636 21 is_stmt 0 view .LVU265
 1106 0068 0020     		movs	r0, #0
 1107              	.LVL109:
 1108              		.loc 1 665 8 view .LVU266
 1109 006a 7047     		bx	lr
 1110              	.LVL110:
 1111              	.L86:
 666:../Resources/Drivers/STM32L4xx_HAL_Driver/Src/stm32l4xx_hal_pwr_ex.c **** #endif
 667:../Resources/Drivers/STM32L4xx_HAL_Driver/Src/stm32l4xx_hal_pwr_ex.c **** #if defined(GPIOG)
 668:../Resources/Drivers/STM32L4xx_HAL_Driver/Src/stm32l4xx_hal_pwr_ex.c ****     case PWR_GPIO_G:
 669:../Resources/Drivers/STM32L4xx_HAL_Driver/Src/stm32l4xx_hal_pwr_ex.c ****        CLEAR_BIT(PWR->PDCRG, GPIONumber);
 1112              		.loc 1 669 8 is_stmt 1 view .LVU267
 1113 006c 084A     		ldr	r2, .L94
 1114 006e 536D     		ldr	r3, [r2, #84]
 1115 0070 23EA0101 		bic	r1, r3, r1
 1116              	.LVL111:
 1117              		.loc 1 669 8 is_stmt 0 view .LVU268
 1118 0074 5165     		str	r1, [r2, #84]
 670:../Resources/Drivers/STM32L4xx_HAL_Driver/Src/stm32l4xx_hal_pwr_ex.c ****        break;
 1119              		.loc 1 670 8 is_stmt 1 view .LVU269
 636:../Resources/Drivers/STM32L4xx_HAL_Driver/Src/stm32l4xx_hal_pwr_ex.c **** 
 1120              		.loc 1 636 21 is_stmt 0 view .LVU270
 1121 0076 0020     		movs	r0, #0
 1122              	.LVL112:
 1123              		.loc 1 670 8 view .LVU271
 1124 0078 7047     		bx	lr
 1125              	.LVL113:
ARM GAS  /tmp/ccMFwPRI.s 			page 33


 1126              	.L84:
 671:../Resources/Drivers/STM32L4xx_HAL_Driver/Src/stm32l4xx_hal_pwr_ex.c **** #endif
 672:../Resources/Drivers/STM32L4xx_HAL_Driver/Src/stm32l4xx_hal_pwr_ex.c ****     case PWR_GPIO_H:
 673:../Resources/Drivers/STM32L4xx_HAL_Driver/Src/stm32l4xx_hal_pwr_ex.c **** #if defined (STM32L496xx) || defined (STM32L4A6xx)
 674:../Resources/Drivers/STM32L4xx_HAL_Driver/Src/stm32l4xx_hal_pwr_ex.c ****        CLEAR_BIT(PWR->PDCRH, ((GPIONumber & PWR_PORTH_AVAILABLE_PINS) & (~(PWR_GPIO_BIT_3))));
 675:../Resources/Drivers/STM32L4xx_HAL_Driver/Src/stm32l4xx_hal_pwr_ex.c **** #else
 676:../Resources/Drivers/STM32L4xx_HAL_Driver/Src/stm32l4xx_hal_pwr_ex.c ****        CLEAR_BIT(PWR->PDCRH, (GPIONumber & PWR_PORTH_AVAILABLE_PINS));
 1127              		.loc 1 676 8 is_stmt 1 view .LVU272
 1128 007a 054A     		ldr	r2, .L94
 1129 007c D36D     		ldr	r3, [r2, #92]
 1130 007e 01F00301 		and	r1, r1, #3
 1131              	.LVL114:
 1132              		.loc 1 676 8 is_stmt 0 view .LVU273
 1133 0082 23EA0101 		bic	r1, r3, r1
 1134 0086 D165     		str	r1, [r2, #92]
 677:../Resources/Drivers/STM32L4xx_HAL_Driver/Src/stm32l4xx_hal_pwr_ex.c **** #endif
 678:../Resources/Drivers/STM32L4xx_HAL_Driver/Src/stm32l4xx_hal_pwr_ex.c ****        break;
 1135              		.loc 1 678 8 is_stmt 1 view .LVU274
 636:../Resources/Drivers/STM32L4xx_HAL_Driver/Src/stm32l4xx_hal_pwr_ex.c **** 
 1136              		.loc 1 636 21 is_stmt 0 view .LVU275
 1137 0088 0020     		movs	r0, #0
 1138              	.LVL115:
 1139              		.loc 1 678 8 view .LVU276
 1140 008a 7047     		bx	lr
 1141              	.LVL116:
 1142              	.L93:
 641:../Resources/Drivers/STM32L4xx_HAL_Driver/Src/stm32l4xx_hal_pwr_ex.c ****   {
 1143              		.loc 1 641 3 view .LVU277
 1144 008c 0120     		movs	r0, #1
 1145              	.LVL117:
 679:../Resources/Drivers/STM32L4xx_HAL_Driver/Src/stm32l4xx_hal_pwr_ex.c **** #if defined(GPIOI)
 680:../Resources/Drivers/STM32L4xx_HAL_Driver/Src/stm32l4xx_hal_pwr_ex.c ****     case PWR_GPIO_I:
 681:../Resources/Drivers/STM32L4xx_HAL_Driver/Src/stm32l4xx_hal_pwr_ex.c ****        CLEAR_BIT(PWR->PDCRI, (GPIONumber & PWR_PORTI_AVAILABLE_PINS));
 682:../Resources/Drivers/STM32L4xx_HAL_Driver/Src/stm32l4xx_hal_pwr_ex.c ****        break;
 683:../Resources/Drivers/STM32L4xx_HAL_Driver/Src/stm32l4xx_hal_pwr_ex.c **** #endif
 684:../Resources/Drivers/STM32L4xx_HAL_Driver/Src/stm32l4xx_hal_pwr_ex.c ****     default:
 685:../Resources/Drivers/STM32L4xx_HAL_Driver/Src/stm32l4xx_hal_pwr_ex.c ****       status = HAL_ERROR;
 686:../Resources/Drivers/STM32L4xx_HAL_Driver/Src/stm32l4xx_hal_pwr_ex.c ****       break;
 687:../Resources/Drivers/STM32L4xx_HAL_Driver/Src/stm32l4xx_hal_pwr_ex.c ****   }
 688:../Resources/Drivers/STM32L4xx_HAL_Driver/Src/stm32l4xx_hal_pwr_ex.c **** 
 689:../Resources/Drivers/STM32L4xx_HAL_Driver/Src/stm32l4xx_hal_pwr_ex.c ****   return status;
 1146              		.loc 1 689 3 is_stmt 1 view .LVU278
 690:../Resources/Drivers/STM32L4xx_HAL_Driver/Src/stm32l4xx_hal_pwr_ex.c **** }
 1147              		.loc 1 690 1 is_stmt 0 view .LVU279
 1148 008e 7047     		bx	lr
 1149              	.L95:
 1150              		.align	2
 1151              	.L94:
 1152 0090 00700040 		.word	1073770496
 1153              		.cfi_endproc
 1154              	.LFE145:
 1156              		.section	.text.HAL_PWREx_EnablePullUpPullDownConfig,"ax",%progbits
 1157              		.align	1
 1158              		.global	HAL_PWREx_EnablePullUpPullDownConfig
 1159              		.syntax unified
 1160              		.thumb
 1161              		.thumb_func
ARM GAS  /tmp/ccMFwPRI.s 			page 34


 1163              	HAL_PWREx_EnablePullUpPullDownConfig:
 1164              	.LFB146:
 691:../Resources/Drivers/STM32L4xx_HAL_Driver/Src/stm32l4xx_hal_pwr_ex.c **** 
 692:../Resources/Drivers/STM32L4xx_HAL_Driver/Src/stm32l4xx_hal_pwr_ex.c **** 
 693:../Resources/Drivers/STM32L4xx_HAL_Driver/Src/stm32l4xx_hal_pwr_ex.c **** 
 694:../Resources/Drivers/STM32L4xx_HAL_Driver/Src/stm32l4xx_hal_pwr_ex.c **** /**
 695:../Resources/Drivers/STM32L4xx_HAL_Driver/Src/stm32l4xx_hal_pwr_ex.c ****   * @brief Enable pull-up and pull-down configuration.
 696:../Resources/Drivers/STM32L4xx_HAL_Driver/Src/stm32l4xx_hal_pwr_ex.c ****   * @note  When APC bit is set, the I/O pull-up and pull-down configurations defined in
 697:../Resources/Drivers/STM32L4xx_HAL_Driver/Src/stm32l4xx_hal_pwr_ex.c ****   *        PWR_PUCRx and PWR_PDCRx registers are applied in Standby and Shutdown modes.
 698:../Resources/Drivers/STM32L4xx_HAL_Driver/Src/stm32l4xx_hal_pwr_ex.c ****   * @note  Pull-up set by PUy bit of PWR_PUCRx register is not activated if the corresponding
 699:../Resources/Drivers/STM32L4xx_HAL_Driver/Src/stm32l4xx_hal_pwr_ex.c ****   *        PDy bit of PWR_PDCRx register is also set (pull-down configuration priority is higher).
 700:../Resources/Drivers/STM32L4xx_HAL_Driver/Src/stm32l4xx_hal_pwr_ex.c ****   *        HAL_PWREx_EnableGPIOPullUp() and HAL_PWREx_EnableGPIOPullDown() API's ensure there
 701:../Resources/Drivers/STM32L4xx_HAL_Driver/Src/stm32l4xx_hal_pwr_ex.c ****   *        is no conflict when setting PUy or PDy bit.
 702:../Resources/Drivers/STM32L4xx_HAL_Driver/Src/stm32l4xx_hal_pwr_ex.c ****   * @retval None
 703:../Resources/Drivers/STM32L4xx_HAL_Driver/Src/stm32l4xx_hal_pwr_ex.c ****   */
 704:../Resources/Drivers/STM32L4xx_HAL_Driver/Src/stm32l4xx_hal_pwr_ex.c **** void HAL_PWREx_EnablePullUpPullDownConfig(void)
 705:../Resources/Drivers/STM32L4xx_HAL_Driver/Src/stm32l4xx_hal_pwr_ex.c **** {
 1165              		.loc 1 705 1 is_stmt 1 view -0
 1166              		.cfi_startproc
 1167              		@ args = 0, pretend = 0, frame = 0
 1168              		@ frame_needed = 0, uses_anonymous_args = 0
 1169              		@ link register save eliminated.
 706:../Resources/Drivers/STM32L4xx_HAL_Driver/Src/stm32l4xx_hal_pwr_ex.c ****   SET_BIT(PWR->CR3, PWR_CR3_APC);
 1170              		.loc 1 706 3 view .LVU281
 1171 0000 024A     		ldr	r2, .L97
 1172 0002 9368     		ldr	r3, [r2, #8]
 1173 0004 43F48063 		orr	r3, r3, #1024
 1174 0008 9360     		str	r3, [r2, #8]
 707:../Resources/Drivers/STM32L4xx_HAL_Driver/Src/stm32l4xx_hal_pwr_ex.c **** }
 1175              		.loc 1 707 1 is_stmt 0 view .LVU282
 1176 000a 7047     		bx	lr
 1177              	.L98:
 1178              		.align	2
 1179              	.L97:
 1180 000c 00700040 		.word	1073770496
 1181              		.cfi_endproc
 1182              	.LFE146:
 1184              		.section	.text.HAL_PWREx_DisablePullUpPullDownConfig,"ax",%progbits
 1185              		.align	1
 1186              		.global	HAL_PWREx_DisablePullUpPullDownConfig
 1187              		.syntax unified
 1188              		.thumb
 1189              		.thumb_func
 1191              	HAL_PWREx_DisablePullUpPullDownConfig:
 1192              	.LFB147:
 708:../Resources/Drivers/STM32L4xx_HAL_Driver/Src/stm32l4xx_hal_pwr_ex.c **** 
 709:../Resources/Drivers/STM32L4xx_HAL_Driver/Src/stm32l4xx_hal_pwr_ex.c **** 
 710:../Resources/Drivers/STM32L4xx_HAL_Driver/Src/stm32l4xx_hal_pwr_ex.c **** /**
 711:../Resources/Drivers/STM32L4xx_HAL_Driver/Src/stm32l4xx_hal_pwr_ex.c ****   * @brief Disable pull-up and pull-down configuration.
 712:../Resources/Drivers/STM32L4xx_HAL_Driver/Src/stm32l4xx_hal_pwr_ex.c ****   * @note  When APC bit is cleared, the I/O pull-up and pull-down configurations defined in
 713:../Resources/Drivers/STM32L4xx_HAL_Driver/Src/stm32l4xx_hal_pwr_ex.c ****   *        PWR_PUCRx and PWR_PDCRx registers are not applied in Standby and Shutdown modes.
 714:../Resources/Drivers/STM32L4xx_HAL_Driver/Src/stm32l4xx_hal_pwr_ex.c ****   * @retval None
 715:../Resources/Drivers/STM32L4xx_HAL_Driver/Src/stm32l4xx_hal_pwr_ex.c ****   */
 716:../Resources/Drivers/STM32L4xx_HAL_Driver/Src/stm32l4xx_hal_pwr_ex.c **** void HAL_PWREx_DisablePullUpPullDownConfig(void)
 717:../Resources/Drivers/STM32L4xx_HAL_Driver/Src/stm32l4xx_hal_pwr_ex.c **** {
 1193              		.loc 1 717 1 is_stmt 1 view -0
 1194              		.cfi_startproc
ARM GAS  /tmp/ccMFwPRI.s 			page 35


 1195              		@ args = 0, pretend = 0, frame = 0
 1196              		@ frame_needed = 0, uses_anonymous_args = 0
 1197              		@ link register save eliminated.
 718:../Resources/Drivers/STM32L4xx_HAL_Driver/Src/stm32l4xx_hal_pwr_ex.c ****   CLEAR_BIT(PWR->CR3, PWR_CR3_APC);
 1198              		.loc 1 718 3 view .LVU284
 1199 0000 024A     		ldr	r2, .L100
 1200 0002 9368     		ldr	r3, [r2, #8]
 1201 0004 23F48063 		bic	r3, r3, #1024
 1202 0008 9360     		str	r3, [r2, #8]
 719:../Resources/Drivers/STM32L4xx_HAL_Driver/Src/stm32l4xx_hal_pwr_ex.c **** }
 1203              		.loc 1 719 1 is_stmt 0 view .LVU285
 1204 000a 7047     		bx	lr
 1205              	.L101:
 1206              		.align	2
 1207              	.L100:
 1208 000c 00700040 		.word	1073770496
 1209              		.cfi_endproc
 1210              	.LFE147:
 1212              		.section	.text.HAL_PWREx_SetSRAM2ContentRetention,"ax",%progbits
 1213              		.align	1
 1214              		.global	HAL_PWREx_SetSRAM2ContentRetention
 1215              		.syntax unified
 1216              		.thumb
 1217              		.thumb_func
 1219              	HAL_PWREx_SetSRAM2ContentRetention:
 1220              	.LVL118:
 1221              	.LFB150:
 720:../Resources/Drivers/STM32L4xx_HAL_Driver/Src/stm32l4xx_hal_pwr_ex.c **** 
 721:../Resources/Drivers/STM32L4xx_HAL_Driver/Src/stm32l4xx_hal_pwr_ex.c **** 
 722:../Resources/Drivers/STM32L4xx_HAL_Driver/Src/stm32l4xx_hal_pwr_ex.c **** 
 723:../Resources/Drivers/STM32L4xx_HAL_Driver/Src/stm32l4xx_hal_pwr_ex.c **** /**
 724:../Resources/Drivers/STM32L4xx_HAL_Driver/Src/stm32l4xx_hal_pwr_ex.c ****   * @brief Enable Full SRAM2 content retention in Standby mode.
 725:../Resources/Drivers/STM32L4xx_HAL_Driver/Src/stm32l4xx_hal_pwr_ex.c ****   * @retval None
 726:../Resources/Drivers/STM32L4xx_HAL_Driver/Src/stm32l4xx_hal_pwr_ex.c ****   */
 727:../Resources/Drivers/STM32L4xx_HAL_Driver/Src/stm32l4xx_hal_pwr_ex.c **** void HAL_PWREx_EnableSRAM2ContentRetention(void)
 728:../Resources/Drivers/STM32L4xx_HAL_Driver/Src/stm32l4xx_hal_pwr_ex.c **** {
 729:../Resources/Drivers/STM32L4xx_HAL_Driver/Src/stm32l4xx_hal_pwr_ex.c ****   (void) HAL_PWREx_SetSRAM2ContentRetention(PWR_FULL_SRAM2_RETENTION);
 730:../Resources/Drivers/STM32L4xx_HAL_Driver/Src/stm32l4xx_hal_pwr_ex.c **** }
 731:../Resources/Drivers/STM32L4xx_HAL_Driver/Src/stm32l4xx_hal_pwr_ex.c **** 
 732:../Resources/Drivers/STM32L4xx_HAL_Driver/Src/stm32l4xx_hal_pwr_ex.c **** /**
 733:../Resources/Drivers/STM32L4xx_HAL_Driver/Src/stm32l4xx_hal_pwr_ex.c ****   * @brief Disable SRAM2 content retention in Standby mode.
 734:../Resources/Drivers/STM32L4xx_HAL_Driver/Src/stm32l4xx_hal_pwr_ex.c ****   * @retval None
 735:../Resources/Drivers/STM32L4xx_HAL_Driver/Src/stm32l4xx_hal_pwr_ex.c ****   */
 736:../Resources/Drivers/STM32L4xx_HAL_Driver/Src/stm32l4xx_hal_pwr_ex.c **** void HAL_PWREx_DisableSRAM2ContentRetention(void)
 737:../Resources/Drivers/STM32L4xx_HAL_Driver/Src/stm32l4xx_hal_pwr_ex.c **** {
 738:../Resources/Drivers/STM32L4xx_HAL_Driver/Src/stm32l4xx_hal_pwr_ex.c ****   (void) HAL_PWREx_SetSRAM2ContentRetention(PWR_NO_SRAM2_RETENTION);
 739:../Resources/Drivers/STM32L4xx_HAL_Driver/Src/stm32l4xx_hal_pwr_ex.c **** }
 740:../Resources/Drivers/STM32L4xx_HAL_Driver/Src/stm32l4xx_hal_pwr_ex.c **** 
 741:../Resources/Drivers/STM32L4xx_HAL_Driver/Src/stm32l4xx_hal_pwr_ex.c **** /**
 742:../Resources/Drivers/STM32L4xx_HAL_Driver/Src/stm32l4xx_hal_pwr_ex.c ****   * @brief Enable SRAM2 content retention in Standby mode.
 743:../Resources/Drivers/STM32L4xx_HAL_Driver/Src/stm32l4xx_hal_pwr_ex.c ****   * @param  SRAM2Size: specifies the SRAM2 size kept in Standby mode
 744:../Resources/Drivers/STM32L4xx_HAL_Driver/Src/stm32l4xx_hal_pwr_ex.c ****   *          This parameter can be one of the following values:
 745:../Resources/Drivers/STM32L4xx_HAL_Driver/Src/stm32l4xx_hal_pwr_ex.c ****   *            @arg @ref PWR_NO_SRAM2_RETENTION        SRAM2 is powered off in Standby mode (SRAM2 
 746:../Resources/Drivers/STM32L4xx_HAL_Driver/Src/stm32l4xx_hal_pwr_ex.c ****   *            @arg @ref PWR_FULL_SRAM2_RETENTION      Full SRAM2 is powered by the low-power regul
 747:../Resources/Drivers/STM32L4xx_HAL_Driver/Src/stm32l4xx_hal_pwr_ex.c ****   *            @arg @ref PWR_4KBYTES_SRAM2_RETENTION   Only 4 Kbytes of SRAM2 is powered by the low
 748:../Resources/Drivers/STM32L4xx_HAL_Driver/Src/stm32l4xx_hal_pwr_ex.c ****   * @note  PWR_4KBYTES_SRAM2_RETENTION parameter is not available on all devices
 749:../Resources/Drivers/STM32L4xx_HAL_Driver/Src/stm32l4xx_hal_pwr_ex.c ****   * @retval HAL Status
ARM GAS  /tmp/ccMFwPRI.s 			page 36


 750:../Resources/Drivers/STM32L4xx_HAL_Driver/Src/stm32l4xx_hal_pwr_ex.c ****   */
 751:../Resources/Drivers/STM32L4xx_HAL_Driver/Src/stm32l4xx_hal_pwr_ex.c **** HAL_StatusTypeDef HAL_PWREx_SetSRAM2ContentRetention(uint32_t SRAM2Size)
 752:../Resources/Drivers/STM32L4xx_HAL_Driver/Src/stm32l4xx_hal_pwr_ex.c **** {
 1222              		.loc 1 752 1 is_stmt 1 view -0
 1223              		.cfi_startproc
 1224              		@ args = 0, pretend = 0, frame = 0
 1225              		@ frame_needed = 0, uses_anonymous_args = 0
 1226              		@ link register save eliminated.
 753:../Resources/Drivers/STM32L4xx_HAL_Driver/Src/stm32l4xx_hal_pwr_ex.c ****   assert_param(IS_PWR_SRAM2_RETENTION(SRAM2Size));
 1227              		.loc 1 753 3 view .LVU287
 754:../Resources/Drivers/STM32L4xx_HAL_Driver/Src/stm32l4xx_hal_pwr_ex.c **** 
 755:../Resources/Drivers/STM32L4xx_HAL_Driver/Src/stm32l4xx_hal_pwr_ex.c ****   if (SRAM2Size == PWR_NO_SRAM2_RETENTION)
 1228              		.loc 1 755 3 view .LVU288
 1229              		.loc 1 755 6 is_stmt 0 view .LVU289
 1230 0000 28B9     		cbnz	r0, .L103
 756:../Resources/Drivers/STM32L4xx_HAL_Driver/Src/stm32l4xx_hal_pwr_ex.c ****   {
 757:../Resources/Drivers/STM32L4xx_HAL_Driver/Src/stm32l4xx_hal_pwr_ex.c ****     CLEAR_BIT(PWR->CR3, PWR_CR3_RRS);
 1231              		.loc 1 757 5 is_stmt 1 view .LVU290
 1232 0002 094A     		ldr	r2, .L106
 1233 0004 9368     		ldr	r3, [r2, #8]
 1234 0006 23F48073 		bic	r3, r3, #256
 1235 000a 9360     		str	r3, [r2, #8]
 1236 000c 7047     		bx	lr
 1237              	.L103:
 758:../Resources/Drivers/STM32L4xx_HAL_Driver/Src/stm32l4xx_hal_pwr_ex.c ****   }
 759:../Resources/Drivers/STM32L4xx_HAL_Driver/Src/stm32l4xx_hal_pwr_ex.c ****   else if (SRAM2Size == PWR_FULL_SRAM2_RETENTION)
 1238              		.loc 1 759 8 view .LVU291
 1239              		.loc 1 759 11 is_stmt 0 view .LVU292
 1240 000e B0F5807F 		cmp	r0, #256
 1241 0012 06D1     		bne	.L105
 760:../Resources/Drivers/STM32L4xx_HAL_Driver/Src/stm32l4xx_hal_pwr_ex.c ****   {
 761:../Resources/Drivers/STM32L4xx_HAL_Driver/Src/stm32l4xx_hal_pwr_ex.c ****     MODIFY_REG(PWR->CR3, PWR_CR3_RRS, PWR_FULL_SRAM2_RETENTION);
 1242              		.loc 1 761 5 is_stmt 1 view .LVU293
 1243 0014 044A     		ldr	r2, .L106
 1244 0016 9368     		ldr	r3, [r2, #8]
 1245 0018 43F48073 		orr	r3, r3, #256
 1246 001c 9360     		str	r3, [r2, #8]
 762:../Resources/Drivers/STM32L4xx_HAL_Driver/Src/stm32l4xx_hal_pwr_ex.c ****   }
 763:../Resources/Drivers/STM32L4xx_HAL_Driver/Src/stm32l4xx_hal_pwr_ex.c **** #if defined(PWR_CR3_RRS_1)
 764:../Resources/Drivers/STM32L4xx_HAL_Driver/Src/stm32l4xx_hal_pwr_ex.c ****   else if (SRAM2Size == PWR_4KBYTES_SRAM2_RETENTION)
 765:../Resources/Drivers/STM32L4xx_HAL_Driver/Src/stm32l4xx_hal_pwr_ex.c ****   {
 766:../Resources/Drivers/STM32L4xx_HAL_Driver/Src/stm32l4xx_hal_pwr_ex.c ****     MODIFY_REG(PWR->CR3, PWR_CR3_RRS, PWR_4KBYTES_SRAM2_RETENTION);
 767:../Resources/Drivers/STM32L4xx_HAL_Driver/Src/stm32l4xx_hal_pwr_ex.c ****   }
 768:../Resources/Drivers/STM32L4xx_HAL_Driver/Src/stm32l4xx_hal_pwr_ex.c **** #endif /* PWR_CR3_RRS_1 */
 769:../Resources/Drivers/STM32L4xx_HAL_Driver/Src/stm32l4xx_hal_pwr_ex.c ****   else {
 770:../Resources/Drivers/STM32L4xx_HAL_Driver/Src/stm32l4xx_hal_pwr_ex.c ****     return HAL_ERROR;
 771:../Resources/Drivers/STM32L4xx_HAL_Driver/Src/stm32l4xx_hal_pwr_ex.c ****   }
 772:../Resources/Drivers/STM32L4xx_HAL_Driver/Src/stm32l4xx_hal_pwr_ex.c **** 
 773:../Resources/Drivers/STM32L4xx_HAL_Driver/Src/stm32l4xx_hal_pwr_ex.c ****   return HAL_OK;
 1247              		.loc 1 773 10 is_stmt 0 view .LVU294
 1248 001e 0020     		movs	r0, #0
 1249              	.LVL119:
 1250              		.loc 1 773 10 view .LVU295
 1251 0020 7047     		bx	lr
 1252              	.LVL120:
 1253              	.L105:
 770:../Resources/Drivers/STM32L4xx_HAL_Driver/Src/stm32l4xx_hal_pwr_ex.c ****   }
ARM GAS  /tmp/ccMFwPRI.s 			page 37


 1254              		.loc 1 770 12 view .LVU296
 1255 0022 0120     		movs	r0, #1
 1256              	.LVL121:
 774:../Resources/Drivers/STM32L4xx_HAL_Driver/Src/stm32l4xx_hal_pwr_ex.c **** }
 1257              		.loc 1 774 1 view .LVU297
 1258 0024 7047     		bx	lr
 1259              	.L107:
 1260 0026 00BF     		.align	2
 1261              	.L106:
 1262 0028 00700040 		.word	1073770496
 1263              		.cfi_endproc
 1264              	.LFE150:
 1266              		.section	.text.HAL_PWREx_EnableSRAM2ContentRetention,"ax",%progbits
 1267              		.align	1
 1268              		.global	HAL_PWREx_EnableSRAM2ContentRetention
 1269              		.syntax unified
 1270              		.thumb
 1271              		.thumb_func
 1273              	HAL_PWREx_EnableSRAM2ContentRetention:
 1274              	.LFB148:
 728:../Resources/Drivers/STM32L4xx_HAL_Driver/Src/stm32l4xx_hal_pwr_ex.c ****   (void) HAL_PWREx_SetSRAM2ContentRetention(PWR_FULL_SRAM2_RETENTION);
 1275              		.loc 1 728 1 is_stmt 1 view -0
 1276              		.cfi_startproc
 1277              		@ args = 0, pretend = 0, frame = 0
 1278              		@ frame_needed = 0, uses_anonymous_args = 0
 1279 0000 08B5     		push	{r3, lr}
 1280              	.LCFI0:
 1281              		.cfi_def_cfa_offset 8
 1282              		.cfi_offset 3, -8
 1283              		.cfi_offset 14, -4
 729:../Resources/Drivers/STM32L4xx_HAL_Driver/Src/stm32l4xx_hal_pwr_ex.c **** }
 1284              		.loc 1 729 3 view .LVU299
 729:../Resources/Drivers/STM32L4xx_HAL_Driver/Src/stm32l4xx_hal_pwr_ex.c **** }
 1285              		.loc 1 729 10 is_stmt 0 view .LVU300
 1286 0002 4FF48070 		mov	r0, #256
 1287 0006 FFF7FEFF 		bl	HAL_PWREx_SetSRAM2ContentRetention
 1288              	.LVL122:
 730:../Resources/Drivers/STM32L4xx_HAL_Driver/Src/stm32l4xx_hal_pwr_ex.c **** 
 1289              		.loc 1 730 1 view .LVU301
 1290 000a 08BD     		pop	{r3, pc}
 1291              		.cfi_endproc
 1292              	.LFE148:
 1294              		.section	.text.HAL_PWREx_DisableSRAM2ContentRetention,"ax",%progbits
 1295              		.align	1
 1296              		.global	HAL_PWREx_DisableSRAM2ContentRetention
 1297              		.syntax unified
 1298              		.thumb
 1299              		.thumb_func
 1301              	HAL_PWREx_DisableSRAM2ContentRetention:
 1302              	.LFB149:
 737:../Resources/Drivers/STM32L4xx_HAL_Driver/Src/stm32l4xx_hal_pwr_ex.c ****   (void) HAL_PWREx_SetSRAM2ContentRetention(PWR_NO_SRAM2_RETENTION);
 1303              		.loc 1 737 1 is_stmt 1 view -0
 1304              		.cfi_startproc
 1305              		@ args = 0, pretend = 0, frame = 0
 1306              		@ frame_needed = 0, uses_anonymous_args = 0
 1307 0000 08B5     		push	{r3, lr}
 1308              	.LCFI1:
ARM GAS  /tmp/ccMFwPRI.s 			page 38


 1309              		.cfi_def_cfa_offset 8
 1310              		.cfi_offset 3, -8
 1311              		.cfi_offset 14, -4
 738:../Resources/Drivers/STM32L4xx_HAL_Driver/Src/stm32l4xx_hal_pwr_ex.c **** }
 1312              		.loc 1 738 3 view .LVU303
 738:../Resources/Drivers/STM32L4xx_HAL_Driver/Src/stm32l4xx_hal_pwr_ex.c **** }
 1313              		.loc 1 738 10 is_stmt 0 view .LVU304
 1314 0002 0020     		movs	r0, #0
 1315 0004 FFF7FEFF 		bl	HAL_PWREx_SetSRAM2ContentRetention
 1316              	.LVL123:
 739:../Resources/Drivers/STM32L4xx_HAL_Driver/Src/stm32l4xx_hal_pwr_ex.c **** 
 1317              		.loc 1 739 1 view .LVU305
 1318 0008 08BD     		pop	{r3, pc}
 1319              		.cfi_endproc
 1320              	.LFE149:
 1322              		.section	.text.HAL_PWREx_EnableExtSMPS_0V95,"ax",%progbits
 1323              		.align	1
 1324              		.global	HAL_PWREx_EnableExtSMPS_0V95
 1325              		.syntax unified
 1326              		.thumb
 1327              		.thumb_func
 1329              	HAL_PWREx_EnableExtSMPS_0V95:
 1330              	.LFB151:
 775:../Resources/Drivers/STM32L4xx_HAL_Driver/Src/stm32l4xx_hal_pwr_ex.c **** 
 776:../Resources/Drivers/STM32L4xx_HAL_Driver/Src/stm32l4xx_hal_pwr_ex.c **** 
 777:../Resources/Drivers/STM32L4xx_HAL_Driver/Src/stm32l4xx_hal_pwr_ex.c **** #if defined(PWR_CR3_ENULP)
 778:../Resources/Drivers/STM32L4xx_HAL_Driver/Src/stm32l4xx_hal_pwr_ex.c **** /**
 779:../Resources/Drivers/STM32L4xx_HAL_Driver/Src/stm32l4xx_hal_pwr_ex.c ****   * @brief Enable Ultra Low Power BORL, BORH and PVD for STOP2 and Standby modes.
 780:../Resources/Drivers/STM32L4xx_HAL_Driver/Src/stm32l4xx_hal_pwr_ex.c ****   * @note  All the other modes are not affected by this bit.
 781:../Resources/Drivers/STM32L4xx_HAL_Driver/Src/stm32l4xx_hal_pwr_ex.c ****   * @retval None
 782:../Resources/Drivers/STM32L4xx_HAL_Driver/Src/stm32l4xx_hal_pwr_ex.c ****   */
 783:../Resources/Drivers/STM32L4xx_HAL_Driver/Src/stm32l4xx_hal_pwr_ex.c **** void HAL_PWREx_EnableBORPVD_ULP(void)
 784:../Resources/Drivers/STM32L4xx_HAL_Driver/Src/stm32l4xx_hal_pwr_ex.c **** {
 785:../Resources/Drivers/STM32L4xx_HAL_Driver/Src/stm32l4xx_hal_pwr_ex.c ****   SET_BIT(PWR->CR3, PWR_CR3_ENULP);
 786:../Resources/Drivers/STM32L4xx_HAL_Driver/Src/stm32l4xx_hal_pwr_ex.c **** }
 787:../Resources/Drivers/STM32L4xx_HAL_Driver/Src/stm32l4xx_hal_pwr_ex.c **** 
 788:../Resources/Drivers/STM32L4xx_HAL_Driver/Src/stm32l4xx_hal_pwr_ex.c **** 
 789:../Resources/Drivers/STM32L4xx_HAL_Driver/Src/stm32l4xx_hal_pwr_ex.c **** /**
 790:../Resources/Drivers/STM32L4xx_HAL_Driver/Src/stm32l4xx_hal_pwr_ex.c ****   * @brief Disable Ultra Low Power BORL, BORH and PVD for STOP2 and Standby modes.
 791:../Resources/Drivers/STM32L4xx_HAL_Driver/Src/stm32l4xx_hal_pwr_ex.c ****   * @note  All the other modes are not affected by this bit
 792:../Resources/Drivers/STM32L4xx_HAL_Driver/Src/stm32l4xx_hal_pwr_ex.c ****   * @retval None
 793:../Resources/Drivers/STM32L4xx_HAL_Driver/Src/stm32l4xx_hal_pwr_ex.c ****   */
 794:../Resources/Drivers/STM32L4xx_HAL_Driver/Src/stm32l4xx_hal_pwr_ex.c **** void HAL_PWREx_DisableBORPVD_ULP(void)
 795:../Resources/Drivers/STM32L4xx_HAL_Driver/Src/stm32l4xx_hal_pwr_ex.c **** {
 796:../Resources/Drivers/STM32L4xx_HAL_Driver/Src/stm32l4xx_hal_pwr_ex.c ****   CLEAR_BIT(PWR->CR3, PWR_CR3_ENULP);
 797:../Resources/Drivers/STM32L4xx_HAL_Driver/Src/stm32l4xx_hal_pwr_ex.c **** }
 798:../Resources/Drivers/STM32L4xx_HAL_Driver/Src/stm32l4xx_hal_pwr_ex.c **** #endif /* PWR_CR3_ENULP */
 799:../Resources/Drivers/STM32L4xx_HAL_Driver/Src/stm32l4xx_hal_pwr_ex.c **** 
 800:../Resources/Drivers/STM32L4xx_HAL_Driver/Src/stm32l4xx_hal_pwr_ex.c **** 
 801:../Resources/Drivers/STM32L4xx_HAL_Driver/Src/stm32l4xx_hal_pwr_ex.c **** #if defined(PWR_CR4_EXT_SMPS_ON)
 802:../Resources/Drivers/STM32L4xx_HAL_Driver/Src/stm32l4xx_hal_pwr_ex.c **** /**
 803:../Resources/Drivers/STM32L4xx_HAL_Driver/Src/stm32l4xx_hal_pwr_ex.c ****   * @brief Enable the CFLDO working @ 0.95V.
 804:../Resources/Drivers/STM32L4xx_HAL_Driver/Src/stm32l4xx_hal_pwr_ex.c ****   * @note  When external SMPS is used & CFLDO operating in Range 2, the regulated voltage of the
 805:../Resources/Drivers/STM32L4xx_HAL_Driver/Src/stm32l4xx_hal_pwr_ex.c ****   *        internal CFLDO can be reduced to 0.95V.
 806:../Resources/Drivers/STM32L4xx_HAL_Driver/Src/stm32l4xx_hal_pwr_ex.c ****   * @retval None
 807:../Resources/Drivers/STM32L4xx_HAL_Driver/Src/stm32l4xx_hal_pwr_ex.c ****   */
 808:../Resources/Drivers/STM32L4xx_HAL_Driver/Src/stm32l4xx_hal_pwr_ex.c **** void HAL_PWREx_EnableExtSMPS_0V95(void)
ARM GAS  /tmp/ccMFwPRI.s 			page 39


 809:../Resources/Drivers/STM32L4xx_HAL_Driver/Src/stm32l4xx_hal_pwr_ex.c **** {
 1331              		.loc 1 809 1 is_stmt 1 view -0
 1332              		.cfi_startproc
 1333              		@ args = 0, pretend = 0, frame = 0
 1334              		@ frame_needed = 0, uses_anonymous_args = 0
 1335              		@ link register save eliminated.
 810:../Resources/Drivers/STM32L4xx_HAL_Driver/Src/stm32l4xx_hal_pwr_ex.c ****   SET_BIT(PWR->CR4, PWR_CR4_EXT_SMPS_ON);
 1336              		.loc 1 810 3 view .LVU307
 1337 0000 024A     		ldr	r2, .L113
 1338 0002 D368     		ldr	r3, [r2, #12]
 1339 0004 43F40053 		orr	r3, r3, #8192
 1340 0008 D360     		str	r3, [r2, #12]
 811:../Resources/Drivers/STM32L4xx_HAL_Driver/Src/stm32l4xx_hal_pwr_ex.c **** }
 1341              		.loc 1 811 1 is_stmt 0 view .LVU308
 1342 000a 7047     		bx	lr
 1343              	.L114:
 1344              		.align	2
 1345              	.L113:
 1346 000c 00700040 		.word	1073770496
 1347              		.cfi_endproc
 1348              	.LFE151:
 1350              		.section	.text.HAL_PWREx_DisableExtSMPS_0V95,"ax",%progbits
 1351              		.align	1
 1352              		.global	HAL_PWREx_DisableExtSMPS_0V95
 1353              		.syntax unified
 1354              		.thumb
 1355              		.thumb_func
 1357              	HAL_PWREx_DisableExtSMPS_0V95:
 1358              	.LFB152:
 812:../Resources/Drivers/STM32L4xx_HAL_Driver/Src/stm32l4xx_hal_pwr_ex.c **** 
 813:../Resources/Drivers/STM32L4xx_HAL_Driver/Src/stm32l4xx_hal_pwr_ex.c **** /**
 814:../Resources/Drivers/STM32L4xx_HAL_Driver/Src/stm32l4xx_hal_pwr_ex.c ****   * @brief Disable the CFLDO working @ 0.95V
 815:../Resources/Drivers/STM32L4xx_HAL_Driver/Src/stm32l4xx_hal_pwr_ex.c ****   * @note  Before SMPS is switched off, the regulated voltage of the
 816:../Resources/Drivers/STM32L4xx_HAL_Driver/Src/stm32l4xx_hal_pwr_ex.c ****   *        internal CFLDO shall be set to 1.00V.
 817:../Resources/Drivers/STM32L4xx_HAL_Driver/Src/stm32l4xx_hal_pwr_ex.c ****   *        1.00V. is also default operating Range 2 voltage.
 818:../Resources/Drivers/STM32L4xx_HAL_Driver/Src/stm32l4xx_hal_pwr_ex.c ****   * @retval None
 819:../Resources/Drivers/STM32L4xx_HAL_Driver/Src/stm32l4xx_hal_pwr_ex.c ****   */
 820:../Resources/Drivers/STM32L4xx_HAL_Driver/Src/stm32l4xx_hal_pwr_ex.c **** void HAL_PWREx_DisableExtSMPS_0V95(void)
 821:../Resources/Drivers/STM32L4xx_HAL_Driver/Src/stm32l4xx_hal_pwr_ex.c **** {
 1359              		.loc 1 821 1 is_stmt 1 view -0
 1360              		.cfi_startproc
 1361              		@ args = 0, pretend = 0, frame = 0
 1362              		@ frame_needed = 0, uses_anonymous_args = 0
 1363              		@ link register save eliminated.
 822:../Resources/Drivers/STM32L4xx_HAL_Driver/Src/stm32l4xx_hal_pwr_ex.c ****   CLEAR_BIT(PWR->CR4, PWR_CR4_EXT_SMPS_ON);
 1364              		.loc 1 822 3 view .LVU310
 1365 0000 024A     		ldr	r2, .L116
 1366 0002 D368     		ldr	r3, [r2, #12]
 1367 0004 23F40053 		bic	r3, r3, #8192
 1368 0008 D360     		str	r3, [r2, #12]
 823:../Resources/Drivers/STM32L4xx_HAL_Driver/Src/stm32l4xx_hal_pwr_ex.c **** }
 1369              		.loc 1 823 1 is_stmt 0 view .LVU311
 1370 000a 7047     		bx	lr
 1371              	.L117:
 1372              		.align	2
 1373              	.L116:
 1374 000c 00700040 		.word	1073770496
ARM GAS  /tmp/ccMFwPRI.s 			page 40


 1375              		.cfi_endproc
 1376              	.LFE152:
 1378              		.section	.text.HAL_PWREx_EnablePVM1,"ax",%progbits
 1379              		.align	1
 1380              		.global	HAL_PWREx_EnablePVM1
 1381              		.syntax unified
 1382              		.thumb
 1383              		.thumb_func
 1385              	HAL_PWREx_EnablePVM1:
 1386              	.LFB153:
 824:../Resources/Drivers/STM32L4xx_HAL_Driver/Src/stm32l4xx_hal_pwr_ex.c **** #endif /* PWR_CR4_EXT_SMPS_ON */
 825:../Resources/Drivers/STM32L4xx_HAL_Driver/Src/stm32l4xx_hal_pwr_ex.c **** 
 826:../Resources/Drivers/STM32L4xx_HAL_Driver/Src/stm32l4xx_hal_pwr_ex.c **** 
 827:../Resources/Drivers/STM32L4xx_HAL_Driver/Src/stm32l4xx_hal_pwr_ex.c **** #if defined(PWR_CR1_RRSTP)
 828:../Resources/Drivers/STM32L4xx_HAL_Driver/Src/stm32l4xx_hal_pwr_ex.c **** /**
 829:../Resources/Drivers/STM32L4xx_HAL_Driver/Src/stm32l4xx_hal_pwr_ex.c ****   * @brief Enable SRAM3 content retention in Stop 2 mode.
 830:../Resources/Drivers/STM32L4xx_HAL_Driver/Src/stm32l4xx_hal_pwr_ex.c ****   * @note  When RRSTP bit is set, SRAM3 is powered by the low-power regulator in
 831:../Resources/Drivers/STM32L4xx_HAL_Driver/Src/stm32l4xx_hal_pwr_ex.c ****   *        Stop 2 mode and its content is kept.
 832:../Resources/Drivers/STM32L4xx_HAL_Driver/Src/stm32l4xx_hal_pwr_ex.c ****   * @retval None
 833:../Resources/Drivers/STM32L4xx_HAL_Driver/Src/stm32l4xx_hal_pwr_ex.c ****   */
 834:../Resources/Drivers/STM32L4xx_HAL_Driver/Src/stm32l4xx_hal_pwr_ex.c **** void HAL_PWREx_EnableSRAM3ContentRetention(void)
 835:../Resources/Drivers/STM32L4xx_HAL_Driver/Src/stm32l4xx_hal_pwr_ex.c **** {
 836:../Resources/Drivers/STM32L4xx_HAL_Driver/Src/stm32l4xx_hal_pwr_ex.c ****   SET_BIT(PWR->CR1, PWR_CR1_RRSTP);
 837:../Resources/Drivers/STM32L4xx_HAL_Driver/Src/stm32l4xx_hal_pwr_ex.c **** }
 838:../Resources/Drivers/STM32L4xx_HAL_Driver/Src/stm32l4xx_hal_pwr_ex.c **** 
 839:../Resources/Drivers/STM32L4xx_HAL_Driver/Src/stm32l4xx_hal_pwr_ex.c **** 
 840:../Resources/Drivers/STM32L4xx_HAL_Driver/Src/stm32l4xx_hal_pwr_ex.c **** /**
 841:../Resources/Drivers/STM32L4xx_HAL_Driver/Src/stm32l4xx_hal_pwr_ex.c ****   * @brief Disable SRAM3 content retention in Stop 2 mode.
 842:../Resources/Drivers/STM32L4xx_HAL_Driver/Src/stm32l4xx_hal_pwr_ex.c ****   * @note  When RRSTP bit is reset, SRAM3 is powered off in Stop 2 mode
 843:../Resources/Drivers/STM32L4xx_HAL_Driver/Src/stm32l4xx_hal_pwr_ex.c ****   *        and its content is lost.
 844:../Resources/Drivers/STM32L4xx_HAL_Driver/Src/stm32l4xx_hal_pwr_ex.c ****   * @retval None
 845:../Resources/Drivers/STM32L4xx_HAL_Driver/Src/stm32l4xx_hal_pwr_ex.c ****   */
 846:../Resources/Drivers/STM32L4xx_HAL_Driver/Src/stm32l4xx_hal_pwr_ex.c **** void HAL_PWREx_DisableSRAM3ContentRetention(void)
 847:../Resources/Drivers/STM32L4xx_HAL_Driver/Src/stm32l4xx_hal_pwr_ex.c **** {
 848:../Resources/Drivers/STM32L4xx_HAL_Driver/Src/stm32l4xx_hal_pwr_ex.c ****   CLEAR_BIT(PWR->CR1, PWR_CR1_RRSTP);
 849:../Resources/Drivers/STM32L4xx_HAL_Driver/Src/stm32l4xx_hal_pwr_ex.c **** }
 850:../Resources/Drivers/STM32L4xx_HAL_Driver/Src/stm32l4xx_hal_pwr_ex.c **** #endif /* PWR_CR1_RRSTP */
 851:../Resources/Drivers/STM32L4xx_HAL_Driver/Src/stm32l4xx_hal_pwr_ex.c **** 
 852:../Resources/Drivers/STM32L4xx_HAL_Driver/Src/stm32l4xx_hal_pwr_ex.c **** #if defined(PWR_CR3_DSIPDEN)
 853:../Resources/Drivers/STM32L4xx_HAL_Driver/Src/stm32l4xx_hal_pwr_ex.c **** /**
 854:../Resources/Drivers/STM32L4xx_HAL_Driver/Src/stm32l4xx_hal_pwr_ex.c ****   * @brief Enable pull-down activation on DSI pins.
 855:../Resources/Drivers/STM32L4xx_HAL_Driver/Src/stm32l4xx_hal_pwr_ex.c ****   * @retval None
 856:../Resources/Drivers/STM32L4xx_HAL_Driver/Src/stm32l4xx_hal_pwr_ex.c ****   */
 857:../Resources/Drivers/STM32L4xx_HAL_Driver/Src/stm32l4xx_hal_pwr_ex.c **** void HAL_PWREx_EnableDSIPinsPDActivation(void)
 858:../Resources/Drivers/STM32L4xx_HAL_Driver/Src/stm32l4xx_hal_pwr_ex.c **** {
 859:../Resources/Drivers/STM32L4xx_HAL_Driver/Src/stm32l4xx_hal_pwr_ex.c ****   SET_BIT(PWR->CR3, PWR_CR3_DSIPDEN);
 860:../Resources/Drivers/STM32L4xx_HAL_Driver/Src/stm32l4xx_hal_pwr_ex.c **** }
 861:../Resources/Drivers/STM32L4xx_HAL_Driver/Src/stm32l4xx_hal_pwr_ex.c **** 
 862:../Resources/Drivers/STM32L4xx_HAL_Driver/Src/stm32l4xx_hal_pwr_ex.c **** 
 863:../Resources/Drivers/STM32L4xx_HAL_Driver/Src/stm32l4xx_hal_pwr_ex.c **** /**
 864:../Resources/Drivers/STM32L4xx_HAL_Driver/Src/stm32l4xx_hal_pwr_ex.c ****   * @brief Disable pull-down activation on DSI pins.
 865:../Resources/Drivers/STM32L4xx_HAL_Driver/Src/stm32l4xx_hal_pwr_ex.c ****   * @retval None
 866:../Resources/Drivers/STM32L4xx_HAL_Driver/Src/stm32l4xx_hal_pwr_ex.c ****   */
 867:../Resources/Drivers/STM32L4xx_HAL_Driver/Src/stm32l4xx_hal_pwr_ex.c **** void HAL_PWREx_DisableDSIPinsPDActivation(void)
 868:../Resources/Drivers/STM32L4xx_HAL_Driver/Src/stm32l4xx_hal_pwr_ex.c **** {
 869:../Resources/Drivers/STM32L4xx_HAL_Driver/Src/stm32l4xx_hal_pwr_ex.c ****   CLEAR_BIT(PWR->CR3, PWR_CR3_DSIPDEN);
 870:../Resources/Drivers/STM32L4xx_HAL_Driver/Src/stm32l4xx_hal_pwr_ex.c **** }
ARM GAS  /tmp/ccMFwPRI.s 			page 41


 871:../Resources/Drivers/STM32L4xx_HAL_Driver/Src/stm32l4xx_hal_pwr_ex.c **** #endif /* PWR_CR3_DSIPDEN */
 872:../Resources/Drivers/STM32L4xx_HAL_Driver/Src/stm32l4xx_hal_pwr_ex.c **** 
 873:../Resources/Drivers/STM32L4xx_HAL_Driver/Src/stm32l4xx_hal_pwr_ex.c **** #if defined(PWR_CR2_PVME1)
 874:../Resources/Drivers/STM32L4xx_HAL_Driver/Src/stm32l4xx_hal_pwr_ex.c **** /**
 875:../Resources/Drivers/STM32L4xx_HAL_Driver/Src/stm32l4xx_hal_pwr_ex.c ****   * @brief Enable the Power Voltage Monitoring 1: VDDUSB versus 1.2V.
 876:../Resources/Drivers/STM32L4xx_HAL_Driver/Src/stm32l4xx_hal_pwr_ex.c ****   * @retval None
 877:../Resources/Drivers/STM32L4xx_HAL_Driver/Src/stm32l4xx_hal_pwr_ex.c ****   */
 878:../Resources/Drivers/STM32L4xx_HAL_Driver/Src/stm32l4xx_hal_pwr_ex.c **** void HAL_PWREx_EnablePVM1(void)
 879:../Resources/Drivers/STM32L4xx_HAL_Driver/Src/stm32l4xx_hal_pwr_ex.c **** {
 1387              		.loc 1 879 1 is_stmt 1 view -0
 1388              		.cfi_startproc
 1389              		@ args = 0, pretend = 0, frame = 0
 1390              		@ frame_needed = 0, uses_anonymous_args = 0
 1391              		@ link register save eliminated.
 880:../Resources/Drivers/STM32L4xx_HAL_Driver/Src/stm32l4xx_hal_pwr_ex.c ****   SET_BIT(PWR->CR2, PWR_PVM_1);
 1392              		.loc 1 880 3 view .LVU313
 1393 0000 024A     		ldr	r2, .L119
 1394 0002 5368     		ldr	r3, [r2, #4]
 1395 0004 43F01003 		orr	r3, r3, #16
 1396 0008 5360     		str	r3, [r2, #4]
 881:../Resources/Drivers/STM32L4xx_HAL_Driver/Src/stm32l4xx_hal_pwr_ex.c **** }
 1397              		.loc 1 881 1 is_stmt 0 view .LVU314
 1398 000a 7047     		bx	lr
 1399              	.L120:
 1400              		.align	2
 1401              	.L119:
 1402 000c 00700040 		.word	1073770496
 1403              		.cfi_endproc
 1404              	.LFE153:
 1406              		.section	.text.HAL_PWREx_DisablePVM1,"ax",%progbits
 1407              		.align	1
 1408              		.global	HAL_PWREx_DisablePVM1
 1409              		.syntax unified
 1410              		.thumb
 1411              		.thumb_func
 1413              	HAL_PWREx_DisablePVM1:
 1414              	.LFB154:
 882:../Resources/Drivers/STM32L4xx_HAL_Driver/Src/stm32l4xx_hal_pwr_ex.c **** 
 883:../Resources/Drivers/STM32L4xx_HAL_Driver/Src/stm32l4xx_hal_pwr_ex.c **** /**
 884:../Resources/Drivers/STM32L4xx_HAL_Driver/Src/stm32l4xx_hal_pwr_ex.c ****   * @brief Disable the Power Voltage Monitoring 1: VDDUSB versus 1.2V.
 885:../Resources/Drivers/STM32L4xx_HAL_Driver/Src/stm32l4xx_hal_pwr_ex.c ****   * @retval None
 886:../Resources/Drivers/STM32L4xx_HAL_Driver/Src/stm32l4xx_hal_pwr_ex.c ****   */
 887:../Resources/Drivers/STM32L4xx_HAL_Driver/Src/stm32l4xx_hal_pwr_ex.c **** void HAL_PWREx_DisablePVM1(void)
 888:../Resources/Drivers/STM32L4xx_HAL_Driver/Src/stm32l4xx_hal_pwr_ex.c **** {
 1415              		.loc 1 888 1 is_stmt 1 view -0
 1416              		.cfi_startproc
 1417              		@ args = 0, pretend = 0, frame = 0
 1418              		@ frame_needed = 0, uses_anonymous_args = 0
 1419              		@ link register save eliminated.
 889:../Resources/Drivers/STM32L4xx_HAL_Driver/Src/stm32l4xx_hal_pwr_ex.c ****   CLEAR_BIT(PWR->CR2, PWR_PVM_1);
 1420              		.loc 1 889 3 view .LVU316
 1421 0000 024A     		ldr	r2, .L122
 1422 0002 5368     		ldr	r3, [r2, #4]
 1423 0004 23F01003 		bic	r3, r3, #16
 1424 0008 5360     		str	r3, [r2, #4]
 890:../Resources/Drivers/STM32L4xx_HAL_Driver/Src/stm32l4xx_hal_pwr_ex.c **** }
 1425              		.loc 1 890 1 is_stmt 0 view .LVU317
ARM GAS  /tmp/ccMFwPRI.s 			page 42


 1426 000a 7047     		bx	lr
 1427              	.L123:
 1428              		.align	2
 1429              	.L122:
 1430 000c 00700040 		.word	1073770496
 1431              		.cfi_endproc
 1432              	.LFE154:
 1434              		.section	.text.HAL_PWREx_EnablePVM2,"ax",%progbits
 1435              		.align	1
 1436              		.global	HAL_PWREx_EnablePVM2
 1437              		.syntax unified
 1438              		.thumb
 1439              		.thumb_func
 1441              	HAL_PWREx_EnablePVM2:
 1442              	.LFB155:
 891:../Resources/Drivers/STM32L4xx_HAL_Driver/Src/stm32l4xx_hal_pwr_ex.c **** #endif /* PWR_CR2_PVME1 */
 892:../Resources/Drivers/STM32L4xx_HAL_Driver/Src/stm32l4xx_hal_pwr_ex.c **** 
 893:../Resources/Drivers/STM32L4xx_HAL_Driver/Src/stm32l4xx_hal_pwr_ex.c **** 
 894:../Resources/Drivers/STM32L4xx_HAL_Driver/Src/stm32l4xx_hal_pwr_ex.c **** #if defined(PWR_CR2_PVME2)
 895:../Resources/Drivers/STM32L4xx_HAL_Driver/Src/stm32l4xx_hal_pwr_ex.c **** /**
 896:../Resources/Drivers/STM32L4xx_HAL_Driver/Src/stm32l4xx_hal_pwr_ex.c ****   * @brief Enable the Power Voltage Monitoring 2: VDDIO2 versus 0.9V.
 897:../Resources/Drivers/STM32L4xx_HAL_Driver/Src/stm32l4xx_hal_pwr_ex.c ****   * @retval None
 898:../Resources/Drivers/STM32L4xx_HAL_Driver/Src/stm32l4xx_hal_pwr_ex.c ****   */
 899:../Resources/Drivers/STM32L4xx_HAL_Driver/Src/stm32l4xx_hal_pwr_ex.c **** void HAL_PWREx_EnablePVM2(void)
 900:../Resources/Drivers/STM32L4xx_HAL_Driver/Src/stm32l4xx_hal_pwr_ex.c **** {
 1443              		.loc 1 900 1 is_stmt 1 view -0
 1444              		.cfi_startproc
 1445              		@ args = 0, pretend = 0, frame = 0
 1446              		@ frame_needed = 0, uses_anonymous_args = 0
 1447              		@ link register save eliminated.
 901:../Resources/Drivers/STM32L4xx_HAL_Driver/Src/stm32l4xx_hal_pwr_ex.c ****   SET_BIT(PWR->CR2, PWR_PVM_2);
 1448              		.loc 1 901 3 view .LVU319
 1449 0000 024A     		ldr	r2, .L125
 1450 0002 5368     		ldr	r3, [r2, #4]
 1451 0004 43F02003 		orr	r3, r3, #32
 1452 0008 5360     		str	r3, [r2, #4]
 902:../Resources/Drivers/STM32L4xx_HAL_Driver/Src/stm32l4xx_hal_pwr_ex.c **** }
 1453              		.loc 1 902 1 is_stmt 0 view .LVU320
 1454 000a 7047     		bx	lr
 1455              	.L126:
 1456              		.align	2
 1457              	.L125:
 1458 000c 00700040 		.word	1073770496
 1459              		.cfi_endproc
 1460              	.LFE155:
 1462              		.section	.text.HAL_PWREx_DisablePVM2,"ax",%progbits
 1463              		.align	1
 1464              		.global	HAL_PWREx_DisablePVM2
 1465              		.syntax unified
 1466              		.thumb
 1467              		.thumb_func
 1469              	HAL_PWREx_DisablePVM2:
 1470              	.LFB156:
 903:../Resources/Drivers/STM32L4xx_HAL_Driver/Src/stm32l4xx_hal_pwr_ex.c **** 
 904:../Resources/Drivers/STM32L4xx_HAL_Driver/Src/stm32l4xx_hal_pwr_ex.c **** /**
 905:../Resources/Drivers/STM32L4xx_HAL_Driver/Src/stm32l4xx_hal_pwr_ex.c ****   * @brief Disable the Power Voltage Monitoring 2: VDDIO2 versus 0.9V.
 906:../Resources/Drivers/STM32L4xx_HAL_Driver/Src/stm32l4xx_hal_pwr_ex.c ****   * @retval None
ARM GAS  /tmp/ccMFwPRI.s 			page 43


 907:../Resources/Drivers/STM32L4xx_HAL_Driver/Src/stm32l4xx_hal_pwr_ex.c ****   */
 908:../Resources/Drivers/STM32L4xx_HAL_Driver/Src/stm32l4xx_hal_pwr_ex.c **** void HAL_PWREx_DisablePVM2(void)
 909:../Resources/Drivers/STM32L4xx_HAL_Driver/Src/stm32l4xx_hal_pwr_ex.c **** {
 1471              		.loc 1 909 1 is_stmt 1 view -0
 1472              		.cfi_startproc
 1473              		@ args = 0, pretend = 0, frame = 0
 1474              		@ frame_needed = 0, uses_anonymous_args = 0
 1475              		@ link register save eliminated.
 910:../Resources/Drivers/STM32L4xx_HAL_Driver/Src/stm32l4xx_hal_pwr_ex.c ****   CLEAR_BIT(PWR->CR2, PWR_PVM_2);
 1476              		.loc 1 910 3 view .LVU322
 1477 0000 024A     		ldr	r2, .L128
 1478 0002 5368     		ldr	r3, [r2, #4]
 1479 0004 23F02003 		bic	r3, r3, #32
 1480 0008 5360     		str	r3, [r2, #4]
 911:../Resources/Drivers/STM32L4xx_HAL_Driver/Src/stm32l4xx_hal_pwr_ex.c **** }
 1481              		.loc 1 911 1 is_stmt 0 view .LVU323
 1482 000a 7047     		bx	lr
 1483              	.L129:
 1484              		.align	2
 1485              	.L128:
 1486 000c 00700040 		.word	1073770496
 1487              		.cfi_endproc
 1488              	.LFE156:
 1490              		.section	.text.HAL_PWREx_EnablePVM3,"ax",%progbits
 1491              		.align	1
 1492              		.global	HAL_PWREx_EnablePVM3
 1493              		.syntax unified
 1494              		.thumb
 1495              		.thumb_func
 1497              	HAL_PWREx_EnablePVM3:
 1498              	.LFB157:
 912:../Resources/Drivers/STM32L4xx_HAL_Driver/Src/stm32l4xx_hal_pwr_ex.c **** #endif /* PWR_CR2_PVME2 */
 913:../Resources/Drivers/STM32L4xx_HAL_Driver/Src/stm32l4xx_hal_pwr_ex.c **** 
 914:../Resources/Drivers/STM32L4xx_HAL_Driver/Src/stm32l4xx_hal_pwr_ex.c **** 
 915:../Resources/Drivers/STM32L4xx_HAL_Driver/Src/stm32l4xx_hal_pwr_ex.c **** /**
 916:../Resources/Drivers/STM32L4xx_HAL_Driver/Src/stm32l4xx_hal_pwr_ex.c ****   * @brief Enable the Power Voltage Monitoring 3: VDDA versus 1.62V.
 917:../Resources/Drivers/STM32L4xx_HAL_Driver/Src/stm32l4xx_hal_pwr_ex.c ****   * @retval None
 918:../Resources/Drivers/STM32L4xx_HAL_Driver/Src/stm32l4xx_hal_pwr_ex.c ****   */
 919:../Resources/Drivers/STM32L4xx_HAL_Driver/Src/stm32l4xx_hal_pwr_ex.c **** void HAL_PWREx_EnablePVM3(void)
 920:../Resources/Drivers/STM32L4xx_HAL_Driver/Src/stm32l4xx_hal_pwr_ex.c **** {
 1499              		.loc 1 920 1 is_stmt 1 view -0
 1500              		.cfi_startproc
 1501              		@ args = 0, pretend = 0, frame = 0
 1502              		@ frame_needed = 0, uses_anonymous_args = 0
 1503              		@ link register save eliminated.
 921:../Resources/Drivers/STM32L4xx_HAL_Driver/Src/stm32l4xx_hal_pwr_ex.c ****   SET_BIT(PWR->CR2, PWR_PVM_3);
 1504              		.loc 1 921 3 view .LVU325
 1505 0000 024A     		ldr	r2, .L131
 1506 0002 5368     		ldr	r3, [r2, #4]
 1507 0004 43F04003 		orr	r3, r3, #64
 1508 0008 5360     		str	r3, [r2, #4]
 922:../Resources/Drivers/STM32L4xx_HAL_Driver/Src/stm32l4xx_hal_pwr_ex.c **** }
 1509              		.loc 1 922 1 is_stmt 0 view .LVU326
 1510 000a 7047     		bx	lr
 1511              	.L132:
 1512              		.align	2
 1513              	.L131:
ARM GAS  /tmp/ccMFwPRI.s 			page 44


 1514 000c 00700040 		.word	1073770496
 1515              		.cfi_endproc
 1516              	.LFE157:
 1518              		.section	.text.HAL_PWREx_DisablePVM3,"ax",%progbits
 1519              		.align	1
 1520              		.global	HAL_PWREx_DisablePVM3
 1521              		.syntax unified
 1522              		.thumb
 1523              		.thumb_func
 1525              	HAL_PWREx_DisablePVM3:
 1526              	.LFB158:
 923:../Resources/Drivers/STM32L4xx_HAL_Driver/Src/stm32l4xx_hal_pwr_ex.c **** 
 924:../Resources/Drivers/STM32L4xx_HAL_Driver/Src/stm32l4xx_hal_pwr_ex.c **** /**
 925:../Resources/Drivers/STM32L4xx_HAL_Driver/Src/stm32l4xx_hal_pwr_ex.c ****   * @brief Disable the Power Voltage Monitoring 3: VDDA versus 1.62V.
 926:../Resources/Drivers/STM32L4xx_HAL_Driver/Src/stm32l4xx_hal_pwr_ex.c ****   * @retval None
 927:../Resources/Drivers/STM32L4xx_HAL_Driver/Src/stm32l4xx_hal_pwr_ex.c ****   */
 928:../Resources/Drivers/STM32L4xx_HAL_Driver/Src/stm32l4xx_hal_pwr_ex.c **** void HAL_PWREx_DisablePVM3(void)
 929:../Resources/Drivers/STM32L4xx_HAL_Driver/Src/stm32l4xx_hal_pwr_ex.c **** {
 1527              		.loc 1 929 1 is_stmt 1 view -0
 1528              		.cfi_startproc
 1529              		@ args = 0, pretend = 0, frame = 0
 1530              		@ frame_needed = 0, uses_anonymous_args = 0
 1531              		@ link register save eliminated.
 930:../Resources/Drivers/STM32L4xx_HAL_Driver/Src/stm32l4xx_hal_pwr_ex.c ****   CLEAR_BIT(PWR->CR2, PWR_PVM_3);
 1532              		.loc 1 930 3 view .LVU328
 1533 0000 024A     		ldr	r2, .L134
 1534 0002 5368     		ldr	r3, [r2, #4]
 1535 0004 23F04003 		bic	r3, r3, #64
 1536 0008 5360     		str	r3, [r2, #4]
 931:../Resources/Drivers/STM32L4xx_HAL_Driver/Src/stm32l4xx_hal_pwr_ex.c **** }
 1537              		.loc 1 931 1 is_stmt 0 view .LVU329
 1538 000a 7047     		bx	lr
 1539              	.L135:
 1540              		.align	2
 1541              	.L134:
 1542 000c 00700040 		.word	1073770496
 1543              		.cfi_endproc
 1544              	.LFE158:
 1546              		.section	.text.HAL_PWREx_EnablePVM4,"ax",%progbits
 1547              		.align	1
 1548              		.global	HAL_PWREx_EnablePVM4
 1549              		.syntax unified
 1550              		.thumb
 1551              		.thumb_func
 1553              	HAL_PWREx_EnablePVM4:
 1554              	.LFB159:
 932:../Resources/Drivers/STM32L4xx_HAL_Driver/Src/stm32l4xx_hal_pwr_ex.c **** 
 933:../Resources/Drivers/STM32L4xx_HAL_Driver/Src/stm32l4xx_hal_pwr_ex.c **** 
 934:../Resources/Drivers/STM32L4xx_HAL_Driver/Src/stm32l4xx_hal_pwr_ex.c **** /**
 935:../Resources/Drivers/STM32L4xx_HAL_Driver/Src/stm32l4xx_hal_pwr_ex.c ****   * @brief Enable the Power Voltage Monitoring 4:  VDDA versus 2.2V.
 936:../Resources/Drivers/STM32L4xx_HAL_Driver/Src/stm32l4xx_hal_pwr_ex.c ****   * @retval None
 937:../Resources/Drivers/STM32L4xx_HAL_Driver/Src/stm32l4xx_hal_pwr_ex.c ****   */
 938:../Resources/Drivers/STM32L4xx_HAL_Driver/Src/stm32l4xx_hal_pwr_ex.c **** void HAL_PWREx_EnablePVM4(void)
 939:../Resources/Drivers/STM32L4xx_HAL_Driver/Src/stm32l4xx_hal_pwr_ex.c **** {
 1555              		.loc 1 939 1 is_stmt 1 view -0
 1556              		.cfi_startproc
 1557              		@ args = 0, pretend = 0, frame = 0
ARM GAS  /tmp/ccMFwPRI.s 			page 45


 1558              		@ frame_needed = 0, uses_anonymous_args = 0
 1559              		@ link register save eliminated.
 940:../Resources/Drivers/STM32L4xx_HAL_Driver/Src/stm32l4xx_hal_pwr_ex.c ****   SET_BIT(PWR->CR2, PWR_PVM_4);
 1560              		.loc 1 940 3 view .LVU331
 1561 0000 024A     		ldr	r2, .L137
 1562 0002 5368     		ldr	r3, [r2, #4]
 1563 0004 43F08003 		orr	r3, r3, #128
 1564 0008 5360     		str	r3, [r2, #4]
 941:../Resources/Drivers/STM32L4xx_HAL_Driver/Src/stm32l4xx_hal_pwr_ex.c **** }
 1565              		.loc 1 941 1 is_stmt 0 view .LVU332
 1566 000a 7047     		bx	lr
 1567              	.L138:
 1568              		.align	2
 1569              	.L137:
 1570 000c 00700040 		.word	1073770496
 1571              		.cfi_endproc
 1572              	.LFE159:
 1574              		.section	.text.HAL_PWREx_DisablePVM4,"ax",%progbits
 1575              		.align	1
 1576              		.global	HAL_PWREx_DisablePVM4
 1577              		.syntax unified
 1578              		.thumb
 1579              		.thumb_func
 1581              	HAL_PWREx_DisablePVM4:
 1582              	.LFB160:
 942:../Resources/Drivers/STM32L4xx_HAL_Driver/Src/stm32l4xx_hal_pwr_ex.c **** 
 943:../Resources/Drivers/STM32L4xx_HAL_Driver/Src/stm32l4xx_hal_pwr_ex.c **** /**
 944:../Resources/Drivers/STM32L4xx_HAL_Driver/Src/stm32l4xx_hal_pwr_ex.c ****   * @brief Disable the Power Voltage Monitoring 4:  VDDA versus 2.2V.
 945:../Resources/Drivers/STM32L4xx_HAL_Driver/Src/stm32l4xx_hal_pwr_ex.c ****   * @retval None
 946:../Resources/Drivers/STM32L4xx_HAL_Driver/Src/stm32l4xx_hal_pwr_ex.c ****   */
 947:../Resources/Drivers/STM32L4xx_HAL_Driver/Src/stm32l4xx_hal_pwr_ex.c **** void HAL_PWREx_DisablePVM4(void)
 948:../Resources/Drivers/STM32L4xx_HAL_Driver/Src/stm32l4xx_hal_pwr_ex.c **** {
 1583              		.loc 1 948 1 is_stmt 1 view -0
 1584              		.cfi_startproc
 1585              		@ args = 0, pretend = 0, frame = 0
 1586              		@ frame_needed = 0, uses_anonymous_args = 0
 1587              		@ link register save eliminated.
 949:../Resources/Drivers/STM32L4xx_HAL_Driver/Src/stm32l4xx_hal_pwr_ex.c ****   CLEAR_BIT(PWR->CR2, PWR_PVM_4);
 1588              		.loc 1 949 3 view .LVU334
 1589 0000 024A     		ldr	r2, .L140
 1590 0002 5368     		ldr	r3, [r2, #4]
 1591 0004 23F08003 		bic	r3, r3, #128
 1592 0008 5360     		str	r3, [r2, #4]
 950:../Resources/Drivers/STM32L4xx_HAL_Driver/Src/stm32l4xx_hal_pwr_ex.c **** }
 1593              		.loc 1 950 1 is_stmt 0 view .LVU335
 1594 000a 7047     		bx	lr
 1595              	.L141:
 1596              		.align	2
 1597              	.L140:
 1598 000c 00700040 		.word	1073770496
 1599              		.cfi_endproc
 1600              	.LFE160:
 1602              		.section	.text.HAL_PWREx_ConfigPVM,"ax",%progbits
 1603              		.align	1
 1604              		.global	HAL_PWREx_ConfigPVM
 1605              		.syntax unified
 1606              		.thumb
ARM GAS  /tmp/ccMFwPRI.s 			page 46


 1607              		.thumb_func
 1609              	HAL_PWREx_ConfigPVM:
 1610              	.LVL124:
 1611              	.LFB161:
 951:../Resources/Drivers/STM32L4xx_HAL_Driver/Src/stm32l4xx_hal_pwr_ex.c **** 
 952:../Resources/Drivers/STM32L4xx_HAL_Driver/Src/stm32l4xx_hal_pwr_ex.c **** 
 953:../Resources/Drivers/STM32L4xx_HAL_Driver/Src/stm32l4xx_hal_pwr_ex.c **** 
 954:../Resources/Drivers/STM32L4xx_HAL_Driver/Src/stm32l4xx_hal_pwr_ex.c **** 
 955:../Resources/Drivers/STM32L4xx_HAL_Driver/Src/stm32l4xx_hal_pwr_ex.c **** /**
 956:../Resources/Drivers/STM32L4xx_HAL_Driver/Src/stm32l4xx_hal_pwr_ex.c ****   * @brief Configure the Peripheral Voltage Monitoring (PVM).
 957:../Resources/Drivers/STM32L4xx_HAL_Driver/Src/stm32l4xx_hal_pwr_ex.c ****   * @param sConfigPVM: pointer to a PWR_PVMTypeDef structure that contains the
 958:../Resources/Drivers/STM32L4xx_HAL_Driver/Src/stm32l4xx_hal_pwr_ex.c ****   *        PVM configuration information.
 959:../Resources/Drivers/STM32L4xx_HAL_Driver/Src/stm32l4xx_hal_pwr_ex.c ****   * @note The API configures a single PVM according to the information contained
 960:../Resources/Drivers/STM32L4xx_HAL_Driver/Src/stm32l4xx_hal_pwr_ex.c ****   *       in the input structure. To configure several PVMs, the API must be singly
 961:../Resources/Drivers/STM32L4xx_HAL_Driver/Src/stm32l4xx_hal_pwr_ex.c ****   *       called for each PVM used.
 962:../Resources/Drivers/STM32L4xx_HAL_Driver/Src/stm32l4xx_hal_pwr_ex.c ****   * @note Refer to the electrical characteristics of your device datasheet for
 963:../Resources/Drivers/STM32L4xx_HAL_Driver/Src/stm32l4xx_hal_pwr_ex.c ****   *         more details about the voltage thresholds corresponding to each
 964:../Resources/Drivers/STM32L4xx_HAL_Driver/Src/stm32l4xx_hal_pwr_ex.c ****   *         detection level and to each monitored supply.
 965:../Resources/Drivers/STM32L4xx_HAL_Driver/Src/stm32l4xx_hal_pwr_ex.c ****   * @retval HAL status
 966:../Resources/Drivers/STM32L4xx_HAL_Driver/Src/stm32l4xx_hal_pwr_ex.c ****   */
 967:../Resources/Drivers/STM32L4xx_HAL_Driver/Src/stm32l4xx_hal_pwr_ex.c **** HAL_StatusTypeDef HAL_PWREx_ConfigPVM(PWR_PVMTypeDef *sConfigPVM)
 968:../Resources/Drivers/STM32L4xx_HAL_Driver/Src/stm32l4xx_hal_pwr_ex.c **** {
 1612              		.loc 1 968 1 is_stmt 1 view -0
 1613              		.cfi_startproc
 1614              		@ args = 0, pretend = 0, frame = 0
 1615              		@ frame_needed = 0, uses_anonymous_args = 0
 1616              		@ link register save eliminated.
 969:../Resources/Drivers/STM32L4xx_HAL_Driver/Src/stm32l4xx_hal_pwr_ex.c ****   HAL_StatusTypeDef status = HAL_OK;
 1617              		.loc 1 969 3 view .LVU337
 970:../Resources/Drivers/STM32L4xx_HAL_Driver/Src/stm32l4xx_hal_pwr_ex.c **** 
 971:../Resources/Drivers/STM32L4xx_HAL_Driver/Src/stm32l4xx_hal_pwr_ex.c ****   /* Check the parameters */
 972:../Resources/Drivers/STM32L4xx_HAL_Driver/Src/stm32l4xx_hal_pwr_ex.c ****   assert_param(IS_PWR_PVM_TYPE(sConfigPVM->PVMType));
 1618              		.loc 1 972 3 view .LVU338
 973:../Resources/Drivers/STM32L4xx_HAL_Driver/Src/stm32l4xx_hal_pwr_ex.c ****   assert_param(IS_PWR_PVM_MODE(sConfigPVM->Mode));
 1619              		.loc 1 973 3 view .LVU339
 974:../Resources/Drivers/STM32L4xx_HAL_Driver/Src/stm32l4xx_hal_pwr_ex.c **** 
 975:../Resources/Drivers/STM32L4xx_HAL_Driver/Src/stm32l4xx_hal_pwr_ex.c **** 
 976:../Resources/Drivers/STM32L4xx_HAL_Driver/Src/stm32l4xx_hal_pwr_ex.c ****   /* Configure EXTI 35 to 38 interrupts if so required:
 977:../Resources/Drivers/STM32L4xx_HAL_Driver/Src/stm32l4xx_hal_pwr_ex.c ****      scan thru PVMType to detect which PVMx is set and
 978:../Resources/Drivers/STM32L4xx_HAL_Driver/Src/stm32l4xx_hal_pwr_ex.c ****      configure the corresponding EXTI line accordingly. */
 979:../Resources/Drivers/STM32L4xx_HAL_Driver/Src/stm32l4xx_hal_pwr_ex.c ****   switch (sConfigPVM->PVMType)
 1620              		.loc 1 979 3 view .LVU340
 1621              		.loc 1 979 21 is_stmt 0 view .LVU341
 1622 0000 0368     		ldr	r3, [r0]
 1623              		.loc 1 979 3 view .LVU342
 1624 0002 402B     		cmp	r3, #64
 1625 0004 00F0B180 		beq	.L143
 1626 0008 3DD8     		bhi	.L144
 1627 000a 102B     		cmp	r3, #16
 1628 000c 76D0     		beq	.L145
 1629 000e 202B     		cmp	r3, #32
 1630 0010 37D1     		bne	.L165
 980:../Resources/Drivers/STM32L4xx_HAL_Driver/Src/stm32l4xx_hal_pwr_ex.c ****   {
 981:../Resources/Drivers/STM32L4xx_HAL_Driver/Src/stm32l4xx_hal_pwr_ex.c **** #if defined(PWR_CR2_PVME1)
 982:../Resources/Drivers/STM32L4xx_HAL_Driver/Src/stm32l4xx_hal_pwr_ex.c ****     case PWR_PVM_1:
 983:../Resources/Drivers/STM32L4xx_HAL_Driver/Src/stm32l4xx_hal_pwr_ex.c ****       /* Clear any previous config. Keep it clear if no event or IT mode is selected */
 984:../Resources/Drivers/STM32L4xx_HAL_Driver/Src/stm32l4xx_hal_pwr_ex.c ****       __HAL_PWR_PVM1_EXTI_DISABLE_EVENT();
ARM GAS  /tmp/ccMFwPRI.s 			page 47


 985:../Resources/Drivers/STM32L4xx_HAL_Driver/Src/stm32l4xx_hal_pwr_ex.c ****       __HAL_PWR_PVM1_EXTI_DISABLE_IT();
 986:../Resources/Drivers/STM32L4xx_HAL_Driver/Src/stm32l4xx_hal_pwr_ex.c ****       __HAL_PWR_PVM1_EXTI_DISABLE_FALLING_EDGE();
 987:../Resources/Drivers/STM32L4xx_HAL_Driver/Src/stm32l4xx_hal_pwr_ex.c ****       __HAL_PWR_PVM1_EXTI_DISABLE_RISING_EDGE();
 988:../Resources/Drivers/STM32L4xx_HAL_Driver/Src/stm32l4xx_hal_pwr_ex.c **** 
 989:../Resources/Drivers/STM32L4xx_HAL_Driver/Src/stm32l4xx_hal_pwr_ex.c ****       /* Configure interrupt mode */
 990:../Resources/Drivers/STM32L4xx_HAL_Driver/Src/stm32l4xx_hal_pwr_ex.c ****       if((sConfigPVM->Mode & PVM_MODE_IT) == PVM_MODE_IT)
 991:../Resources/Drivers/STM32L4xx_HAL_Driver/Src/stm32l4xx_hal_pwr_ex.c ****       {
 992:../Resources/Drivers/STM32L4xx_HAL_Driver/Src/stm32l4xx_hal_pwr_ex.c ****         __HAL_PWR_PVM1_EXTI_ENABLE_IT();
 993:../Resources/Drivers/STM32L4xx_HAL_Driver/Src/stm32l4xx_hal_pwr_ex.c ****       }
 994:../Resources/Drivers/STM32L4xx_HAL_Driver/Src/stm32l4xx_hal_pwr_ex.c **** 
 995:../Resources/Drivers/STM32L4xx_HAL_Driver/Src/stm32l4xx_hal_pwr_ex.c ****       /* Configure event mode */
 996:../Resources/Drivers/STM32L4xx_HAL_Driver/Src/stm32l4xx_hal_pwr_ex.c ****       if((sConfigPVM->Mode & PVM_MODE_EVT) == PVM_MODE_EVT)
 997:../Resources/Drivers/STM32L4xx_HAL_Driver/Src/stm32l4xx_hal_pwr_ex.c ****       {
 998:../Resources/Drivers/STM32L4xx_HAL_Driver/Src/stm32l4xx_hal_pwr_ex.c ****         __HAL_PWR_PVM1_EXTI_ENABLE_EVENT();
 999:../Resources/Drivers/STM32L4xx_HAL_Driver/Src/stm32l4xx_hal_pwr_ex.c ****       }
1000:../Resources/Drivers/STM32L4xx_HAL_Driver/Src/stm32l4xx_hal_pwr_ex.c **** 
1001:../Resources/Drivers/STM32L4xx_HAL_Driver/Src/stm32l4xx_hal_pwr_ex.c ****       /* Configure the edge */
1002:../Resources/Drivers/STM32L4xx_HAL_Driver/Src/stm32l4xx_hal_pwr_ex.c ****       if((sConfigPVM->Mode & PVM_RISING_EDGE) == PVM_RISING_EDGE)
1003:../Resources/Drivers/STM32L4xx_HAL_Driver/Src/stm32l4xx_hal_pwr_ex.c ****       {
1004:../Resources/Drivers/STM32L4xx_HAL_Driver/Src/stm32l4xx_hal_pwr_ex.c ****         __HAL_PWR_PVM1_EXTI_ENABLE_RISING_EDGE();
1005:../Resources/Drivers/STM32L4xx_HAL_Driver/Src/stm32l4xx_hal_pwr_ex.c ****       }
1006:../Resources/Drivers/STM32L4xx_HAL_Driver/Src/stm32l4xx_hal_pwr_ex.c **** 
1007:../Resources/Drivers/STM32L4xx_HAL_Driver/Src/stm32l4xx_hal_pwr_ex.c ****       if((sConfigPVM->Mode & PVM_FALLING_EDGE) == PVM_FALLING_EDGE)
1008:../Resources/Drivers/STM32L4xx_HAL_Driver/Src/stm32l4xx_hal_pwr_ex.c ****       {
1009:../Resources/Drivers/STM32L4xx_HAL_Driver/Src/stm32l4xx_hal_pwr_ex.c ****         __HAL_PWR_PVM1_EXTI_ENABLE_FALLING_EDGE();
1010:../Resources/Drivers/STM32L4xx_HAL_Driver/Src/stm32l4xx_hal_pwr_ex.c ****       }
1011:../Resources/Drivers/STM32L4xx_HAL_Driver/Src/stm32l4xx_hal_pwr_ex.c ****       break;
1012:../Resources/Drivers/STM32L4xx_HAL_Driver/Src/stm32l4xx_hal_pwr_ex.c **** #endif /* PWR_CR2_PVME1 */
1013:../Resources/Drivers/STM32L4xx_HAL_Driver/Src/stm32l4xx_hal_pwr_ex.c **** 
1014:../Resources/Drivers/STM32L4xx_HAL_Driver/Src/stm32l4xx_hal_pwr_ex.c **** #if defined(PWR_CR2_PVME2)
1015:../Resources/Drivers/STM32L4xx_HAL_Driver/Src/stm32l4xx_hal_pwr_ex.c ****     case PWR_PVM_2:
1016:../Resources/Drivers/STM32L4xx_HAL_Driver/Src/stm32l4xx_hal_pwr_ex.c ****       /* Clear any previous config. Keep it clear if no event or IT mode is selected */
1017:../Resources/Drivers/STM32L4xx_HAL_Driver/Src/stm32l4xx_hal_pwr_ex.c ****       __HAL_PWR_PVM2_EXTI_DISABLE_EVENT();
 1631              		.loc 1 1017 7 is_stmt 1 view .LVU343
 1632 0012 754B     		ldr	r3, .L167
 1633 0014 5A6A     		ldr	r2, [r3, #36]
 1634 0016 22F01002 		bic	r2, r2, #16
 1635 001a 5A62     		str	r2, [r3, #36]
1018:../Resources/Drivers/STM32L4xx_HAL_Driver/Src/stm32l4xx_hal_pwr_ex.c ****       __HAL_PWR_PVM2_EXTI_DISABLE_IT();
 1636              		.loc 1 1018 7 view .LVU344
 1637 001c 1A6A     		ldr	r2, [r3, #32]
 1638 001e 22F01002 		bic	r2, r2, #16
 1639 0022 1A62     		str	r2, [r3, #32]
1019:../Resources/Drivers/STM32L4xx_HAL_Driver/Src/stm32l4xx_hal_pwr_ex.c ****       __HAL_PWR_PVM2_EXTI_DISABLE_FALLING_EDGE();
 1640              		.loc 1 1019 7 view .LVU345
 1641 0024 DA6A     		ldr	r2, [r3, #44]
 1642 0026 22F01002 		bic	r2, r2, #16
 1643 002a DA62     		str	r2, [r3, #44]
1020:../Resources/Drivers/STM32L4xx_HAL_Driver/Src/stm32l4xx_hal_pwr_ex.c ****       __HAL_PWR_PVM2_EXTI_DISABLE_RISING_EDGE();
 1644              		.loc 1 1020 7 view .LVU346
 1645 002c 9A6A     		ldr	r2, [r3, #40]
 1646 002e 22F01002 		bic	r2, r2, #16
 1647 0032 9A62     		str	r2, [r3, #40]
1021:../Resources/Drivers/STM32L4xx_HAL_Driver/Src/stm32l4xx_hal_pwr_ex.c **** 
1022:../Resources/Drivers/STM32L4xx_HAL_Driver/Src/stm32l4xx_hal_pwr_ex.c ****       /* Configure interrupt mode */
1023:../Resources/Drivers/STM32L4xx_HAL_Driver/Src/stm32l4xx_hal_pwr_ex.c ****       if((sConfigPVM->Mode & PVM_MODE_IT) == PVM_MODE_IT)
 1648              		.loc 1 1023 7 view .LVU347
ARM GAS  /tmp/ccMFwPRI.s 			page 48


 1649              		.loc 1 1023 21 is_stmt 0 view .LVU348
 1650 0034 4368     		ldr	r3, [r0, #4]
 1651              		.loc 1 1023 9 view .LVU349
 1652 0036 13F4803F 		tst	r3, #65536
 1653 003a 04D0     		beq	.L152
1024:../Resources/Drivers/STM32L4xx_HAL_Driver/Src/stm32l4xx_hal_pwr_ex.c ****       {
1025:../Resources/Drivers/STM32L4xx_HAL_Driver/Src/stm32l4xx_hal_pwr_ex.c ****         __HAL_PWR_PVM2_EXTI_ENABLE_IT();
 1654              		.loc 1 1025 9 is_stmt 1 view .LVU350
 1655 003c 6A4A     		ldr	r2, .L167
 1656 003e 136A     		ldr	r3, [r2, #32]
 1657 0040 43F01003 		orr	r3, r3, #16
 1658 0044 1362     		str	r3, [r2, #32]
 1659              	.L152:
1026:../Resources/Drivers/STM32L4xx_HAL_Driver/Src/stm32l4xx_hal_pwr_ex.c ****       }
1027:../Resources/Drivers/STM32L4xx_HAL_Driver/Src/stm32l4xx_hal_pwr_ex.c **** 
1028:../Resources/Drivers/STM32L4xx_HAL_Driver/Src/stm32l4xx_hal_pwr_ex.c ****       /* Configure event mode */
1029:../Resources/Drivers/STM32L4xx_HAL_Driver/Src/stm32l4xx_hal_pwr_ex.c ****       if((sConfigPVM->Mode & PVM_MODE_EVT) == PVM_MODE_EVT)
 1660              		.loc 1 1029 7 view .LVU351
 1661              		.loc 1 1029 21 is_stmt 0 view .LVU352
 1662 0046 4368     		ldr	r3, [r0, #4]
 1663              		.loc 1 1029 9 view .LVU353
 1664 0048 13F4003F 		tst	r3, #131072
 1665 004c 04D0     		beq	.L153
1030:../Resources/Drivers/STM32L4xx_HAL_Driver/Src/stm32l4xx_hal_pwr_ex.c ****       {
1031:../Resources/Drivers/STM32L4xx_HAL_Driver/Src/stm32l4xx_hal_pwr_ex.c ****         __HAL_PWR_PVM2_EXTI_ENABLE_EVENT();
 1666              		.loc 1 1031 9 is_stmt 1 view .LVU354
 1667 004e 664A     		ldr	r2, .L167
 1668 0050 536A     		ldr	r3, [r2, #36]
 1669 0052 43F01003 		orr	r3, r3, #16
 1670 0056 5362     		str	r3, [r2, #36]
 1671              	.L153:
1032:../Resources/Drivers/STM32L4xx_HAL_Driver/Src/stm32l4xx_hal_pwr_ex.c ****       }
1033:../Resources/Drivers/STM32L4xx_HAL_Driver/Src/stm32l4xx_hal_pwr_ex.c **** 
1034:../Resources/Drivers/STM32L4xx_HAL_Driver/Src/stm32l4xx_hal_pwr_ex.c ****       /* Configure the edge */
1035:../Resources/Drivers/STM32L4xx_HAL_Driver/Src/stm32l4xx_hal_pwr_ex.c ****       if((sConfigPVM->Mode & PVM_RISING_EDGE) == PVM_RISING_EDGE)
 1672              		.loc 1 1035 7 view .LVU355
 1673              		.loc 1 1035 21 is_stmt 0 view .LVU356
 1674 0058 4368     		ldr	r3, [r0, #4]
 1675              		.loc 1 1035 9 view .LVU357
 1676 005a 13F0010F 		tst	r3, #1
 1677 005e 04D0     		beq	.L154
1036:../Resources/Drivers/STM32L4xx_HAL_Driver/Src/stm32l4xx_hal_pwr_ex.c ****       {
1037:../Resources/Drivers/STM32L4xx_HAL_Driver/Src/stm32l4xx_hal_pwr_ex.c ****         __HAL_PWR_PVM2_EXTI_ENABLE_RISING_EDGE();
 1678              		.loc 1 1037 9 is_stmt 1 view .LVU358
 1679 0060 614A     		ldr	r2, .L167
 1680 0062 936A     		ldr	r3, [r2, #40]
 1681 0064 43F01003 		orr	r3, r3, #16
 1682 0068 9362     		str	r3, [r2, #40]
 1683              	.L154:
1038:../Resources/Drivers/STM32L4xx_HAL_Driver/Src/stm32l4xx_hal_pwr_ex.c ****       }
1039:../Resources/Drivers/STM32L4xx_HAL_Driver/Src/stm32l4xx_hal_pwr_ex.c **** 
1040:../Resources/Drivers/STM32L4xx_HAL_Driver/Src/stm32l4xx_hal_pwr_ex.c ****       if((sConfigPVM->Mode & PVM_FALLING_EDGE) == PVM_FALLING_EDGE)
 1684              		.loc 1 1040 7 view .LVU359
 1685              		.loc 1 1040 21 is_stmt 0 view .LVU360
 1686 006a 4368     		ldr	r3, [r0, #4]
 1687              		.loc 1 1040 9 view .LVU361
 1688 006c 13F0020F 		tst	r3, #2
ARM GAS  /tmp/ccMFwPRI.s 			page 49


 1689 0070 00F0B480 		beq	.L162
1041:../Resources/Drivers/STM32L4xx_HAL_Driver/Src/stm32l4xx_hal_pwr_ex.c ****       {
1042:../Resources/Drivers/STM32L4xx_HAL_Driver/Src/stm32l4xx_hal_pwr_ex.c ****         __HAL_PWR_PVM2_EXTI_ENABLE_FALLING_EDGE();
 1690              		.loc 1 1042 9 is_stmt 1 view .LVU362
 1691 0074 5C4A     		ldr	r2, .L167
 1692 0076 D36A     		ldr	r3, [r2, #44]
 1693 0078 43F01003 		orr	r3, r3, #16
 1694 007c D362     		str	r3, [r2, #44]
 969:../Resources/Drivers/STM32L4xx_HAL_Driver/Src/stm32l4xx_hal_pwr_ex.c **** 
 1695              		.loc 1 969 21 is_stmt 0 view .LVU363
 1696 007e 0020     		movs	r0, #0
 1697              	.LVL125:
 969:../Resources/Drivers/STM32L4xx_HAL_Driver/Src/stm32l4xx_hal_pwr_ex.c **** 
 1698              		.loc 1 969 21 view .LVU364
 1699 0080 7047     		bx	lr
 1700              	.LVL126:
 1701              	.L165:
 979:../Resources/Drivers/STM32L4xx_HAL_Driver/Src/stm32l4xx_hal_pwr_ex.c ****   {
 1702              		.loc 1 979 3 view .LVU365
 1703 0082 0120     		movs	r0, #1
 1704              	.LVL127:
 979:../Resources/Drivers/STM32L4xx_HAL_Driver/Src/stm32l4xx_hal_pwr_ex.c ****   {
 1705              		.loc 1 979 3 view .LVU366
 1706 0084 7047     		bx	lr
 1707              	.LVL128:
 1708              	.L144:
 979:../Resources/Drivers/STM32L4xx_HAL_Driver/Src/stm32l4xx_hal_pwr_ex.c ****   {
 1709              		.loc 1 979 3 view .LVU367
 1710 0086 802B     		cmp	r3, #128
 1711 0088 36D1     		bne	.L166
1043:../Resources/Drivers/STM32L4xx_HAL_Driver/Src/stm32l4xx_hal_pwr_ex.c ****       }
1044:../Resources/Drivers/STM32L4xx_HAL_Driver/Src/stm32l4xx_hal_pwr_ex.c ****       break;
1045:../Resources/Drivers/STM32L4xx_HAL_Driver/Src/stm32l4xx_hal_pwr_ex.c **** #endif /* PWR_CR2_PVME2 */
1046:../Resources/Drivers/STM32L4xx_HAL_Driver/Src/stm32l4xx_hal_pwr_ex.c **** 
1047:../Resources/Drivers/STM32L4xx_HAL_Driver/Src/stm32l4xx_hal_pwr_ex.c ****     case PWR_PVM_3:
1048:../Resources/Drivers/STM32L4xx_HAL_Driver/Src/stm32l4xx_hal_pwr_ex.c ****       /* Clear any previous config. Keep it clear if no event or IT mode is selected */
1049:../Resources/Drivers/STM32L4xx_HAL_Driver/Src/stm32l4xx_hal_pwr_ex.c ****       __HAL_PWR_PVM3_EXTI_DISABLE_EVENT();
1050:../Resources/Drivers/STM32L4xx_HAL_Driver/Src/stm32l4xx_hal_pwr_ex.c ****       __HAL_PWR_PVM3_EXTI_DISABLE_IT();
1051:../Resources/Drivers/STM32L4xx_HAL_Driver/Src/stm32l4xx_hal_pwr_ex.c ****       __HAL_PWR_PVM3_EXTI_DISABLE_FALLING_EDGE();
1052:../Resources/Drivers/STM32L4xx_HAL_Driver/Src/stm32l4xx_hal_pwr_ex.c ****       __HAL_PWR_PVM3_EXTI_DISABLE_RISING_EDGE();
1053:../Resources/Drivers/STM32L4xx_HAL_Driver/Src/stm32l4xx_hal_pwr_ex.c **** 
1054:../Resources/Drivers/STM32L4xx_HAL_Driver/Src/stm32l4xx_hal_pwr_ex.c ****       /* Configure interrupt mode */
1055:../Resources/Drivers/STM32L4xx_HAL_Driver/Src/stm32l4xx_hal_pwr_ex.c ****       if((sConfigPVM->Mode & PVM_MODE_IT) == PVM_MODE_IT)
1056:../Resources/Drivers/STM32L4xx_HAL_Driver/Src/stm32l4xx_hal_pwr_ex.c ****       {
1057:../Resources/Drivers/STM32L4xx_HAL_Driver/Src/stm32l4xx_hal_pwr_ex.c ****         __HAL_PWR_PVM3_EXTI_ENABLE_IT();
1058:../Resources/Drivers/STM32L4xx_HAL_Driver/Src/stm32l4xx_hal_pwr_ex.c ****       }
1059:../Resources/Drivers/STM32L4xx_HAL_Driver/Src/stm32l4xx_hal_pwr_ex.c **** 
1060:../Resources/Drivers/STM32L4xx_HAL_Driver/Src/stm32l4xx_hal_pwr_ex.c ****       /* Configure event mode */
1061:../Resources/Drivers/STM32L4xx_HAL_Driver/Src/stm32l4xx_hal_pwr_ex.c ****       if((sConfigPVM->Mode & PVM_MODE_EVT) == PVM_MODE_EVT)
1062:../Resources/Drivers/STM32L4xx_HAL_Driver/Src/stm32l4xx_hal_pwr_ex.c ****       {
1063:../Resources/Drivers/STM32L4xx_HAL_Driver/Src/stm32l4xx_hal_pwr_ex.c ****         __HAL_PWR_PVM3_EXTI_ENABLE_EVENT();
1064:../Resources/Drivers/STM32L4xx_HAL_Driver/Src/stm32l4xx_hal_pwr_ex.c ****       }
1065:../Resources/Drivers/STM32L4xx_HAL_Driver/Src/stm32l4xx_hal_pwr_ex.c **** 
1066:../Resources/Drivers/STM32L4xx_HAL_Driver/Src/stm32l4xx_hal_pwr_ex.c ****       /* Configure the edge */
1067:../Resources/Drivers/STM32L4xx_HAL_Driver/Src/stm32l4xx_hal_pwr_ex.c ****       if((sConfigPVM->Mode & PVM_RISING_EDGE) == PVM_RISING_EDGE)
1068:../Resources/Drivers/STM32L4xx_HAL_Driver/Src/stm32l4xx_hal_pwr_ex.c ****       {
1069:../Resources/Drivers/STM32L4xx_HAL_Driver/Src/stm32l4xx_hal_pwr_ex.c ****         __HAL_PWR_PVM3_EXTI_ENABLE_RISING_EDGE();
ARM GAS  /tmp/ccMFwPRI.s 			page 50


1070:../Resources/Drivers/STM32L4xx_HAL_Driver/Src/stm32l4xx_hal_pwr_ex.c ****       }
1071:../Resources/Drivers/STM32L4xx_HAL_Driver/Src/stm32l4xx_hal_pwr_ex.c **** 
1072:../Resources/Drivers/STM32L4xx_HAL_Driver/Src/stm32l4xx_hal_pwr_ex.c ****       if((sConfigPVM->Mode & PVM_FALLING_EDGE) == PVM_FALLING_EDGE)
1073:../Resources/Drivers/STM32L4xx_HAL_Driver/Src/stm32l4xx_hal_pwr_ex.c ****       {
1074:../Resources/Drivers/STM32L4xx_HAL_Driver/Src/stm32l4xx_hal_pwr_ex.c ****         __HAL_PWR_PVM3_EXTI_ENABLE_FALLING_EDGE();
1075:../Resources/Drivers/STM32L4xx_HAL_Driver/Src/stm32l4xx_hal_pwr_ex.c ****       }
1076:../Resources/Drivers/STM32L4xx_HAL_Driver/Src/stm32l4xx_hal_pwr_ex.c ****       break;
1077:../Resources/Drivers/STM32L4xx_HAL_Driver/Src/stm32l4xx_hal_pwr_ex.c **** 
1078:../Resources/Drivers/STM32L4xx_HAL_Driver/Src/stm32l4xx_hal_pwr_ex.c ****     case PWR_PVM_4:
1079:../Resources/Drivers/STM32L4xx_HAL_Driver/Src/stm32l4xx_hal_pwr_ex.c ****       /* Clear any previous config. Keep it clear if no event or IT mode is selected */
1080:../Resources/Drivers/STM32L4xx_HAL_Driver/Src/stm32l4xx_hal_pwr_ex.c ****       __HAL_PWR_PVM4_EXTI_DISABLE_EVENT();
 1712              		.loc 1 1080 7 is_stmt 1 view .LVU368
 1713 008a 574B     		ldr	r3, .L167
 1714 008c 5A6A     		ldr	r2, [r3, #36]
 1715 008e 22F04002 		bic	r2, r2, #64
 1716 0092 5A62     		str	r2, [r3, #36]
1081:../Resources/Drivers/STM32L4xx_HAL_Driver/Src/stm32l4xx_hal_pwr_ex.c ****       __HAL_PWR_PVM4_EXTI_DISABLE_IT();
 1717              		.loc 1 1081 7 view .LVU369
 1718 0094 1A6A     		ldr	r2, [r3, #32]
 1719 0096 22F04002 		bic	r2, r2, #64
 1720 009a 1A62     		str	r2, [r3, #32]
1082:../Resources/Drivers/STM32L4xx_HAL_Driver/Src/stm32l4xx_hal_pwr_ex.c ****       __HAL_PWR_PVM4_EXTI_DISABLE_FALLING_EDGE();
 1721              		.loc 1 1082 7 view .LVU370
 1722 009c DA6A     		ldr	r2, [r3, #44]
 1723 009e 22F04002 		bic	r2, r2, #64
 1724 00a2 DA62     		str	r2, [r3, #44]
1083:../Resources/Drivers/STM32L4xx_HAL_Driver/Src/stm32l4xx_hal_pwr_ex.c ****       __HAL_PWR_PVM4_EXTI_DISABLE_RISING_EDGE();
 1725              		.loc 1 1083 7 view .LVU371
 1726 00a4 9A6A     		ldr	r2, [r3, #40]
 1727 00a6 22F04002 		bic	r2, r2, #64
 1728 00aa 9A62     		str	r2, [r3, #40]
1084:../Resources/Drivers/STM32L4xx_HAL_Driver/Src/stm32l4xx_hal_pwr_ex.c **** 
1085:../Resources/Drivers/STM32L4xx_HAL_Driver/Src/stm32l4xx_hal_pwr_ex.c ****       /* Configure interrupt mode */
1086:../Resources/Drivers/STM32L4xx_HAL_Driver/Src/stm32l4xx_hal_pwr_ex.c ****       if((sConfigPVM->Mode & PVM_MODE_IT) == PVM_MODE_IT)
 1729              		.loc 1 1086 7 view .LVU372
 1730              		.loc 1 1086 21 is_stmt 0 view .LVU373
 1731 00ac 4368     		ldr	r3, [r0, #4]
 1732              		.loc 1 1086 9 view .LVU374
 1733 00ae 13F4803F 		tst	r3, #65536
 1734 00b2 04D0     		beq	.L158
1087:../Resources/Drivers/STM32L4xx_HAL_Driver/Src/stm32l4xx_hal_pwr_ex.c ****       {
1088:../Resources/Drivers/STM32L4xx_HAL_Driver/Src/stm32l4xx_hal_pwr_ex.c ****         __HAL_PWR_PVM4_EXTI_ENABLE_IT();
 1735              		.loc 1 1088 9 is_stmt 1 view .LVU375
 1736 00b4 4C4A     		ldr	r2, .L167
 1737 00b6 136A     		ldr	r3, [r2, #32]
 1738 00b8 43F04003 		orr	r3, r3, #64
 1739 00bc 1362     		str	r3, [r2, #32]
 1740              	.L158:
1089:../Resources/Drivers/STM32L4xx_HAL_Driver/Src/stm32l4xx_hal_pwr_ex.c ****       }
1090:../Resources/Drivers/STM32L4xx_HAL_Driver/Src/stm32l4xx_hal_pwr_ex.c **** 
1091:../Resources/Drivers/STM32L4xx_HAL_Driver/Src/stm32l4xx_hal_pwr_ex.c ****       /* Configure event mode */
1092:../Resources/Drivers/STM32L4xx_HAL_Driver/Src/stm32l4xx_hal_pwr_ex.c ****       if((sConfigPVM->Mode & PVM_MODE_EVT) == PVM_MODE_EVT)
 1741              		.loc 1 1092 7 view .LVU376
 1742              		.loc 1 1092 21 is_stmt 0 view .LVU377
 1743 00be 4368     		ldr	r3, [r0, #4]
 1744              		.loc 1 1092 9 view .LVU378
 1745 00c0 13F4003F 		tst	r3, #131072
ARM GAS  /tmp/ccMFwPRI.s 			page 51


 1746 00c4 04D0     		beq	.L159
1093:../Resources/Drivers/STM32L4xx_HAL_Driver/Src/stm32l4xx_hal_pwr_ex.c ****       {
1094:../Resources/Drivers/STM32L4xx_HAL_Driver/Src/stm32l4xx_hal_pwr_ex.c ****         __HAL_PWR_PVM4_EXTI_ENABLE_EVENT();
 1747              		.loc 1 1094 9 is_stmt 1 view .LVU379
 1748 00c6 484A     		ldr	r2, .L167
 1749 00c8 536A     		ldr	r3, [r2, #36]
 1750 00ca 43F04003 		orr	r3, r3, #64
 1751 00ce 5362     		str	r3, [r2, #36]
 1752              	.L159:
1095:../Resources/Drivers/STM32L4xx_HAL_Driver/Src/stm32l4xx_hal_pwr_ex.c ****       }
1096:../Resources/Drivers/STM32L4xx_HAL_Driver/Src/stm32l4xx_hal_pwr_ex.c **** 
1097:../Resources/Drivers/STM32L4xx_HAL_Driver/Src/stm32l4xx_hal_pwr_ex.c ****       /* Configure the edge */
1098:../Resources/Drivers/STM32L4xx_HAL_Driver/Src/stm32l4xx_hal_pwr_ex.c ****       if((sConfigPVM->Mode & PVM_RISING_EDGE) == PVM_RISING_EDGE)
 1753              		.loc 1 1098 7 view .LVU380
 1754              		.loc 1 1098 21 is_stmt 0 view .LVU381
 1755 00d0 4368     		ldr	r3, [r0, #4]
 1756              		.loc 1 1098 9 view .LVU382
 1757 00d2 13F0010F 		tst	r3, #1
 1758 00d6 04D0     		beq	.L160
1099:../Resources/Drivers/STM32L4xx_HAL_Driver/Src/stm32l4xx_hal_pwr_ex.c ****       {
1100:../Resources/Drivers/STM32L4xx_HAL_Driver/Src/stm32l4xx_hal_pwr_ex.c ****         __HAL_PWR_PVM4_EXTI_ENABLE_RISING_EDGE();
 1759              		.loc 1 1100 9 is_stmt 1 view .LVU383
 1760 00d8 434A     		ldr	r2, .L167
 1761 00da 936A     		ldr	r3, [r2, #40]
 1762 00dc 43F04003 		orr	r3, r3, #64
 1763 00e0 9362     		str	r3, [r2, #40]
 1764              	.L160:
1101:../Resources/Drivers/STM32L4xx_HAL_Driver/Src/stm32l4xx_hal_pwr_ex.c ****       }
1102:../Resources/Drivers/STM32L4xx_HAL_Driver/Src/stm32l4xx_hal_pwr_ex.c **** 
1103:../Resources/Drivers/STM32L4xx_HAL_Driver/Src/stm32l4xx_hal_pwr_ex.c ****       if((sConfigPVM->Mode & PVM_FALLING_EDGE) == PVM_FALLING_EDGE)
 1765              		.loc 1 1103 7 view .LVU384
 1766              		.loc 1 1103 21 is_stmt 0 view .LVU385
 1767 00e2 4368     		ldr	r3, [r0, #4]
 1768              		.loc 1 1103 9 view .LVU386
 1769 00e4 13F0020F 		tst	r3, #2
 1770 00e8 7CD0     		beq	.L164
1104:../Resources/Drivers/STM32L4xx_HAL_Driver/Src/stm32l4xx_hal_pwr_ex.c ****       {
1105:../Resources/Drivers/STM32L4xx_HAL_Driver/Src/stm32l4xx_hal_pwr_ex.c ****         __HAL_PWR_PVM4_EXTI_ENABLE_FALLING_EDGE();
 1771              		.loc 1 1105 9 is_stmt 1 view .LVU387
 1772 00ea 3F4A     		ldr	r2, .L167
 1773 00ec D36A     		ldr	r3, [r2, #44]
 1774 00ee 43F04003 		orr	r3, r3, #64
 1775 00f2 D362     		str	r3, [r2, #44]
 969:../Resources/Drivers/STM32L4xx_HAL_Driver/Src/stm32l4xx_hal_pwr_ex.c **** 
 1776              		.loc 1 969 21 is_stmt 0 view .LVU388
 1777 00f4 0020     		movs	r0, #0
 1778              	.LVL129:
 969:../Resources/Drivers/STM32L4xx_HAL_Driver/Src/stm32l4xx_hal_pwr_ex.c **** 
 1779              		.loc 1 969 21 view .LVU389
 1780 00f6 7047     		bx	lr
 1781              	.LVL130:
 1782              	.L166:
 979:../Resources/Drivers/STM32L4xx_HAL_Driver/Src/stm32l4xx_hal_pwr_ex.c ****   {
 1783              		.loc 1 979 3 view .LVU390
 1784 00f8 0120     		movs	r0, #1
 1785              	.LVL131:
 979:../Resources/Drivers/STM32L4xx_HAL_Driver/Src/stm32l4xx_hal_pwr_ex.c ****   {
ARM GAS  /tmp/ccMFwPRI.s 			page 52


 1786              		.loc 1 979 3 view .LVU391
 1787 00fa 7047     		bx	lr
 1788              	.LVL132:
 1789              	.L145:
 984:../Resources/Drivers/STM32L4xx_HAL_Driver/Src/stm32l4xx_hal_pwr_ex.c ****       __HAL_PWR_PVM1_EXTI_DISABLE_IT();
 1790              		.loc 1 984 7 is_stmt 1 view .LVU392
 1791 00fc 3A4B     		ldr	r3, .L167
 1792 00fe 5A6A     		ldr	r2, [r3, #36]
 1793 0100 22F00802 		bic	r2, r2, #8
 1794 0104 5A62     		str	r2, [r3, #36]
 985:../Resources/Drivers/STM32L4xx_HAL_Driver/Src/stm32l4xx_hal_pwr_ex.c ****       __HAL_PWR_PVM1_EXTI_DISABLE_FALLING_EDGE();
 1795              		.loc 1 985 7 view .LVU393
 1796 0106 1A6A     		ldr	r2, [r3, #32]
 1797 0108 22F00802 		bic	r2, r2, #8
 1798 010c 1A62     		str	r2, [r3, #32]
 986:../Resources/Drivers/STM32L4xx_HAL_Driver/Src/stm32l4xx_hal_pwr_ex.c ****       __HAL_PWR_PVM1_EXTI_DISABLE_RISING_EDGE();
 1799              		.loc 1 986 7 view .LVU394
 1800 010e DA6A     		ldr	r2, [r3, #44]
 1801 0110 22F00802 		bic	r2, r2, #8
 1802 0114 DA62     		str	r2, [r3, #44]
 987:../Resources/Drivers/STM32L4xx_HAL_Driver/Src/stm32l4xx_hal_pwr_ex.c **** 
 1803              		.loc 1 987 7 view .LVU395
 1804 0116 9A6A     		ldr	r2, [r3, #40]
 1805 0118 22F00802 		bic	r2, r2, #8
 1806 011c 9A62     		str	r2, [r3, #40]
 990:../Resources/Drivers/STM32L4xx_HAL_Driver/Src/stm32l4xx_hal_pwr_ex.c ****       {
 1807              		.loc 1 990 7 view .LVU396
 990:../Resources/Drivers/STM32L4xx_HAL_Driver/Src/stm32l4xx_hal_pwr_ex.c ****       {
 1808              		.loc 1 990 21 is_stmt 0 view .LVU397
 1809 011e 4368     		ldr	r3, [r0, #4]
 990:../Resources/Drivers/STM32L4xx_HAL_Driver/Src/stm32l4xx_hal_pwr_ex.c ****       {
 1810              		.loc 1 990 9 view .LVU398
 1811 0120 13F4803F 		tst	r3, #65536
 1812 0124 04D0     		beq	.L149
 992:../Resources/Drivers/STM32L4xx_HAL_Driver/Src/stm32l4xx_hal_pwr_ex.c ****       }
 1813              		.loc 1 992 9 is_stmt 1 view .LVU399
 1814 0126 304A     		ldr	r2, .L167
 1815 0128 136A     		ldr	r3, [r2, #32]
 1816 012a 43F00803 		orr	r3, r3, #8
 1817 012e 1362     		str	r3, [r2, #32]
 1818              	.L149:
 996:../Resources/Drivers/STM32L4xx_HAL_Driver/Src/stm32l4xx_hal_pwr_ex.c ****       {
 1819              		.loc 1 996 7 view .LVU400
 996:../Resources/Drivers/STM32L4xx_HAL_Driver/Src/stm32l4xx_hal_pwr_ex.c ****       {
 1820              		.loc 1 996 21 is_stmt 0 view .LVU401
 1821 0130 4368     		ldr	r3, [r0, #4]
 996:../Resources/Drivers/STM32L4xx_HAL_Driver/Src/stm32l4xx_hal_pwr_ex.c ****       {
 1822              		.loc 1 996 9 view .LVU402
 1823 0132 13F4003F 		tst	r3, #131072
 1824 0136 04D0     		beq	.L150
 998:../Resources/Drivers/STM32L4xx_HAL_Driver/Src/stm32l4xx_hal_pwr_ex.c ****       }
 1825              		.loc 1 998 9 is_stmt 1 view .LVU403
 1826 0138 2B4A     		ldr	r2, .L167
 1827 013a 536A     		ldr	r3, [r2, #36]
 1828 013c 43F00803 		orr	r3, r3, #8
 1829 0140 5362     		str	r3, [r2, #36]
 1830              	.L150:
ARM GAS  /tmp/ccMFwPRI.s 			page 53


1002:../Resources/Drivers/STM32L4xx_HAL_Driver/Src/stm32l4xx_hal_pwr_ex.c ****       {
 1831              		.loc 1 1002 7 view .LVU404
1002:../Resources/Drivers/STM32L4xx_HAL_Driver/Src/stm32l4xx_hal_pwr_ex.c ****       {
 1832              		.loc 1 1002 21 is_stmt 0 view .LVU405
 1833 0142 4368     		ldr	r3, [r0, #4]
1002:../Resources/Drivers/STM32L4xx_HAL_Driver/Src/stm32l4xx_hal_pwr_ex.c ****       {
 1834              		.loc 1 1002 9 view .LVU406
 1835 0144 13F0010F 		tst	r3, #1
 1836 0148 04D0     		beq	.L151
1004:../Resources/Drivers/STM32L4xx_HAL_Driver/Src/stm32l4xx_hal_pwr_ex.c ****       }
 1837              		.loc 1 1004 9 is_stmt 1 view .LVU407
 1838 014a 274A     		ldr	r2, .L167
 1839 014c 936A     		ldr	r3, [r2, #40]
 1840 014e 43F00803 		orr	r3, r3, #8
 1841 0152 9362     		str	r3, [r2, #40]
 1842              	.L151:
1007:../Resources/Drivers/STM32L4xx_HAL_Driver/Src/stm32l4xx_hal_pwr_ex.c ****       {
 1843              		.loc 1 1007 7 view .LVU408
1007:../Resources/Drivers/STM32L4xx_HAL_Driver/Src/stm32l4xx_hal_pwr_ex.c ****       {
 1844              		.loc 1 1007 21 is_stmt 0 view .LVU409
 1845 0154 4368     		ldr	r3, [r0, #4]
1007:../Resources/Drivers/STM32L4xx_HAL_Driver/Src/stm32l4xx_hal_pwr_ex.c ****       {
 1846              		.loc 1 1007 9 view .LVU410
 1847 0156 13F0020F 		tst	r3, #2
 1848 015a 3DD0     		beq	.L161
1009:../Resources/Drivers/STM32L4xx_HAL_Driver/Src/stm32l4xx_hal_pwr_ex.c ****       }
 1849              		.loc 1 1009 9 is_stmt 1 view .LVU411
 1850 015c 224A     		ldr	r2, .L167
 1851 015e D36A     		ldr	r3, [r2, #44]
 1852 0160 43F00803 		orr	r3, r3, #8
 1853 0164 D362     		str	r3, [r2, #44]
 969:../Resources/Drivers/STM32L4xx_HAL_Driver/Src/stm32l4xx_hal_pwr_ex.c **** 
 1854              		.loc 1 969 21 is_stmt 0 view .LVU412
 1855 0166 0020     		movs	r0, #0
 1856              	.LVL133:
 969:../Resources/Drivers/STM32L4xx_HAL_Driver/Src/stm32l4xx_hal_pwr_ex.c **** 
 1857              		.loc 1 969 21 view .LVU413
 1858 0168 7047     		bx	lr
 1859              	.LVL134:
 1860              	.L143:
1049:../Resources/Drivers/STM32L4xx_HAL_Driver/Src/stm32l4xx_hal_pwr_ex.c ****       __HAL_PWR_PVM3_EXTI_DISABLE_IT();
 1861              		.loc 1 1049 7 is_stmt 1 view .LVU414
 1862 016a 1F4B     		ldr	r3, .L167
 1863 016c 5A6A     		ldr	r2, [r3, #36]
 1864 016e 22F02002 		bic	r2, r2, #32
 1865 0172 5A62     		str	r2, [r3, #36]
1050:../Resources/Drivers/STM32L4xx_HAL_Driver/Src/stm32l4xx_hal_pwr_ex.c ****       __HAL_PWR_PVM3_EXTI_DISABLE_FALLING_EDGE();
 1866              		.loc 1 1050 7 view .LVU415
 1867 0174 1A6A     		ldr	r2, [r3, #32]
 1868 0176 22F02002 		bic	r2, r2, #32
 1869 017a 1A62     		str	r2, [r3, #32]
1051:../Resources/Drivers/STM32L4xx_HAL_Driver/Src/stm32l4xx_hal_pwr_ex.c ****       __HAL_PWR_PVM3_EXTI_DISABLE_RISING_EDGE();
 1870              		.loc 1 1051 7 view .LVU416
 1871 017c DA6A     		ldr	r2, [r3, #44]
 1872 017e 22F02002 		bic	r2, r2, #32
 1873 0182 DA62     		str	r2, [r3, #44]
1052:../Resources/Drivers/STM32L4xx_HAL_Driver/Src/stm32l4xx_hal_pwr_ex.c **** 
ARM GAS  /tmp/ccMFwPRI.s 			page 54


 1874              		.loc 1 1052 7 view .LVU417
 1875 0184 9A6A     		ldr	r2, [r3, #40]
 1876 0186 22F02002 		bic	r2, r2, #32
 1877 018a 9A62     		str	r2, [r3, #40]
1055:../Resources/Drivers/STM32L4xx_HAL_Driver/Src/stm32l4xx_hal_pwr_ex.c ****       {
 1878              		.loc 1 1055 7 view .LVU418
1055:../Resources/Drivers/STM32L4xx_HAL_Driver/Src/stm32l4xx_hal_pwr_ex.c ****       {
 1879              		.loc 1 1055 21 is_stmt 0 view .LVU419
 1880 018c 4368     		ldr	r3, [r0, #4]
1055:../Resources/Drivers/STM32L4xx_HAL_Driver/Src/stm32l4xx_hal_pwr_ex.c ****       {
 1881              		.loc 1 1055 9 view .LVU420
 1882 018e 13F4803F 		tst	r3, #65536
 1883 0192 04D0     		beq	.L155
1057:../Resources/Drivers/STM32L4xx_HAL_Driver/Src/stm32l4xx_hal_pwr_ex.c ****       }
 1884              		.loc 1 1057 9 is_stmt 1 view .LVU421
 1885 0194 144A     		ldr	r2, .L167
 1886 0196 136A     		ldr	r3, [r2, #32]
 1887 0198 43F02003 		orr	r3, r3, #32
 1888 019c 1362     		str	r3, [r2, #32]
 1889              	.L155:
1061:../Resources/Drivers/STM32L4xx_HAL_Driver/Src/stm32l4xx_hal_pwr_ex.c ****       {
 1890              		.loc 1 1061 7 view .LVU422
1061:../Resources/Drivers/STM32L4xx_HAL_Driver/Src/stm32l4xx_hal_pwr_ex.c ****       {
 1891              		.loc 1 1061 21 is_stmt 0 view .LVU423
 1892 019e 4368     		ldr	r3, [r0, #4]
1061:../Resources/Drivers/STM32L4xx_HAL_Driver/Src/stm32l4xx_hal_pwr_ex.c ****       {
 1893              		.loc 1 1061 9 view .LVU424
 1894 01a0 13F4003F 		tst	r3, #131072
 1895 01a4 04D0     		beq	.L156
1063:../Resources/Drivers/STM32L4xx_HAL_Driver/Src/stm32l4xx_hal_pwr_ex.c ****       }
 1896              		.loc 1 1063 9 is_stmt 1 view .LVU425
 1897 01a6 104A     		ldr	r2, .L167
 1898 01a8 536A     		ldr	r3, [r2, #36]
 1899 01aa 43F02003 		orr	r3, r3, #32
 1900 01ae 5362     		str	r3, [r2, #36]
 1901              	.L156:
1067:../Resources/Drivers/STM32L4xx_HAL_Driver/Src/stm32l4xx_hal_pwr_ex.c ****       {
 1902              		.loc 1 1067 7 view .LVU426
1067:../Resources/Drivers/STM32L4xx_HAL_Driver/Src/stm32l4xx_hal_pwr_ex.c ****       {
 1903              		.loc 1 1067 21 is_stmt 0 view .LVU427
 1904 01b0 4368     		ldr	r3, [r0, #4]
1067:../Resources/Drivers/STM32L4xx_HAL_Driver/Src/stm32l4xx_hal_pwr_ex.c ****       {
 1905              		.loc 1 1067 9 view .LVU428
 1906 01b2 13F0010F 		tst	r3, #1
 1907 01b6 04D0     		beq	.L157
1069:../Resources/Drivers/STM32L4xx_HAL_Driver/Src/stm32l4xx_hal_pwr_ex.c ****       }
 1908              		.loc 1 1069 9 is_stmt 1 view .LVU429
 1909 01b8 0B4A     		ldr	r2, .L167
 1910 01ba 936A     		ldr	r3, [r2, #40]
 1911 01bc 43F02003 		orr	r3, r3, #32
 1912 01c0 9362     		str	r3, [r2, #40]
 1913              	.L157:
1072:../Resources/Drivers/STM32L4xx_HAL_Driver/Src/stm32l4xx_hal_pwr_ex.c ****       {
 1914              		.loc 1 1072 7 view .LVU430
1072:../Resources/Drivers/STM32L4xx_HAL_Driver/Src/stm32l4xx_hal_pwr_ex.c ****       {
 1915              		.loc 1 1072 21 is_stmt 0 view .LVU431
 1916 01c2 4368     		ldr	r3, [r0, #4]
ARM GAS  /tmp/ccMFwPRI.s 			page 55


1072:../Resources/Drivers/STM32L4xx_HAL_Driver/Src/stm32l4xx_hal_pwr_ex.c ****       {
 1917              		.loc 1 1072 9 view .LVU432
 1918 01c4 13F0020F 		tst	r3, #2
 1919 01c8 0AD0     		beq	.L163
1074:../Resources/Drivers/STM32L4xx_HAL_Driver/Src/stm32l4xx_hal_pwr_ex.c ****       }
 1920              		.loc 1 1074 9 is_stmt 1 view .LVU433
 1921 01ca 074A     		ldr	r2, .L167
 1922 01cc D36A     		ldr	r3, [r2, #44]
 1923 01ce 43F02003 		orr	r3, r3, #32
 1924 01d2 D362     		str	r3, [r2, #44]
 969:../Resources/Drivers/STM32L4xx_HAL_Driver/Src/stm32l4xx_hal_pwr_ex.c **** 
 1925              		.loc 1 969 21 is_stmt 0 view .LVU434
 1926 01d4 0020     		movs	r0, #0
 1927              	.LVL135:
 969:../Resources/Drivers/STM32L4xx_HAL_Driver/Src/stm32l4xx_hal_pwr_ex.c **** 
 1928              		.loc 1 969 21 view .LVU435
 1929 01d6 7047     		bx	lr
 1930              	.LVL136:
 1931              	.L161:
 969:../Resources/Drivers/STM32L4xx_HAL_Driver/Src/stm32l4xx_hal_pwr_ex.c **** 
 1932              		.loc 1 969 21 view .LVU436
 1933 01d8 0020     		movs	r0, #0
 1934              	.LVL137:
 969:../Resources/Drivers/STM32L4xx_HAL_Driver/Src/stm32l4xx_hal_pwr_ex.c **** 
 1935              		.loc 1 969 21 view .LVU437
 1936 01da 7047     		bx	lr
 1937              	.LVL138:
 1938              	.L162:
 969:../Resources/Drivers/STM32L4xx_HAL_Driver/Src/stm32l4xx_hal_pwr_ex.c **** 
 1939              		.loc 1 969 21 view .LVU438
 1940 01dc 0020     		movs	r0, #0
 1941              	.LVL139:
 969:../Resources/Drivers/STM32L4xx_HAL_Driver/Src/stm32l4xx_hal_pwr_ex.c **** 
 1942              		.loc 1 969 21 view .LVU439
 1943 01de 7047     		bx	lr
 1944              	.LVL140:
 1945              	.L163:
 969:../Resources/Drivers/STM32L4xx_HAL_Driver/Src/stm32l4xx_hal_pwr_ex.c **** 
 1946              		.loc 1 969 21 view .LVU440
 1947 01e0 0020     		movs	r0, #0
 1948              	.LVL141:
 969:../Resources/Drivers/STM32L4xx_HAL_Driver/Src/stm32l4xx_hal_pwr_ex.c **** 
 1949              		.loc 1 969 21 view .LVU441
 1950 01e2 7047     		bx	lr
 1951              	.LVL142:
 1952              	.L164:
 969:../Resources/Drivers/STM32L4xx_HAL_Driver/Src/stm32l4xx_hal_pwr_ex.c **** 
 1953              		.loc 1 969 21 view .LVU442
 1954 01e4 0020     		movs	r0, #0
 1955              	.LVL143:
1106:../Resources/Drivers/STM32L4xx_HAL_Driver/Src/stm32l4xx_hal_pwr_ex.c ****       }
1107:../Resources/Drivers/STM32L4xx_HAL_Driver/Src/stm32l4xx_hal_pwr_ex.c ****       break;
1108:../Resources/Drivers/STM32L4xx_HAL_Driver/Src/stm32l4xx_hal_pwr_ex.c **** 
1109:../Resources/Drivers/STM32L4xx_HAL_Driver/Src/stm32l4xx_hal_pwr_ex.c ****     default:
1110:../Resources/Drivers/STM32L4xx_HAL_Driver/Src/stm32l4xx_hal_pwr_ex.c ****       status = HAL_ERROR;
1111:../Resources/Drivers/STM32L4xx_HAL_Driver/Src/stm32l4xx_hal_pwr_ex.c ****       break;
1112:../Resources/Drivers/STM32L4xx_HAL_Driver/Src/stm32l4xx_hal_pwr_ex.c ****   }
ARM GAS  /tmp/ccMFwPRI.s 			page 56


1113:../Resources/Drivers/STM32L4xx_HAL_Driver/Src/stm32l4xx_hal_pwr_ex.c **** 
1114:../Resources/Drivers/STM32L4xx_HAL_Driver/Src/stm32l4xx_hal_pwr_ex.c ****   return status;
 1956              		.loc 1 1114 3 is_stmt 1 view .LVU443
1115:../Resources/Drivers/STM32L4xx_HAL_Driver/Src/stm32l4xx_hal_pwr_ex.c **** }
 1957              		.loc 1 1115 1 is_stmt 0 view .LVU444
 1958 01e6 7047     		bx	lr
 1959              	.L168:
 1960              		.align	2
 1961              	.L167:
 1962 01e8 00040140 		.word	1073808384
 1963              		.cfi_endproc
 1964              	.LFE161:
 1966              		.section	.text.HAL_PWREx_EnableLowPowerRunMode,"ax",%progbits
 1967              		.align	1
 1968              		.global	HAL_PWREx_EnableLowPowerRunMode
 1969              		.syntax unified
 1970              		.thumb
 1971              		.thumb_func
 1973              	HAL_PWREx_EnableLowPowerRunMode:
 1974              	.LFB162:
1116:../Resources/Drivers/STM32L4xx_HAL_Driver/Src/stm32l4xx_hal_pwr_ex.c **** 
1117:../Resources/Drivers/STM32L4xx_HAL_Driver/Src/stm32l4xx_hal_pwr_ex.c **** 
1118:../Resources/Drivers/STM32L4xx_HAL_Driver/Src/stm32l4xx_hal_pwr_ex.c **** 
1119:../Resources/Drivers/STM32L4xx_HAL_Driver/Src/stm32l4xx_hal_pwr_ex.c **** /**
1120:../Resources/Drivers/STM32L4xx_HAL_Driver/Src/stm32l4xx_hal_pwr_ex.c ****   * @brief Enter Low-power Run mode
1121:../Resources/Drivers/STM32L4xx_HAL_Driver/Src/stm32l4xx_hal_pwr_ex.c ****   * @note  In Low-power Run mode, all I/O pins keep the same state as in Run mode.
1122:../Resources/Drivers/STM32L4xx_HAL_Driver/Src/stm32l4xx_hal_pwr_ex.c ****   * @note  When Regulator is set to PWR_LOWPOWERREGULATOR_ON, the user can optionally configure the
1123:../Resources/Drivers/STM32L4xx_HAL_Driver/Src/stm32l4xx_hal_pwr_ex.c ****   *        Flash in power-down monde in setting the RUN_PD bit in FLASH_ACR register.
1124:../Resources/Drivers/STM32L4xx_HAL_Driver/Src/stm32l4xx_hal_pwr_ex.c ****   *        Additionally, the clock frequency must be reduced below 2 MHz.
1125:../Resources/Drivers/STM32L4xx_HAL_Driver/Src/stm32l4xx_hal_pwr_ex.c ****   *        Setting RUN_PD in FLASH_ACR then appropriately reducing the clock frequency must
1126:../Resources/Drivers/STM32L4xx_HAL_Driver/Src/stm32l4xx_hal_pwr_ex.c ****   *        be done before calling HAL_PWREx_EnableLowPowerRunMode() API.
1127:../Resources/Drivers/STM32L4xx_HAL_Driver/Src/stm32l4xx_hal_pwr_ex.c ****   * @retval None
1128:../Resources/Drivers/STM32L4xx_HAL_Driver/Src/stm32l4xx_hal_pwr_ex.c ****   */
1129:../Resources/Drivers/STM32L4xx_HAL_Driver/Src/stm32l4xx_hal_pwr_ex.c **** void HAL_PWREx_EnableLowPowerRunMode(void)
1130:../Resources/Drivers/STM32L4xx_HAL_Driver/Src/stm32l4xx_hal_pwr_ex.c **** {
 1975              		.loc 1 1130 1 is_stmt 1 view -0
 1976              		.cfi_startproc
 1977              		@ args = 0, pretend = 0, frame = 0
 1978              		@ frame_needed = 0, uses_anonymous_args = 0
 1979              		@ link register save eliminated.
1131:../Resources/Drivers/STM32L4xx_HAL_Driver/Src/stm32l4xx_hal_pwr_ex.c ****   /* Set Regulator parameter */
1132:../Resources/Drivers/STM32L4xx_HAL_Driver/Src/stm32l4xx_hal_pwr_ex.c ****   SET_BIT(PWR->CR1, PWR_CR1_LPR);
 1980              		.loc 1 1132 3 view .LVU446
 1981 0000 024A     		ldr	r2, .L170
 1982 0002 1368     		ldr	r3, [r2]
 1983 0004 43F48043 		orr	r3, r3, #16384
 1984 0008 1360     		str	r3, [r2]
1133:../Resources/Drivers/STM32L4xx_HAL_Driver/Src/stm32l4xx_hal_pwr_ex.c **** }
 1985              		.loc 1 1133 1 is_stmt 0 view .LVU447
 1986 000a 7047     		bx	lr
 1987              	.L171:
 1988              		.align	2
 1989              	.L170:
 1990 000c 00700040 		.word	1073770496
 1991              		.cfi_endproc
 1992              	.LFE162:
 1994              		.section	.text.HAL_PWREx_DisableLowPowerRunMode,"ax",%progbits
ARM GAS  /tmp/ccMFwPRI.s 			page 57


 1995              		.align	1
 1996              		.global	HAL_PWREx_DisableLowPowerRunMode
 1997              		.syntax unified
 1998              		.thumb
 1999              		.thumb_func
 2001              	HAL_PWREx_DisableLowPowerRunMode:
 2002              	.LFB163:
1134:../Resources/Drivers/STM32L4xx_HAL_Driver/Src/stm32l4xx_hal_pwr_ex.c **** 
1135:../Resources/Drivers/STM32L4xx_HAL_Driver/Src/stm32l4xx_hal_pwr_ex.c **** 
1136:../Resources/Drivers/STM32L4xx_HAL_Driver/Src/stm32l4xx_hal_pwr_ex.c **** /**
1137:../Resources/Drivers/STM32L4xx_HAL_Driver/Src/stm32l4xx_hal_pwr_ex.c ****   * @brief Exit Low-power Run mode.
1138:../Resources/Drivers/STM32L4xx_HAL_Driver/Src/stm32l4xx_hal_pwr_ex.c ****   * @note  Before HAL_PWREx_DisableLowPowerRunMode() completion, the function checks that
1139:../Resources/Drivers/STM32L4xx_HAL_Driver/Src/stm32l4xx_hal_pwr_ex.c ****   *        REGLPF has been properly reset (otherwise, HAL_PWREx_DisableLowPowerRunMode
1140:../Resources/Drivers/STM32L4xx_HAL_Driver/Src/stm32l4xx_hal_pwr_ex.c ****   *        returns HAL_TIMEOUT status). The system clock frequency can then be
1141:../Resources/Drivers/STM32L4xx_HAL_Driver/Src/stm32l4xx_hal_pwr_ex.c ****   *        increased above 2 MHz.
1142:../Resources/Drivers/STM32L4xx_HAL_Driver/Src/stm32l4xx_hal_pwr_ex.c ****   * @retval HAL Status
1143:../Resources/Drivers/STM32L4xx_HAL_Driver/Src/stm32l4xx_hal_pwr_ex.c ****   */
1144:../Resources/Drivers/STM32L4xx_HAL_Driver/Src/stm32l4xx_hal_pwr_ex.c **** HAL_StatusTypeDef HAL_PWREx_DisableLowPowerRunMode(void)
1145:../Resources/Drivers/STM32L4xx_HAL_Driver/Src/stm32l4xx_hal_pwr_ex.c **** {
 2003              		.loc 1 1145 1 is_stmt 1 view -0
 2004              		.cfi_startproc
 2005              		@ args = 0, pretend = 0, frame = 0
 2006              		@ frame_needed = 0, uses_anonymous_args = 0
 2007              		@ link register save eliminated.
1146:../Resources/Drivers/STM32L4xx_HAL_Driver/Src/stm32l4xx_hal_pwr_ex.c ****   uint32_t wait_loop_index;
 2008              		.loc 1 1146 3 view .LVU449
1147:../Resources/Drivers/STM32L4xx_HAL_Driver/Src/stm32l4xx_hal_pwr_ex.c **** 
1148:../Resources/Drivers/STM32L4xx_HAL_Driver/Src/stm32l4xx_hal_pwr_ex.c ****   /* Clear LPR bit */
1149:../Resources/Drivers/STM32L4xx_HAL_Driver/Src/stm32l4xx_hal_pwr_ex.c ****   CLEAR_BIT(PWR->CR1, PWR_CR1_LPR);
 2009              		.loc 1 1149 3 view .LVU450
 2010 0000 104A     		ldr	r2, .L178
 2011 0002 1368     		ldr	r3, [r2]
 2012 0004 23F48043 		bic	r3, r3, #16384
 2013 0008 1360     		str	r3, [r2]
1150:../Resources/Drivers/STM32L4xx_HAL_Driver/Src/stm32l4xx_hal_pwr_ex.c **** 
1151:../Resources/Drivers/STM32L4xx_HAL_Driver/Src/stm32l4xx_hal_pwr_ex.c ****   /* Wait until REGLPF is reset */
1152:../Resources/Drivers/STM32L4xx_HAL_Driver/Src/stm32l4xx_hal_pwr_ex.c ****   wait_loop_index = ((PWR_FLAG_SETTING_DELAY_US * SystemCoreClock) / 1000000U) + 1U;
 2014              		.loc 1 1152 3 view .LVU451
 2015              		.loc 1 1152 49 is_stmt 0 view .LVU452
 2016 000a 0F4B     		ldr	r3, .L178+4
 2017 000c 1B68     		ldr	r3, [r3]
 2018 000e 3222     		movs	r2, #50
 2019 0010 02FB03F3 		mul	r3, r2, r3
 2020              		.loc 1 1152 68 view .LVU453
 2021 0014 0D4A     		ldr	r2, .L178+8
 2022 0016 A2FB0323 		umull	r2, r3, r2, r3
 2023 001a 9B0C     		lsrs	r3, r3, #18
 2024              		.loc 1 1152 19 view .LVU454
 2025 001c 0133     		adds	r3, r3, #1
 2026              	.LVL144:
1153:../Resources/Drivers/STM32L4xx_HAL_Driver/Src/stm32l4xx_hal_pwr_ex.c ****   while ((HAL_IS_BIT_SET(PWR->SR2, PWR_SR2_REGLPF)) && (wait_loop_index != 0U))
 2027              		.loc 1 1153 3 is_stmt 1 view .LVU455
 2028              		.loc 1 1153 9 is_stmt 0 view .LVU456
 2029 001e 00E0     		b	.L173
 2030              	.L175:
1154:../Resources/Drivers/STM32L4xx_HAL_Driver/Src/stm32l4xx_hal_pwr_ex.c ****   {
1155:../Resources/Drivers/STM32L4xx_HAL_Driver/Src/stm32l4xx_hal_pwr_ex.c ****     wait_loop_index--;
ARM GAS  /tmp/ccMFwPRI.s 			page 58


 2031              		.loc 1 1155 5 is_stmt 1 view .LVU457
 2032              		.loc 1 1155 20 is_stmt 0 view .LVU458
 2033 0020 013B     		subs	r3, r3, #1
 2034              	.LVL145:
 2035              	.L173:
1153:../Resources/Drivers/STM32L4xx_HAL_Driver/Src/stm32l4xx_hal_pwr_ex.c ****   while ((HAL_IS_BIT_SET(PWR->SR2, PWR_SR2_REGLPF)) && (wait_loop_index != 0U))
 2036              		.loc 1 1153 9 is_stmt 1 view .LVU459
1153:../Resources/Drivers/STM32L4xx_HAL_Driver/Src/stm32l4xx_hal_pwr_ex.c ****   while ((HAL_IS_BIT_SET(PWR->SR2, PWR_SR2_REGLPF)) && (wait_loop_index != 0U))
 2037              		.loc 1 1153 11 is_stmt 0 view .LVU460
 2038 0022 084A     		ldr	r2, .L178
 2039 0024 5269     		ldr	r2, [r2, #20]
1153:../Resources/Drivers/STM32L4xx_HAL_Driver/Src/stm32l4xx_hal_pwr_ex.c ****   while ((HAL_IS_BIT_SET(PWR->SR2, PWR_SR2_REGLPF)) && (wait_loop_index != 0U))
 2040              		.loc 1 1153 9 view .LVU461
 2041 0026 12F4007F 		tst	r2, #512
 2042 002a 01D0     		beq	.L174
1153:../Resources/Drivers/STM32L4xx_HAL_Driver/Src/stm32l4xx_hal_pwr_ex.c ****   while ((HAL_IS_BIT_SET(PWR->SR2, PWR_SR2_REGLPF)) && (wait_loop_index != 0U))
 2043              		.loc 1 1153 53 discriminator 1 view .LVU462
 2044 002c 002B     		cmp	r3, #0
 2045 002e F7D1     		bne	.L175
 2046              	.L174:
1156:../Resources/Drivers/STM32L4xx_HAL_Driver/Src/stm32l4xx_hal_pwr_ex.c ****   }
1157:../Resources/Drivers/STM32L4xx_HAL_Driver/Src/stm32l4xx_hal_pwr_ex.c ****   if (HAL_IS_BIT_SET(PWR->SR2, PWR_SR2_REGLPF))
 2047              		.loc 1 1157 3 is_stmt 1 view .LVU463
 2048              		.loc 1 1157 7 is_stmt 0 view .LVU464
 2049 0030 044B     		ldr	r3, .L178
 2050              	.LVL146:
 2051              		.loc 1 1157 7 view .LVU465
 2052 0032 5B69     		ldr	r3, [r3, #20]
 2053              		.loc 1 1157 6 view .LVU466
 2054 0034 13F4007F 		tst	r3, #512
 2055 0038 01D1     		bne	.L177
1158:../Resources/Drivers/STM32L4xx_HAL_Driver/Src/stm32l4xx_hal_pwr_ex.c ****   {
1159:../Resources/Drivers/STM32L4xx_HAL_Driver/Src/stm32l4xx_hal_pwr_ex.c ****     return HAL_TIMEOUT;
1160:../Resources/Drivers/STM32L4xx_HAL_Driver/Src/stm32l4xx_hal_pwr_ex.c ****   }
1161:../Resources/Drivers/STM32L4xx_HAL_Driver/Src/stm32l4xx_hal_pwr_ex.c **** 
1162:../Resources/Drivers/STM32L4xx_HAL_Driver/Src/stm32l4xx_hal_pwr_ex.c ****   return HAL_OK;
 2056              		.loc 1 1162 10 view .LVU467
 2057 003a 0020     		movs	r0, #0
 2058 003c 7047     		bx	lr
 2059              	.L177:
1159:../Resources/Drivers/STM32L4xx_HAL_Driver/Src/stm32l4xx_hal_pwr_ex.c ****   }
 2060              		.loc 1 1159 12 view .LVU468
 2061 003e 0320     		movs	r0, #3
1163:../Resources/Drivers/STM32L4xx_HAL_Driver/Src/stm32l4xx_hal_pwr_ex.c **** }
 2062              		.loc 1 1163 1 view .LVU469
 2063 0040 7047     		bx	lr
 2064              	.L179:
 2065 0042 00BF     		.align	2
 2066              	.L178:
 2067 0044 00700040 		.word	1073770496
 2068 0048 00000000 		.word	SystemCoreClock
 2069 004c 83DE1B43 		.word	1125899907
 2070              		.cfi_endproc
 2071              	.LFE163:
 2073              		.section	.text.HAL_PWREx_EnterSTOP0Mode,"ax",%progbits
 2074              		.align	1
 2075              		.global	HAL_PWREx_EnterSTOP0Mode
ARM GAS  /tmp/ccMFwPRI.s 			page 59


 2076              		.syntax unified
 2077              		.thumb
 2078              		.thumb_func
 2080              	HAL_PWREx_EnterSTOP0Mode:
 2081              	.LVL147:
 2082              	.LFB164:
1164:../Resources/Drivers/STM32L4xx_HAL_Driver/Src/stm32l4xx_hal_pwr_ex.c **** 
1165:../Resources/Drivers/STM32L4xx_HAL_Driver/Src/stm32l4xx_hal_pwr_ex.c **** 
1166:../Resources/Drivers/STM32L4xx_HAL_Driver/Src/stm32l4xx_hal_pwr_ex.c **** /**
1167:../Resources/Drivers/STM32L4xx_HAL_Driver/Src/stm32l4xx_hal_pwr_ex.c ****   * @brief Enter Stop 0 mode.
1168:../Resources/Drivers/STM32L4xx_HAL_Driver/Src/stm32l4xx_hal_pwr_ex.c ****   * @note  In Stop 0 mode, main and low voltage regulators are ON.
1169:../Resources/Drivers/STM32L4xx_HAL_Driver/Src/stm32l4xx_hal_pwr_ex.c ****   * @note  In Stop 0 mode, all I/O pins keep the same state as in Run mode.
1170:../Resources/Drivers/STM32L4xx_HAL_Driver/Src/stm32l4xx_hal_pwr_ex.c ****   * @note  All clocks in the VCORE domain are stopped; the PLL, the MSI,
1171:../Resources/Drivers/STM32L4xx_HAL_Driver/Src/stm32l4xx_hal_pwr_ex.c ****   *        the HSI and the HSE oscillators are disabled. Some peripherals with the wakeup capabilit
1172:../Resources/Drivers/STM32L4xx_HAL_Driver/Src/stm32l4xx_hal_pwr_ex.c ****   *        (I2Cx, USARTx and LPUART) can switch on the HSI to receive a frame, and switch off the H
1173:../Resources/Drivers/STM32L4xx_HAL_Driver/Src/stm32l4xx_hal_pwr_ex.c ****   *        after receiving the frame if it is not a wakeup frame. In this case, the HSI clock is pr
1174:../Resources/Drivers/STM32L4xx_HAL_Driver/Src/stm32l4xx_hal_pwr_ex.c ****   *        only to the peripheral requesting it.
1175:../Resources/Drivers/STM32L4xx_HAL_Driver/Src/stm32l4xx_hal_pwr_ex.c ****   *        SRAM1, SRAM2 and register contents are preserved.
1176:../Resources/Drivers/STM32L4xx_HAL_Driver/Src/stm32l4xx_hal_pwr_ex.c ****   *        The BOR is available.
1177:../Resources/Drivers/STM32L4xx_HAL_Driver/Src/stm32l4xx_hal_pwr_ex.c ****   * @note  When exiting Stop 0 mode by issuing an interrupt or a wakeup event,
1178:../Resources/Drivers/STM32L4xx_HAL_Driver/Src/stm32l4xx_hal_pwr_ex.c ****   *         the HSI RC oscillator is selected as system clock if STOPWUCK bit in RCC_CFGR register
1179:../Resources/Drivers/STM32L4xx_HAL_Driver/Src/stm32l4xx_hal_pwr_ex.c ****   *         is set; the MSI oscillator is selected if STOPWUCK is cleared.
1180:../Resources/Drivers/STM32L4xx_HAL_Driver/Src/stm32l4xx_hal_pwr_ex.c ****   * @note  By keeping the internal regulator ON during Stop 0 mode, the consumption
1181:../Resources/Drivers/STM32L4xx_HAL_Driver/Src/stm32l4xx_hal_pwr_ex.c ****   *         is higher although the startup time is reduced.
1182:../Resources/Drivers/STM32L4xx_HAL_Driver/Src/stm32l4xx_hal_pwr_ex.c ****   * @param STOPEntry  specifies if Stop mode in entered with WFI or WFE instruction.
1183:../Resources/Drivers/STM32L4xx_HAL_Driver/Src/stm32l4xx_hal_pwr_ex.c ****   *          This parameter can be one of the following values:
1184:../Resources/Drivers/STM32L4xx_HAL_Driver/Src/stm32l4xx_hal_pwr_ex.c ****   *            @arg @ref PWR_STOPENTRY_WFI  Enter Stop mode with WFI instruction
1185:../Resources/Drivers/STM32L4xx_HAL_Driver/Src/stm32l4xx_hal_pwr_ex.c ****   *            @arg @ref PWR_STOPENTRY_WFE  Enter Stop mode with WFE instruction
1186:../Resources/Drivers/STM32L4xx_HAL_Driver/Src/stm32l4xx_hal_pwr_ex.c ****   * @retval None
1187:../Resources/Drivers/STM32L4xx_HAL_Driver/Src/stm32l4xx_hal_pwr_ex.c ****   */
1188:../Resources/Drivers/STM32L4xx_HAL_Driver/Src/stm32l4xx_hal_pwr_ex.c **** void HAL_PWREx_EnterSTOP0Mode(uint8_t STOPEntry)
1189:../Resources/Drivers/STM32L4xx_HAL_Driver/Src/stm32l4xx_hal_pwr_ex.c **** {
 2083              		.loc 1 1189 1 is_stmt 1 view -0
 2084              		.cfi_startproc
 2085              		@ args = 0, pretend = 0, frame = 0
 2086              		@ frame_needed = 0, uses_anonymous_args = 0
 2087              		@ link register save eliminated.
1190:../Resources/Drivers/STM32L4xx_HAL_Driver/Src/stm32l4xx_hal_pwr_ex.c ****   /* Check the parameters */
1191:../Resources/Drivers/STM32L4xx_HAL_Driver/Src/stm32l4xx_hal_pwr_ex.c ****   assert_param(IS_PWR_STOP_ENTRY(STOPEntry));
 2088              		.loc 1 1191 3 view .LVU471
1192:../Resources/Drivers/STM32L4xx_HAL_Driver/Src/stm32l4xx_hal_pwr_ex.c **** 
1193:../Resources/Drivers/STM32L4xx_HAL_Driver/Src/stm32l4xx_hal_pwr_ex.c ****   /* Stop 0 mode with Main Regulator */
1194:../Resources/Drivers/STM32L4xx_HAL_Driver/Src/stm32l4xx_hal_pwr_ex.c ****   MODIFY_REG(PWR->CR1, PWR_CR1_LPMS, PWR_CR1_LPMS_STOP0);
 2089              		.loc 1 1194 3 view .LVU472
 2090 0000 0B4A     		ldr	r2, .L184
 2091 0002 1368     		ldr	r3, [r2]
 2092 0004 23F00703 		bic	r3, r3, #7
 2093 0008 1360     		str	r3, [r2]
1195:../Resources/Drivers/STM32L4xx_HAL_Driver/Src/stm32l4xx_hal_pwr_ex.c **** 
1196:../Resources/Drivers/STM32L4xx_HAL_Driver/Src/stm32l4xx_hal_pwr_ex.c ****   /* Set SLEEPDEEP bit of Cortex System Control Register */
1197:../Resources/Drivers/STM32L4xx_HAL_Driver/Src/stm32l4xx_hal_pwr_ex.c ****   SET_BIT(SCB->SCR, ((uint32_t)SCB_SCR_SLEEPDEEP_Msk));
 2094              		.loc 1 1197 3 view .LVU473
 2095 000a 0A4A     		ldr	r2, .L184+4
 2096 000c 1369     		ldr	r3, [r2, #16]
 2097 000e 43F00403 		orr	r3, r3, #4
 2098 0012 1361     		str	r3, [r2, #16]
1198:../Resources/Drivers/STM32L4xx_HAL_Driver/Src/stm32l4xx_hal_pwr_ex.c **** 
ARM GAS  /tmp/ccMFwPRI.s 			page 60


1199:../Resources/Drivers/STM32L4xx_HAL_Driver/Src/stm32l4xx_hal_pwr_ex.c ****   /* Select Stop mode entry --------------------------------------------------*/
1200:../Resources/Drivers/STM32L4xx_HAL_Driver/Src/stm32l4xx_hal_pwr_ex.c ****   if(STOPEntry == PWR_STOPENTRY_WFI)
 2099              		.loc 1 1200 3 view .LVU474
 2100              		.loc 1 1200 5 is_stmt 0 view .LVU475
 2101 0014 0128     		cmp	r0, #1
 2102 0016 08D0     		beq	.L183
1201:../Resources/Drivers/STM32L4xx_HAL_Driver/Src/stm32l4xx_hal_pwr_ex.c ****   {
1202:../Resources/Drivers/STM32L4xx_HAL_Driver/Src/stm32l4xx_hal_pwr_ex.c ****     /* Request Wait For Interrupt */
1203:../Resources/Drivers/STM32L4xx_HAL_Driver/Src/stm32l4xx_hal_pwr_ex.c ****     __WFI();
1204:../Resources/Drivers/STM32L4xx_HAL_Driver/Src/stm32l4xx_hal_pwr_ex.c ****   }
1205:../Resources/Drivers/STM32L4xx_HAL_Driver/Src/stm32l4xx_hal_pwr_ex.c ****   else
1206:../Resources/Drivers/STM32L4xx_HAL_Driver/Src/stm32l4xx_hal_pwr_ex.c ****   {
1207:../Resources/Drivers/STM32L4xx_HAL_Driver/Src/stm32l4xx_hal_pwr_ex.c ****     /* Request Wait For Event */
1208:../Resources/Drivers/STM32L4xx_HAL_Driver/Src/stm32l4xx_hal_pwr_ex.c ****     __SEV();
 2103              		.loc 1 1208 5 is_stmt 1 view .LVU476
 2104              		.syntax unified
 2105              	@ 1208 "../Resources/Drivers/STM32L4xx_HAL_Driver/Src/stm32l4xx_hal_pwr_ex.c" 1
 2106 0018 40BF     		sev
 2107              	@ 0 "" 2
1209:../Resources/Drivers/STM32L4xx_HAL_Driver/Src/stm32l4xx_hal_pwr_ex.c ****     __WFE();
 2108              		.loc 1 1209 5 view .LVU477
 2109              	@ 1209 "../Resources/Drivers/STM32L4xx_HAL_Driver/Src/stm32l4xx_hal_pwr_ex.c" 1
 2110 001a 20BF     		wfe
 2111              	@ 0 "" 2
1210:../Resources/Drivers/STM32L4xx_HAL_Driver/Src/stm32l4xx_hal_pwr_ex.c ****     __WFE();
 2112              		.loc 1 1210 5 view .LVU478
 2113              	@ 1210 "../Resources/Drivers/STM32L4xx_HAL_Driver/Src/stm32l4xx_hal_pwr_ex.c" 1
 2114 001c 20BF     		wfe
 2115              	@ 0 "" 2
 2116              		.thumb
 2117              		.syntax unified
 2118              	.L182:
1211:../Resources/Drivers/STM32L4xx_HAL_Driver/Src/stm32l4xx_hal_pwr_ex.c ****   }
1212:../Resources/Drivers/STM32L4xx_HAL_Driver/Src/stm32l4xx_hal_pwr_ex.c **** 
1213:../Resources/Drivers/STM32L4xx_HAL_Driver/Src/stm32l4xx_hal_pwr_ex.c ****   /* Reset SLEEPDEEP bit of Cortex System Control Register */
1214:../Resources/Drivers/STM32L4xx_HAL_Driver/Src/stm32l4xx_hal_pwr_ex.c ****   CLEAR_BIT(SCB->SCR, ((uint32_t)SCB_SCR_SLEEPDEEP_Msk));
 2119              		.loc 1 1214 3 view .LVU479
 2120 001e 054A     		ldr	r2, .L184+4
 2121 0020 1369     		ldr	r3, [r2, #16]
 2122 0022 23F00403 		bic	r3, r3, #4
 2123 0026 1361     		str	r3, [r2, #16]
1215:../Resources/Drivers/STM32L4xx_HAL_Driver/Src/stm32l4xx_hal_pwr_ex.c **** }
 2124              		.loc 1 1215 1 is_stmt 0 view .LVU480
 2125 0028 7047     		bx	lr
 2126              	.L183:
1203:../Resources/Drivers/STM32L4xx_HAL_Driver/Src/stm32l4xx_hal_pwr_ex.c ****   }
 2127              		.loc 1 1203 5 is_stmt 1 view .LVU481
 2128              		.syntax unified
 2129              	@ 1203 "../Resources/Drivers/STM32L4xx_HAL_Driver/Src/stm32l4xx_hal_pwr_ex.c" 1
 2130 002a 30BF     		wfi
 2131              	@ 0 "" 2
 2132              		.thumb
 2133              		.syntax unified
 2134 002c F7E7     		b	.L182
 2135              	.L185:
 2136 002e 00BF     		.align	2
 2137              	.L184:
ARM GAS  /tmp/ccMFwPRI.s 			page 61


 2138 0030 00700040 		.word	1073770496
 2139 0034 00ED00E0 		.word	-536810240
 2140              		.cfi_endproc
 2141              	.LFE164:
 2143              		.section	.text.HAL_PWREx_EnterSTOP1Mode,"ax",%progbits
 2144              		.align	1
 2145              		.global	HAL_PWREx_EnterSTOP1Mode
 2146              		.syntax unified
 2147              		.thumb
 2148              		.thumb_func
 2150              	HAL_PWREx_EnterSTOP1Mode:
 2151              	.LVL148:
 2152              	.LFB165:
1216:../Resources/Drivers/STM32L4xx_HAL_Driver/Src/stm32l4xx_hal_pwr_ex.c **** 
1217:../Resources/Drivers/STM32L4xx_HAL_Driver/Src/stm32l4xx_hal_pwr_ex.c **** 
1218:../Resources/Drivers/STM32L4xx_HAL_Driver/Src/stm32l4xx_hal_pwr_ex.c **** /**
1219:../Resources/Drivers/STM32L4xx_HAL_Driver/Src/stm32l4xx_hal_pwr_ex.c ****   * @brief Enter Stop 1 mode.
1220:../Resources/Drivers/STM32L4xx_HAL_Driver/Src/stm32l4xx_hal_pwr_ex.c ****   * @note  In Stop 1 mode, only low power voltage regulator is ON.
1221:../Resources/Drivers/STM32L4xx_HAL_Driver/Src/stm32l4xx_hal_pwr_ex.c ****   * @note  In Stop 1 mode, all I/O pins keep the same state as in Run mode.
1222:../Resources/Drivers/STM32L4xx_HAL_Driver/Src/stm32l4xx_hal_pwr_ex.c ****   * @note  All clocks in the VCORE domain are stopped; the PLL, the MSI,
1223:../Resources/Drivers/STM32L4xx_HAL_Driver/Src/stm32l4xx_hal_pwr_ex.c ****   *        the HSI and the HSE oscillators are disabled. Some peripherals with the wakeup capabilit
1224:../Resources/Drivers/STM32L4xx_HAL_Driver/Src/stm32l4xx_hal_pwr_ex.c ****   *        (I2Cx, USARTx and LPUART) can switch on the HSI to receive a frame, and switch off the H
1225:../Resources/Drivers/STM32L4xx_HAL_Driver/Src/stm32l4xx_hal_pwr_ex.c ****   *        after receiving the frame if it is not a wakeup frame. In this case, the HSI clock is pr
1226:../Resources/Drivers/STM32L4xx_HAL_Driver/Src/stm32l4xx_hal_pwr_ex.c ****   *        only to the peripheral requesting it.
1227:../Resources/Drivers/STM32L4xx_HAL_Driver/Src/stm32l4xx_hal_pwr_ex.c ****   *        SRAM1, SRAM2 and register contents are preserved.
1228:../Resources/Drivers/STM32L4xx_HAL_Driver/Src/stm32l4xx_hal_pwr_ex.c ****   *        The BOR is available.
1229:../Resources/Drivers/STM32L4xx_HAL_Driver/Src/stm32l4xx_hal_pwr_ex.c ****   * @note  When exiting Stop 1 mode by issuing an interrupt or a wakeup event,
1230:../Resources/Drivers/STM32L4xx_HAL_Driver/Src/stm32l4xx_hal_pwr_ex.c ****   *         the HSI RC oscillator is selected as system clock if STOPWUCK bit in RCC_CFGR register
1231:../Resources/Drivers/STM32L4xx_HAL_Driver/Src/stm32l4xx_hal_pwr_ex.c ****   *         is set; the MSI oscillator is selected if STOPWUCK is cleared.
1232:../Resources/Drivers/STM32L4xx_HAL_Driver/Src/stm32l4xx_hal_pwr_ex.c ****   * @note  Due to low power mode, an additional startup delay is incurred when waking up from Stop 
1233:../Resources/Drivers/STM32L4xx_HAL_Driver/Src/stm32l4xx_hal_pwr_ex.c ****   * @param STOPEntry  specifies if Stop mode in entered with WFI or WFE instruction.
1234:../Resources/Drivers/STM32L4xx_HAL_Driver/Src/stm32l4xx_hal_pwr_ex.c ****   *          This parameter can be one of the following values:
1235:../Resources/Drivers/STM32L4xx_HAL_Driver/Src/stm32l4xx_hal_pwr_ex.c ****   *            @arg @ref PWR_STOPENTRY_WFI  Enter Stop mode with WFI instruction
1236:../Resources/Drivers/STM32L4xx_HAL_Driver/Src/stm32l4xx_hal_pwr_ex.c ****   *            @arg @ref PWR_STOPENTRY_WFE  Enter Stop mode with WFE instruction
1237:../Resources/Drivers/STM32L4xx_HAL_Driver/Src/stm32l4xx_hal_pwr_ex.c ****   * @retval None
1238:../Resources/Drivers/STM32L4xx_HAL_Driver/Src/stm32l4xx_hal_pwr_ex.c ****   */
1239:../Resources/Drivers/STM32L4xx_HAL_Driver/Src/stm32l4xx_hal_pwr_ex.c **** void HAL_PWREx_EnterSTOP1Mode(uint8_t STOPEntry)
1240:../Resources/Drivers/STM32L4xx_HAL_Driver/Src/stm32l4xx_hal_pwr_ex.c **** {
 2153              		.loc 1 1240 1 view -0
 2154              		.cfi_startproc
 2155              		@ args = 0, pretend = 0, frame = 0
 2156              		@ frame_needed = 0, uses_anonymous_args = 0
 2157              		@ link register save eliminated.
1241:../Resources/Drivers/STM32L4xx_HAL_Driver/Src/stm32l4xx_hal_pwr_ex.c ****   /* Check the parameters */
1242:../Resources/Drivers/STM32L4xx_HAL_Driver/Src/stm32l4xx_hal_pwr_ex.c ****   assert_param(IS_PWR_STOP_ENTRY(STOPEntry));
 2158              		.loc 1 1242 3 view .LVU483
1243:../Resources/Drivers/STM32L4xx_HAL_Driver/Src/stm32l4xx_hal_pwr_ex.c **** 
1244:../Resources/Drivers/STM32L4xx_HAL_Driver/Src/stm32l4xx_hal_pwr_ex.c ****   /* Stop 1 mode with Low-Power Regulator */
1245:../Resources/Drivers/STM32L4xx_HAL_Driver/Src/stm32l4xx_hal_pwr_ex.c ****   MODIFY_REG(PWR->CR1, PWR_CR1_LPMS, PWR_CR1_LPMS_STOP1);
 2159              		.loc 1 1245 3 view .LVU484
 2160 0000 0C4A     		ldr	r2, .L190
 2161 0002 1368     		ldr	r3, [r2]
 2162 0004 23F00703 		bic	r3, r3, #7
 2163 0008 43F00103 		orr	r3, r3, #1
 2164 000c 1360     		str	r3, [r2]
1246:../Resources/Drivers/STM32L4xx_HAL_Driver/Src/stm32l4xx_hal_pwr_ex.c **** 
1247:../Resources/Drivers/STM32L4xx_HAL_Driver/Src/stm32l4xx_hal_pwr_ex.c ****   /* Set SLEEPDEEP bit of Cortex System Control Register */
ARM GAS  /tmp/ccMFwPRI.s 			page 62


1248:../Resources/Drivers/STM32L4xx_HAL_Driver/Src/stm32l4xx_hal_pwr_ex.c ****   SET_BIT(SCB->SCR, ((uint32_t)SCB_SCR_SLEEPDEEP_Msk));
 2165              		.loc 1 1248 3 view .LVU485
 2166 000e 0A4A     		ldr	r2, .L190+4
 2167 0010 1369     		ldr	r3, [r2, #16]
 2168 0012 43F00403 		orr	r3, r3, #4
 2169 0016 1361     		str	r3, [r2, #16]
1249:../Resources/Drivers/STM32L4xx_HAL_Driver/Src/stm32l4xx_hal_pwr_ex.c **** 
1250:../Resources/Drivers/STM32L4xx_HAL_Driver/Src/stm32l4xx_hal_pwr_ex.c ****   /* Select Stop mode entry --------------------------------------------------*/
1251:../Resources/Drivers/STM32L4xx_HAL_Driver/Src/stm32l4xx_hal_pwr_ex.c ****   if(STOPEntry == PWR_STOPENTRY_WFI)
 2170              		.loc 1 1251 3 view .LVU486
 2171              		.loc 1 1251 5 is_stmt 0 view .LVU487
 2172 0018 0128     		cmp	r0, #1
 2173 001a 08D0     		beq	.L189
1252:../Resources/Drivers/STM32L4xx_HAL_Driver/Src/stm32l4xx_hal_pwr_ex.c ****   {
1253:../Resources/Drivers/STM32L4xx_HAL_Driver/Src/stm32l4xx_hal_pwr_ex.c ****     /* Request Wait For Interrupt */
1254:../Resources/Drivers/STM32L4xx_HAL_Driver/Src/stm32l4xx_hal_pwr_ex.c ****     __WFI();
1255:../Resources/Drivers/STM32L4xx_HAL_Driver/Src/stm32l4xx_hal_pwr_ex.c ****   }
1256:../Resources/Drivers/STM32L4xx_HAL_Driver/Src/stm32l4xx_hal_pwr_ex.c ****   else
1257:../Resources/Drivers/STM32L4xx_HAL_Driver/Src/stm32l4xx_hal_pwr_ex.c ****   {
1258:../Resources/Drivers/STM32L4xx_HAL_Driver/Src/stm32l4xx_hal_pwr_ex.c ****     /* Request Wait For Event */
1259:../Resources/Drivers/STM32L4xx_HAL_Driver/Src/stm32l4xx_hal_pwr_ex.c ****     __SEV();
 2174              		.loc 1 1259 5 is_stmt 1 view .LVU488
 2175              		.syntax unified
 2176              	@ 1259 "../Resources/Drivers/STM32L4xx_HAL_Driver/Src/stm32l4xx_hal_pwr_ex.c" 1
 2177 001c 40BF     		sev
 2178              	@ 0 "" 2
1260:../Resources/Drivers/STM32L4xx_HAL_Driver/Src/stm32l4xx_hal_pwr_ex.c ****     __WFE();
 2179              		.loc 1 1260 5 view .LVU489
 2180              	@ 1260 "../Resources/Drivers/STM32L4xx_HAL_Driver/Src/stm32l4xx_hal_pwr_ex.c" 1
 2181 001e 20BF     		wfe
 2182              	@ 0 "" 2
1261:../Resources/Drivers/STM32L4xx_HAL_Driver/Src/stm32l4xx_hal_pwr_ex.c ****     __WFE();
 2183              		.loc 1 1261 5 view .LVU490
 2184              	@ 1261 "../Resources/Drivers/STM32L4xx_HAL_Driver/Src/stm32l4xx_hal_pwr_ex.c" 1
 2185 0020 20BF     		wfe
 2186              	@ 0 "" 2
 2187              		.thumb
 2188              		.syntax unified
 2189              	.L188:
1262:../Resources/Drivers/STM32L4xx_HAL_Driver/Src/stm32l4xx_hal_pwr_ex.c ****   }
1263:../Resources/Drivers/STM32L4xx_HAL_Driver/Src/stm32l4xx_hal_pwr_ex.c **** 
1264:../Resources/Drivers/STM32L4xx_HAL_Driver/Src/stm32l4xx_hal_pwr_ex.c ****   /* Reset SLEEPDEEP bit of Cortex System Control Register */
1265:../Resources/Drivers/STM32L4xx_HAL_Driver/Src/stm32l4xx_hal_pwr_ex.c ****   CLEAR_BIT(SCB->SCR, ((uint32_t)SCB_SCR_SLEEPDEEP_Msk));
 2190              		.loc 1 1265 3 view .LVU491
 2191 0022 054A     		ldr	r2, .L190+4
 2192 0024 1369     		ldr	r3, [r2, #16]
 2193 0026 23F00403 		bic	r3, r3, #4
 2194 002a 1361     		str	r3, [r2, #16]
1266:../Resources/Drivers/STM32L4xx_HAL_Driver/Src/stm32l4xx_hal_pwr_ex.c **** }
 2195              		.loc 1 1266 1 is_stmt 0 view .LVU492
 2196 002c 7047     		bx	lr
 2197              	.L189:
1254:../Resources/Drivers/STM32L4xx_HAL_Driver/Src/stm32l4xx_hal_pwr_ex.c ****   }
 2198              		.loc 1 1254 5 is_stmt 1 view .LVU493
 2199              		.syntax unified
 2200              	@ 1254 "../Resources/Drivers/STM32L4xx_HAL_Driver/Src/stm32l4xx_hal_pwr_ex.c" 1
 2201 002e 30BF     		wfi
ARM GAS  /tmp/ccMFwPRI.s 			page 63


 2202              	@ 0 "" 2
 2203              		.thumb
 2204              		.syntax unified
 2205 0030 F7E7     		b	.L188
 2206              	.L191:
 2207 0032 00BF     		.align	2
 2208              	.L190:
 2209 0034 00700040 		.word	1073770496
 2210 0038 00ED00E0 		.word	-536810240
 2211              		.cfi_endproc
 2212              	.LFE165:
 2214              		.section	.text.HAL_PWREx_EnterSTOP2Mode,"ax",%progbits
 2215              		.align	1
 2216              		.global	HAL_PWREx_EnterSTOP2Mode
 2217              		.syntax unified
 2218              		.thumb
 2219              		.thumb_func
 2221              	HAL_PWREx_EnterSTOP2Mode:
 2222              	.LVL149:
 2223              	.LFB166:
1267:../Resources/Drivers/STM32L4xx_HAL_Driver/Src/stm32l4xx_hal_pwr_ex.c **** 
1268:../Resources/Drivers/STM32L4xx_HAL_Driver/Src/stm32l4xx_hal_pwr_ex.c **** 
1269:../Resources/Drivers/STM32L4xx_HAL_Driver/Src/stm32l4xx_hal_pwr_ex.c **** /**
1270:../Resources/Drivers/STM32L4xx_HAL_Driver/Src/stm32l4xx_hal_pwr_ex.c ****   * @brief Enter Stop 2 mode.
1271:../Resources/Drivers/STM32L4xx_HAL_Driver/Src/stm32l4xx_hal_pwr_ex.c ****   * @note  In Stop 2 mode, only low power voltage regulator is ON.
1272:../Resources/Drivers/STM32L4xx_HAL_Driver/Src/stm32l4xx_hal_pwr_ex.c ****   * @note  In Stop 2 mode, all I/O pins keep the same state as in Run mode.
1273:../Resources/Drivers/STM32L4xx_HAL_Driver/Src/stm32l4xx_hal_pwr_ex.c ****   * @note  All clocks in the VCORE domain are stopped, the PLL, the MSI,
1274:../Resources/Drivers/STM32L4xx_HAL_Driver/Src/stm32l4xx_hal_pwr_ex.c ****   *        the HSI and the HSE oscillators are disabled. Some peripherals with wakeup capability
1275:../Resources/Drivers/STM32L4xx_HAL_Driver/Src/stm32l4xx_hal_pwr_ex.c ****   *        (LCD, LPTIM1, I2C3 and LPUART) can switch on the HSI to receive a frame, and switch off 
1276:../Resources/Drivers/STM32L4xx_HAL_Driver/Src/stm32l4xx_hal_pwr_ex.c ****   *        receiving the frame if it is not a wakeup frame. In this case the HSI clock is propagate
1277:../Resources/Drivers/STM32L4xx_HAL_Driver/Src/stm32l4xx_hal_pwr_ex.c ****   *        to the peripheral requesting it.
1278:../Resources/Drivers/STM32L4xx_HAL_Driver/Src/stm32l4xx_hal_pwr_ex.c ****   *        SRAM1, SRAM2 and register contents are preserved.
1279:../Resources/Drivers/STM32L4xx_HAL_Driver/Src/stm32l4xx_hal_pwr_ex.c ****   *        SRAM3 content is preserved depending on RRSTP bit setting (not available on all devices)
1280:../Resources/Drivers/STM32L4xx_HAL_Driver/Src/stm32l4xx_hal_pwr_ex.c ****   *        The BOR is available.
1281:../Resources/Drivers/STM32L4xx_HAL_Driver/Src/stm32l4xx_hal_pwr_ex.c ****   *        The voltage regulator is set in low-power mode but LPR bit must be cleared to enter stop
1282:../Resources/Drivers/STM32L4xx_HAL_Driver/Src/stm32l4xx_hal_pwr_ex.c ****   *        Otherwise, Stop 1 mode is entered.
1283:../Resources/Drivers/STM32L4xx_HAL_Driver/Src/stm32l4xx_hal_pwr_ex.c ****   * @note  When exiting Stop 2 mode by issuing an interrupt or a wakeup event,
1284:../Resources/Drivers/STM32L4xx_HAL_Driver/Src/stm32l4xx_hal_pwr_ex.c ****   *         the HSI RC oscillator is selected as system clock if STOPWUCK bit in RCC_CFGR register
1285:../Resources/Drivers/STM32L4xx_HAL_Driver/Src/stm32l4xx_hal_pwr_ex.c ****   *         is set; the MSI oscillator is selected if STOPWUCK is cleared.
1286:../Resources/Drivers/STM32L4xx_HAL_Driver/Src/stm32l4xx_hal_pwr_ex.c ****   * @param STOPEntry  specifies if Stop mode in entered with WFI or WFE instruction.
1287:../Resources/Drivers/STM32L4xx_HAL_Driver/Src/stm32l4xx_hal_pwr_ex.c ****   *          This parameter can be one of the following values:
1288:../Resources/Drivers/STM32L4xx_HAL_Driver/Src/stm32l4xx_hal_pwr_ex.c ****   *            @arg @ref PWR_STOPENTRY_WFI  Enter Stop mode with WFI instruction
1289:../Resources/Drivers/STM32L4xx_HAL_Driver/Src/stm32l4xx_hal_pwr_ex.c ****   *            @arg @ref PWR_STOPENTRY_WFE  Enter Stop mode with WFE instruction
1290:../Resources/Drivers/STM32L4xx_HAL_Driver/Src/stm32l4xx_hal_pwr_ex.c ****   * @retval None
1291:../Resources/Drivers/STM32L4xx_HAL_Driver/Src/stm32l4xx_hal_pwr_ex.c ****   */
1292:../Resources/Drivers/STM32L4xx_HAL_Driver/Src/stm32l4xx_hal_pwr_ex.c **** void HAL_PWREx_EnterSTOP2Mode(uint8_t STOPEntry)
1293:../Resources/Drivers/STM32L4xx_HAL_Driver/Src/stm32l4xx_hal_pwr_ex.c **** {
 2224              		.loc 1 1293 1 view -0
 2225              		.cfi_startproc
 2226              		@ args = 0, pretend = 0, frame = 0
 2227              		@ frame_needed = 0, uses_anonymous_args = 0
 2228              		@ link register save eliminated.
1294:../Resources/Drivers/STM32L4xx_HAL_Driver/Src/stm32l4xx_hal_pwr_ex.c ****   /* Check the parameter */
1295:../Resources/Drivers/STM32L4xx_HAL_Driver/Src/stm32l4xx_hal_pwr_ex.c ****   assert_param(IS_PWR_STOP_ENTRY(STOPEntry));
 2229              		.loc 1 1295 3 view .LVU495
1296:../Resources/Drivers/STM32L4xx_HAL_Driver/Src/stm32l4xx_hal_pwr_ex.c **** 
1297:../Resources/Drivers/STM32L4xx_HAL_Driver/Src/stm32l4xx_hal_pwr_ex.c ****   /* Set Stop mode 2 */
ARM GAS  /tmp/ccMFwPRI.s 			page 64


1298:../Resources/Drivers/STM32L4xx_HAL_Driver/Src/stm32l4xx_hal_pwr_ex.c ****   MODIFY_REG(PWR->CR1, PWR_CR1_LPMS, PWR_CR1_LPMS_STOP2);
 2230              		.loc 1 1298 3 view .LVU496
 2231 0000 0C4A     		ldr	r2, .L196
 2232 0002 1368     		ldr	r3, [r2]
 2233 0004 23F00703 		bic	r3, r3, #7
 2234 0008 43F00203 		orr	r3, r3, #2
 2235 000c 1360     		str	r3, [r2]
1299:../Resources/Drivers/STM32L4xx_HAL_Driver/Src/stm32l4xx_hal_pwr_ex.c **** 
1300:../Resources/Drivers/STM32L4xx_HAL_Driver/Src/stm32l4xx_hal_pwr_ex.c ****   /* Set SLEEPDEEP bit of Cortex System Control Register */
1301:../Resources/Drivers/STM32L4xx_HAL_Driver/Src/stm32l4xx_hal_pwr_ex.c ****   SET_BIT(SCB->SCR, ((uint32_t)SCB_SCR_SLEEPDEEP_Msk));
 2236              		.loc 1 1301 3 view .LVU497
 2237 000e 0A4A     		ldr	r2, .L196+4
 2238 0010 1369     		ldr	r3, [r2, #16]
 2239 0012 43F00403 		orr	r3, r3, #4
 2240 0016 1361     		str	r3, [r2, #16]
1302:../Resources/Drivers/STM32L4xx_HAL_Driver/Src/stm32l4xx_hal_pwr_ex.c **** 
1303:../Resources/Drivers/STM32L4xx_HAL_Driver/Src/stm32l4xx_hal_pwr_ex.c ****   /* Select Stop mode entry --------------------------------------------------*/
1304:../Resources/Drivers/STM32L4xx_HAL_Driver/Src/stm32l4xx_hal_pwr_ex.c ****   if(STOPEntry == PWR_STOPENTRY_WFI)
 2241              		.loc 1 1304 3 view .LVU498
 2242              		.loc 1 1304 5 is_stmt 0 view .LVU499
 2243 0018 0128     		cmp	r0, #1
 2244 001a 08D0     		beq	.L195
1305:../Resources/Drivers/STM32L4xx_HAL_Driver/Src/stm32l4xx_hal_pwr_ex.c ****   {
1306:../Resources/Drivers/STM32L4xx_HAL_Driver/Src/stm32l4xx_hal_pwr_ex.c ****     /* Request Wait For Interrupt */
1307:../Resources/Drivers/STM32L4xx_HAL_Driver/Src/stm32l4xx_hal_pwr_ex.c ****     __WFI();
1308:../Resources/Drivers/STM32L4xx_HAL_Driver/Src/stm32l4xx_hal_pwr_ex.c ****   }
1309:../Resources/Drivers/STM32L4xx_HAL_Driver/Src/stm32l4xx_hal_pwr_ex.c ****   else
1310:../Resources/Drivers/STM32L4xx_HAL_Driver/Src/stm32l4xx_hal_pwr_ex.c ****   {
1311:../Resources/Drivers/STM32L4xx_HAL_Driver/Src/stm32l4xx_hal_pwr_ex.c ****     /* Request Wait For Event */
1312:../Resources/Drivers/STM32L4xx_HAL_Driver/Src/stm32l4xx_hal_pwr_ex.c ****     __SEV();
 2245              		.loc 1 1312 5 is_stmt 1 view .LVU500
 2246              		.syntax unified
 2247              	@ 1312 "../Resources/Drivers/STM32L4xx_HAL_Driver/Src/stm32l4xx_hal_pwr_ex.c" 1
 2248 001c 40BF     		sev
 2249              	@ 0 "" 2
1313:../Resources/Drivers/STM32L4xx_HAL_Driver/Src/stm32l4xx_hal_pwr_ex.c ****     __WFE();
 2250              		.loc 1 1313 5 view .LVU501
 2251              	@ 1313 "../Resources/Drivers/STM32L4xx_HAL_Driver/Src/stm32l4xx_hal_pwr_ex.c" 1
 2252 001e 20BF     		wfe
 2253              	@ 0 "" 2
1314:../Resources/Drivers/STM32L4xx_HAL_Driver/Src/stm32l4xx_hal_pwr_ex.c ****     __WFE();
 2254              		.loc 1 1314 5 view .LVU502
 2255              	@ 1314 "../Resources/Drivers/STM32L4xx_HAL_Driver/Src/stm32l4xx_hal_pwr_ex.c" 1
 2256 0020 20BF     		wfe
 2257              	@ 0 "" 2
 2258              		.thumb
 2259              		.syntax unified
 2260              	.L194:
1315:../Resources/Drivers/STM32L4xx_HAL_Driver/Src/stm32l4xx_hal_pwr_ex.c ****   }
1316:../Resources/Drivers/STM32L4xx_HAL_Driver/Src/stm32l4xx_hal_pwr_ex.c **** 
1317:../Resources/Drivers/STM32L4xx_HAL_Driver/Src/stm32l4xx_hal_pwr_ex.c ****   /* Reset SLEEPDEEP bit of Cortex System Control Register */
1318:../Resources/Drivers/STM32L4xx_HAL_Driver/Src/stm32l4xx_hal_pwr_ex.c ****   CLEAR_BIT(SCB->SCR, ((uint32_t)SCB_SCR_SLEEPDEEP_Msk));
 2261              		.loc 1 1318 3 view .LVU503
 2262 0022 054A     		ldr	r2, .L196+4
 2263 0024 1369     		ldr	r3, [r2, #16]
 2264 0026 23F00403 		bic	r3, r3, #4
 2265 002a 1361     		str	r3, [r2, #16]
ARM GAS  /tmp/ccMFwPRI.s 			page 65


1319:../Resources/Drivers/STM32L4xx_HAL_Driver/Src/stm32l4xx_hal_pwr_ex.c **** }
 2266              		.loc 1 1319 1 is_stmt 0 view .LVU504
 2267 002c 7047     		bx	lr
 2268              	.L195:
1307:../Resources/Drivers/STM32L4xx_HAL_Driver/Src/stm32l4xx_hal_pwr_ex.c ****   }
 2269              		.loc 1 1307 5 is_stmt 1 view .LVU505
 2270              		.syntax unified
 2271              	@ 1307 "../Resources/Drivers/STM32L4xx_HAL_Driver/Src/stm32l4xx_hal_pwr_ex.c" 1
 2272 002e 30BF     		wfi
 2273              	@ 0 "" 2
 2274              		.thumb
 2275              		.syntax unified
 2276 0030 F7E7     		b	.L194
 2277              	.L197:
 2278 0032 00BF     		.align	2
 2279              	.L196:
