ARM GAS  /tmp/cchkkQtC.s 			page 1


   1              		.cpu cortex-m4
   2              		.arch armv7e-m
   3              		.fpu fpv4-sp-d16
   4              		.eabi_attribute 27, 1
   5              		.eabi_attribute 28, 1
   6              		.eabi_attribute 20, 1
   7              		.eabi_attribute 21, 1
   8              		.eabi_attribute 23, 3
   9              		.eabi_attribute 24, 1
  10              		.eabi_attribute 25, 1
  11              		.eabi_attribute 26, 1
  12              		.eabi_attribute 30, 1
  13              		.eabi_attribute 34, 1
  14              		.eabi_attribute 18, 4
  15              		.file	"stm32l4xx_hal_flash_ex.c"
  16              		.text
  17              	.Ltext0:
  18              		.cfi_sections	.debug_frame
  19              		.section	.text.FLASH_MassErase,"ax",%progbits
  20              		.align	1
  21              		.syntax unified
  22              		.thumb
  23              		.thumb_func
  25              	FLASH_MassErase:
  26              	.LVL0:
  27              	.LFB136:
  28              		.file 1 "../Resources/Drivers/STM32L4xx_HAL_Driver/Src/stm32l4xx_hal_flash_ex.c"
   1:../Resources/Drivers/STM32L4xx_HAL_Driver/Src/stm32l4xx_hal_flash_ex.c **** /**
   2:../Resources/Drivers/STM32L4xx_HAL_Driver/Src/stm32l4xx_hal_flash_ex.c ****   ******************************************************************************
   3:../Resources/Drivers/STM32L4xx_HAL_Driver/Src/stm32l4xx_hal_flash_ex.c ****   * @file    stm32l4xx_hal_flash_ex.c
   4:../Resources/Drivers/STM32L4xx_HAL_Driver/Src/stm32l4xx_hal_flash_ex.c ****   * @author  MCD Application Team
   5:../Resources/Drivers/STM32L4xx_HAL_Driver/Src/stm32l4xx_hal_flash_ex.c ****   * @brief   Extended FLASH HAL module driver.
   6:../Resources/Drivers/STM32L4xx_HAL_Driver/Src/stm32l4xx_hal_flash_ex.c ****   *          This file provides firmware functions to manage the following
   7:../Resources/Drivers/STM32L4xx_HAL_Driver/Src/stm32l4xx_hal_flash_ex.c ****   *          functionalities of the FLASH extended peripheral:
   8:../Resources/Drivers/STM32L4xx_HAL_Driver/Src/stm32l4xx_hal_flash_ex.c ****   *           + Extended programming operations functions
   9:../Resources/Drivers/STM32L4xx_HAL_Driver/Src/stm32l4xx_hal_flash_ex.c ****   *
  10:../Resources/Drivers/STM32L4xx_HAL_Driver/Src/stm32l4xx_hal_flash_ex.c ****  @verbatim
  11:../Resources/Drivers/STM32L4xx_HAL_Driver/Src/stm32l4xx_hal_flash_ex.c ****  ==============================================================================
  12:../Resources/Drivers/STM32L4xx_HAL_Driver/Src/stm32l4xx_hal_flash_ex.c ****                    ##### Flash Extended features #####
  13:../Resources/Drivers/STM32L4xx_HAL_Driver/Src/stm32l4xx_hal_flash_ex.c ****   ==============================================================================
  14:../Resources/Drivers/STM32L4xx_HAL_Driver/Src/stm32l4xx_hal_flash_ex.c **** 
  15:../Resources/Drivers/STM32L4xx_HAL_Driver/Src/stm32l4xx_hal_flash_ex.c ****   [..] Comparing to other previous devices, the FLASH interface for STM32L4xx
  16:../Resources/Drivers/STM32L4xx_HAL_Driver/Src/stm32l4xx_hal_flash_ex.c ****        devices contains the following additional features
  17:../Resources/Drivers/STM32L4xx_HAL_Driver/Src/stm32l4xx_hal_flash_ex.c **** 
  18:../Resources/Drivers/STM32L4xx_HAL_Driver/Src/stm32l4xx_hal_flash_ex.c ****        (+) Capacity up to 2 Mbyte with dual bank architecture supporting read-while-write
  19:../Resources/Drivers/STM32L4xx_HAL_Driver/Src/stm32l4xx_hal_flash_ex.c ****            capability (RWW)
  20:../Resources/Drivers/STM32L4xx_HAL_Driver/Src/stm32l4xx_hal_flash_ex.c ****        (+) Dual bank memory organization
  21:../Resources/Drivers/STM32L4xx_HAL_Driver/Src/stm32l4xx_hal_flash_ex.c ****        (+) PCROP protection for all banks
  22:../Resources/Drivers/STM32L4xx_HAL_Driver/Src/stm32l4xx_hal_flash_ex.c **** 
  23:../Resources/Drivers/STM32L4xx_HAL_Driver/Src/stm32l4xx_hal_flash_ex.c ****                         ##### How to use this driver #####
  24:../Resources/Drivers/STM32L4xx_HAL_Driver/Src/stm32l4xx_hal_flash_ex.c ****  ==============================================================================
  25:../Resources/Drivers/STM32L4xx_HAL_Driver/Src/stm32l4xx_hal_flash_ex.c ****   [..] This driver provides functions to configure and program the FLASH memory
  26:../Resources/Drivers/STM32L4xx_HAL_Driver/Src/stm32l4xx_hal_flash_ex.c ****        of all STM32L4xx devices. It includes
  27:../Resources/Drivers/STM32L4xx_HAL_Driver/Src/stm32l4xx_hal_flash_ex.c ****       (#) Flash Memory Erase functions:
  28:../Resources/Drivers/STM32L4xx_HAL_Driver/Src/stm32l4xx_hal_flash_ex.c ****            (++) Lock and Unlock the FLASH interface using HAL_FLASH_Unlock() and
  29:../Resources/Drivers/STM32L4xx_HAL_Driver/Src/stm32l4xx_hal_flash_ex.c ****                 HAL_FLASH_Lock() functions
  30:../Resources/Drivers/STM32L4xx_HAL_Driver/Src/stm32l4xx_hal_flash_ex.c ****            (++) Erase function: Erase page, erase all sectors
ARM GAS  /tmp/cchkkQtC.s 			page 2


  31:../Resources/Drivers/STM32L4xx_HAL_Driver/Src/stm32l4xx_hal_flash_ex.c ****            (++) There are two modes of erase :
  32:../Resources/Drivers/STM32L4xx_HAL_Driver/Src/stm32l4xx_hal_flash_ex.c ****              (+++) Polling Mode using HAL_FLASHEx_Erase()
  33:../Resources/Drivers/STM32L4xx_HAL_Driver/Src/stm32l4xx_hal_flash_ex.c ****              (+++) Interrupt Mode using HAL_FLASHEx_Erase_IT()
  34:../Resources/Drivers/STM32L4xx_HAL_Driver/Src/stm32l4xx_hal_flash_ex.c **** 
  35:../Resources/Drivers/STM32L4xx_HAL_Driver/Src/stm32l4xx_hal_flash_ex.c ****       (#) Option Bytes Programming function: Use HAL_FLASHEx_OBProgram() to :
  36:../Resources/Drivers/STM32L4xx_HAL_Driver/Src/stm32l4xx_hal_flash_ex.c ****         (++) Set/Reset the write protection
  37:../Resources/Drivers/STM32L4xx_HAL_Driver/Src/stm32l4xx_hal_flash_ex.c ****         (++) Set the Read protection Level
  38:../Resources/Drivers/STM32L4xx_HAL_Driver/Src/stm32l4xx_hal_flash_ex.c ****         (++) Program the user Option Bytes
  39:../Resources/Drivers/STM32L4xx_HAL_Driver/Src/stm32l4xx_hal_flash_ex.c ****         (++) Configure the PCROP protection
  40:../Resources/Drivers/STM32L4xx_HAL_Driver/Src/stm32l4xx_hal_flash_ex.c **** 
  41:../Resources/Drivers/STM32L4xx_HAL_Driver/Src/stm32l4xx_hal_flash_ex.c ****       (#) Get Option Bytes Configuration function: Use HAL_FLASHEx_OBGetConfig() to :
  42:../Resources/Drivers/STM32L4xx_HAL_Driver/Src/stm32l4xx_hal_flash_ex.c ****         (++) Get the value of a write protection area
  43:../Resources/Drivers/STM32L4xx_HAL_Driver/Src/stm32l4xx_hal_flash_ex.c ****         (++) Know if the read protection is activated
  44:../Resources/Drivers/STM32L4xx_HAL_Driver/Src/stm32l4xx_hal_flash_ex.c ****         (++) Get the value of the user Option Bytes
  45:../Resources/Drivers/STM32L4xx_HAL_Driver/Src/stm32l4xx_hal_flash_ex.c ****         (++) Get the value of a PCROP area
  46:../Resources/Drivers/STM32L4xx_HAL_Driver/Src/stm32l4xx_hal_flash_ex.c **** 
  47:../Resources/Drivers/STM32L4xx_HAL_Driver/Src/stm32l4xx_hal_flash_ex.c ****  @endverbatim
  48:../Resources/Drivers/STM32L4xx_HAL_Driver/Src/stm32l4xx_hal_flash_ex.c ****   ******************************************************************************
  49:../Resources/Drivers/STM32L4xx_HAL_Driver/Src/stm32l4xx_hal_flash_ex.c ****   * @attention
  50:../Resources/Drivers/STM32L4xx_HAL_Driver/Src/stm32l4xx_hal_flash_ex.c ****   *
  51:../Resources/Drivers/STM32L4xx_HAL_Driver/Src/stm32l4xx_hal_flash_ex.c ****   * Copyright (c) 2017 STMicroelectronics.
  52:../Resources/Drivers/STM32L4xx_HAL_Driver/Src/stm32l4xx_hal_flash_ex.c ****   * All rights reserved.
  53:../Resources/Drivers/STM32L4xx_HAL_Driver/Src/stm32l4xx_hal_flash_ex.c ****   *
  54:../Resources/Drivers/STM32L4xx_HAL_Driver/Src/stm32l4xx_hal_flash_ex.c ****   * This software is licensed under terms that can be found in the LICENSE file in
  55:../Resources/Drivers/STM32L4xx_HAL_Driver/Src/stm32l4xx_hal_flash_ex.c ****   * the root directory of this software component.
  56:../Resources/Drivers/STM32L4xx_HAL_Driver/Src/stm32l4xx_hal_flash_ex.c ****   * If no LICENSE file comes with this software, it is provided AS-IS.
  57:../Resources/Drivers/STM32L4xx_HAL_Driver/Src/stm32l4xx_hal_flash_ex.c ****   ******************************************************************************
  58:../Resources/Drivers/STM32L4xx_HAL_Driver/Src/stm32l4xx_hal_flash_ex.c ****   */
  59:../Resources/Drivers/STM32L4xx_HAL_Driver/Src/stm32l4xx_hal_flash_ex.c **** 
  60:../Resources/Drivers/STM32L4xx_HAL_Driver/Src/stm32l4xx_hal_flash_ex.c **** /* Includes ------------------------------------------------------------------*/
  61:../Resources/Drivers/STM32L4xx_HAL_Driver/Src/stm32l4xx_hal_flash_ex.c **** #include "stm32l4xx_hal.h"
  62:../Resources/Drivers/STM32L4xx_HAL_Driver/Src/stm32l4xx_hal_flash_ex.c **** 
  63:../Resources/Drivers/STM32L4xx_HAL_Driver/Src/stm32l4xx_hal_flash_ex.c **** /** @addtogroup STM32L4xx_HAL_Driver
  64:../Resources/Drivers/STM32L4xx_HAL_Driver/Src/stm32l4xx_hal_flash_ex.c ****   * @{
  65:../Resources/Drivers/STM32L4xx_HAL_Driver/Src/stm32l4xx_hal_flash_ex.c ****   */
  66:../Resources/Drivers/STM32L4xx_HAL_Driver/Src/stm32l4xx_hal_flash_ex.c **** 
  67:../Resources/Drivers/STM32L4xx_HAL_Driver/Src/stm32l4xx_hal_flash_ex.c **** /** @defgroup FLASHEx FLASHEx
  68:../Resources/Drivers/STM32L4xx_HAL_Driver/Src/stm32l4xx_hal_flash_ex.c ****   * @brief FLASH Extended HAL module driver
  69:../Resources/Drivers/STM32L4xx_HAL_Driver/Src/stm32l4xx_hal_flash_ex.c ****   * @{
  70:../Resources/Drivers/STM32L4xx_HAL_Driver/Src/stm32l4xx_hal_flash_ex.c ****   */
  71:../Resources/Drivers/STM32L4xx_HAL_Driver/Src/stm32l4xx_hal_flash_ex.c **** 
  72:../Resources/Drivers/STM32L4xx_HAL_Driver/Src/stm32l4xx_hal_flash_ex.c **** #ifdef HAL_FLASH_MODULE_ENABLED
  73:../Resources/Drivers/STM32L4xx_HAL_Driver/Src/stm32l4xx_hal_flash_ex.c **** 
  74:../Resources/Drivers/STM32L4xx_HAL_Driver/Src/stm32l4xx_hal_flash_ex.c **** /* Private typedef -----------------------------------------------------------*/
  75:../Resources/Drivers/STM32L4xx_HAL_Driver/Src/stm32l4xx_hal_flash_ex.c **** /* Private define ------------------------------------------------------------*/
  76:../Resources/Drivers/STM32L4xx_HAL_Driver/Src/stm32l4xx_hal_flash_ex.c **** /* Private macro -------------------------------------------------------------*/
  77:../Resources/Drivers/STM32L4xx_HAL_Driver/Src/stm32l4xx_hal_flash_ex.c **** /* Private variables ---------------------------------------------------------*/
  78:../Resources/Drivers/STM32L4xx_HAL_Driver/Src/stm32l4xx_hal_flash_ex.c **** /* Private function prototypes -----------------------------------------------*/
  79:../Resources/Drivers/STM32L4xx_HAL_Driver/Src/stm32l4xx_hal_flash_ex.c **** /** @defgroup FLASHEx_Private_Functions FLASHEx Private Functions
  80:../Resources/Drivers/STM32L4xx_HAL_Driver/Src/stm32l4xx_hal_flash_ex.c ****  * @{
  81:../Resources/Drivers/STM32L4xx_HAL_Driver/Src/stm32l4xx_hal_flash_ex.c ****  */
  82:../Resources/Drivers/STM32L4xx_HAL_Driver/Src/stm32l4xx_hal_flash_ex.c **** static void              FLASH_MassErase(uint32_t Banks);
  83:../Resources/Drivers/STM32L4xx_HAL_Driver/Src/stm32l4xx_hal_flash_ex.c **** static HAL_StatusTypeDef FLASH_OB_WRPConfig(uint32_t WRPArea, uint32_t WRPStartOffset, uint32_t WRD
  84:../Resources/Drivers/STM32L4xx_HAL_Driver/Src/stm32l4xx_hal_flash_ex.c **** static HAL_StatusTypeDef FLASH_OB_RDPConfig(uint32_t RDPLevel);
  85:../Resources/Drivers/STM32L4xx_HAL_Driver/Src/stm32l4xx_hal_flash_ex.c **** static HAL_StatusTypeDef FLASH_OB_UserConfig(uint32_t UserType, uint32_t UserConfig);
  86:../Resources/Drivers/STM32L4xx_HAL_Driver/Src/stm32l4xx_hal_flash_ex.c **** static HAL_StatusTypeDef FLASH_OB_PCROPConfig(uint32_t PCROPConfig, uint32_t PCROPStartAddr, uint32
  87:../Resources/Drivers/STM32L4xx_HAL_Driver/Src/stm32l4xx_hal_flash_ex.c **** static void              FLASH_OB_GetWRP(uint32_t WRPArea, uint32_t * WRPStartOffset, uint32_t * WR
ARM GAS  /tmp/cchkkQtC.s 			page 3


  88:../Resources/Drivers/STM32L4xx_HAL_Driver/Src/stm32l4xx_hal_flash_ex.c **** static uint32_t          FLASH_OB_GetRDP(void);
  89:../Resources/Drivers/STM32L4xx_HAL_Driver/Src/stm32l4xx_hal_flash_ex.c **** static uint32_t          FLASH_OB_GetUser(void);
  90:../Resources/Drivers/STM32L4xx_HAL_Driver/Src/stm32l4xx_hal_flash_ex.c **** static void              FLASH_OB_GetPCROP(uint32_t * PCROPConfig, uint32_t * PCROPStartAddr, uint3
  91:../Resources/Drivers/STM32L4xx_HAL_Driver/Src/stm32l4xx_hal_flash_ex.c **** /**
  92:../Resources/Drivers/STM32L4xx_HAL_Driver/Src/stm32l4xx_hal_flash_ex.c ****   * @}
  93:../Resources/Drivers/STM32L4xx_HAL_Driver/Src/stm32l4xx_hal_flash_ex.c ****   */
  94:../Resources/Drivers/STM32L4xx_HAL_Driver/Src/stm32l4xx_hal_flash_ex.c **** 
  95:../Resources/Drivers/STM32L4xx_HAL_Driver/Src/stm32l4xx_hal_flash_ex.c **** /* Exported functions -------------------------------------------------------*/
  96:../Resources/Drivers/STM32L4xx_HAL_Driver/Src/stm32l4xx_hal_flash_ex.c **** /** @defgroup FLASHEx_Exported_Functions FLASHEx Exported Functions
  97:../Resources/Drivers/STM32L4xx_HAL_Driver/Src/stm32l4xx_hal_flash_ex.c ****   * @{
  98:../Resources/Drivers/STM32L4xx_HAL_Driver/Src/stm32l4xx_hal_flash_ex.c ****   */
  99:../Resources/Drivers/STM32L4xx_HAL_Driver/Src/stm32l4xx_hal_flash_ex.c **** 
 100:../Resources/Drivers/STM32L4xx_HAL_Driver/Src/stm32l4xx_hal_flash_ex.c **** /** @defgroup FLASHEx_Exported_Functions_Group1 Extended IO operation functions
 101:../Resources/Drivers/STM32L4xx_HAL_Driver/Src/stm32l4xx_hal_flash_ex.c ****  *  @brief   Extended IO operation functions
 102:../Resources/Drivers/STM32L4xx_HAL_Driver/Src/stm32l4xx_hal_flash_ex.c ****  *
 103:../Resources/Drivers/STM32L4xx_HAL_Driver/Src/stm32l4xx_hal_flash_ex.c **** @verbatim
 104:../Resources/Drivers/STM32L4xx_HAL_Driver/Src/stm32l4xx_hal_flash_ex.c ****  ===============================================================================
 105:../Resources/Drivers/STM32L4xx_HAL_Driver/Src/stm32l4xx_hal_flash_ex.c ****                 ##### Extended programming operation functions #####
 106:../Resources/Drivers/STM32L4xx_HAL_Driver/Src/stm32l4xx_hal_flash_ex.c ****  ===============================================================================
 107:../Resources/Drivers/STM32L4xx_HAL_Driver/Src/stm32l4xx_hal_flash_ex.c ****     [..]
 108:../Resources/Drivers/STM32L4xx_HAL_Driver/Src/stm32l4xx_hal_flash_ex.c ****     This subsection provides a set of functions allowing to manage the Extended FLASH
 109:../Resources/Drivers/STM32L4xx_HAL_Driver/Src/stm32l4xx_hal_flash_ex.c ****     programming operations Operations.
 110:../Resources/Drivers/STM32L4xx_HAL_Driver/Src/stm32l4xx_hal_flash_ex.c **** 
 111:../Resources/Drivers/STM32L4xx_HAL_Driver/Src/stm32l4xx_hal_flash_ex.c **** @endverbatim
 112:../Resources/Drivers/STM32L4xx_HAL_Driver/Src/stm32l4xx_hal_flash_ex.c ****   * @{
 113:../Resources/Drivers/STM32L4xx_HAL_Driver/Src/stm32l4xx_hal_flash_ex.c ****   */
 114:../Resources/Drivers/STM32L4xx_HAL_Driver/Src/stm32l4xx_hal_flash_ex.c **** /**
 115:../Resources/Drivers/STM32L4xx_HAL_Driver/Src/stm32l4xx_hal_flash_ex.c ****   * @brief  Perform a mass erase or erase the specified FLASH memory pages.
 116:../Resources/Drivers/STM32L4xx_HAL_Driver/Src/stm32l4xx_hal_flash_ex.c ****   * @param[in]  pEraseInit: pointer to an FLASH_EraseInitTypeDef structure that
 117:../Resources/Drivers/STM32L4xx_HAL_Driver/Src/stm32l4xx_hal_flash_ex.c ****   *         contains the configuration information for the erasing.
 118:../Resources/Drivers/STM32L4xx_HAL_Driver/Src/stm32l4xx_hal_flash_ex.c ****   *
 119:../Resources/Drivers/STM32L4xx_HAL_Driver/Src/stm32l4xx_hal_flash_ex.c ****   * @param[out]  PageError  : pointer to variable that contains the configuration
 120:../Resources/Drivers/STM32L4xx_HAL_Driver/Src/stm32l4xx_hal_flash_ex.c ****   *         information on faulty page in case of error (0xFFFFFFFF means that all
 121:../Resources/Drivers/STM32L4xx_HAL_Driver/Src/stm32l4xx_hal_flash_ex.c ****   *         the pages have been correctly erased)
 122:../Resources/Drivers/STM32L4xx_HAL_Driver/Src/stm32l4xx_hal_flash_ex.c ****   *
 123:../Resources/Drivers/STM32L4xx_HAL_Driver/Src/stm32l4xx_hal_flash_ex.c ****   * @retval HAL Status
 124:../Resources/Drivers/STM32L4xx_HAL_Driver/Src/stm32l4xx_hal_flash_ex.c ****   */
 125:../Resources/Drivers/STM32L4xx_HAL_Driver/Src/stm32l4xx_hal_flash_ex.c **** HAL_StatusTypeDef HAL_FLASHEx_Erase(FLASH_EraseInitTypeDef *pEraseInit, uint32_t *PageError)
 126:../Resources/Drivers/STM32L4xx_HAL_Driver/Src/stm32l4xx_hal_flash_ex.c **** {
 127:../Resources/Drivers/STM32L4xx_HAL_Driver/Src/stm32l4xx_hal_flash_ex.c ****   HAL_StatusTypeDef status;
 128:../Resources/Drivers/STM32L4xx_HAL_Driver/Src/stm32l4xx_hal_flash_ex.c ****   uint32_t page_index;
 129:../Resources/Drivers/STM32L4xx_HAL_Driver/Src/stm32l4xx_hal_flash_ex.c **** 
 130:../Resources/Drivers/STM32L4xx_HAL_Driver/Src/stm32l4xx_hal_flash_ex.c ****   /* Process Locked */
 131:../Resources/Drivers/STM32L4xx_HAL_Driver/Src/stm32l4xx_hal_flash_ex.c ****   __HAL_LOCK(&pFlash);
 132:../Resources/Drivers/STM32L4xx_HAL_Driver/Src/stm32l4xx_hal_flash_ex.c **** 
 133:../Resources/Drivers/STM32L4xx_HAL_Driver/Src/stm32l4xx_hal_flash_ex.c ****   /* Check the parameters */
 134:../Resources/Drivers/STM32L4xx_HAL_Driver/Src/stm32l4xx_hal_flash_ex.c ****   assert_param(IS_FLASH_TYPEERASE(pEraseInit->TypeErase));
 135:../Resources/Drivers/STM32L4xx_HAL_Driver/Src/stm32l4xx_hal_flash_ex.c **** 
 136:../Resources/Drivers/STM32L4xx_HAL_Driver/Src/stm32l4xx_hal_flash_ex.c ****   /* Wait for last operation to be completed */
 137:../Resources/Drivers/STM32L4xx_HAL_Driver/Src/stm32l4xx_hal_flash_ex.c ****   status = FLASH_WaitForLastOperation((uint32_t)FLASH_TIMEOUT_VALUE);
 138:../Resources/Drivers/STM32L4xx_HAL_Driver/Src/stm32l4xx_hal_flash_ex.c **** 
 139:../Resources/Drivers/STM32L4xx_HAL_Driver/Src/stm32l4xx_hal_flash_ex.c ****   if (status == HAL_OK)
 140:../Resources/Drivers/STM32L4xx_HAL_Driver/Src/stm32l4xx_hal_flash_ex.c ****   {
 141:../Resources/Drivers/STM32L4xx_HAL_Driver/Src/stm32l4xx_hal_flash_ex.c ****     pFlash.ErrorCode = HAL_FLASH_ERROR_NONE;
 142:../Resources/Drivers/STM32L4xx_HAL_Driver/Src/stm32l4xx_hal_flash_ex.c **** 
 143:../Resources/Drivers/STM32L4xx_HAL_Driver/Src/stm32l4xx_hal_flash_ex.c ****     /* Deactivate the cache if they are activated to avoid data misbehavior */
 144:../Resources/Drivers/STM32L4xx_HAL_Driver/Src/stm32l4xx_hal_flash_ex.c ****     if(READ_BIT(FLASH->ACR, FLASH_ACR_ICEN) != 0U)
ARM GAS  /tmp/cchkkQtC.s 			page 4


 145:../Resources/Drivers/STM32L4xx_HAL_Driver/Src/stm32l4xx_hal_flash_ex.c ****     {
 146:../Resources/Drivers/STM32L4xx_HAL_Driver/Src/stm32l4xx_hal_flash_ex.c ****       if(READ_BIT(FLASH->ACR, FLASH_ACR_DCEN) != 0U)
 147:../Resources/Drivers/STM32L4xx_HAL_Driver/Src/stm32l4xx_hal_flash_ex.c ****       {
 148:../Resources/Drivers/STM32L4xx_HAL_Driver/Src/stm32l4xx_hal_flash_ex.c ****         /* Disable data cache  */
 149:../Resources/Drivers/STM32L4xx_HAL_Driver/Src/stm32l4xx_hal_flash_ex.c ****         __HAL_FLASH_DATA_CACHE_DISABLE();
 150:../Resources/Drivers/STM32L4xx_HAL_Driver/Src/stm32l4xx_hal_flash_ex.c ****         pFlash.CacheToReactivate = FLASH_CACHE_ICACHE_DCACHE_ENABLED;
 151:../Resources/Drivers/STM32L4xx_HAL_Driver/Src/stm32l4xx_hal_flash_ex.c ****       }
 152:../Resources/Drivers/STM32L4xx_HAL_Driver/Src/stm32l4xx_hal_flash_ex.c ****       else
 153:../Resources/Drivers/STM32L4xx_HAL_Driver/Src/stm32l4xx_hal_flash_ex.c ****       {
 154:../Resources/Drivers/STM32L4xx_HAL_Driver/Src/stm32l4xx_hal_flash_ex.c ****         pFlash.CacheToReactivate = FLASH_CACHE_ICACHE_ENABLED;
 155:../Resources/Drivers/STM32L4xx_HAL_Driver/Src/stm32l4xx_hal_flash_ex.c ****       }
 156:../Resources/Drivers/STM32L4xx_HAL_Driver/Src/stm32l4xx_hal_flash_ex.c ****     }
 157:../Resources/Drivers/STM32L4xx_HAL_Driver/Src/stm32l4xx_hal_flash_ex.c ****     else if(READ_BIT(FLASH->ACR, FLASH_ACR_DCEN) != 0U)
 158:../Resources/Drivers/STM32L4xx_HAL_Driver/Src/stm32l4xx_hal_flash_ex.c ****     {
 159:../Resources/Drivers/STM32L4xx_HAL_Driver/Src/stm32l4xx_hal_flash_ex.c ****       /* Disable data cache  */
 160:../Resources/Drivers/STM32L4xx_HAL_Driver/Src/stm32l4xx_hal_flash_ex.c ****       __HAL_FLASH_DATA_CACHE_DISABLE();
 161:../Resources/Drivers/STM32L4xx_HAL_Driver/Src/stm32l4xx_hal_flash_ex.c ****       pFlash.CacheToReactivate = FLASH_CACHE_DCACHE_ENABLED;
 162:../Resources/Drivers/STM32L4xx_HAL_Driver/Src/stm32l4xx_hal_flash_ex.c ****     }
 163:../Resources/Drivers/STM32L4xx_HAL_Driver/Src/stm32l4xx_hal_flash_ex.c ****     else
 164:../Resources/Drivers/STM32L4xx_HAL_Driver/Src/stm32l4xx_hal_flash_ex.c ****     {
 165:../Resources/Drivers/STM32L4xx_HAL_Driver/Src/stm32l4xx_hal_flash_ex.c ****       pFlash.CacheToReactivate = FLASH_CACHE_DISABLED;
 166:../Resources/Drivers/STM32L4xx_HAL_Driver/Src/stm32l4xx_hal_flash_ex.c ****     }
 167:../Resources/Drivers/STM32L4xx_HAL_Driver/Src/stm32l4xx_hal_flash_ex.c **** 
 168:../Resources/Drivers/STM32L4xx_HAL_Driver/Src/stm32l4xx_hal_flash_ex.c ****     if (pEraseInit->TypeErase == FLASH_TYPEERASE_MASSERASE)
 169:../Resources/Drivers/STM32L4xx_HAL_Driver/Src/stm32l4xx_hal_flash_ex.c ****     {
 170:../Resources/Drivers/STM32L4xx_HAL_Driver/Src/stm32l4xx_hal_flash_ex.c ****       /* Mass erase to be done */
 171:../Resources/Drivers/STM32L4xx_HAL_Driver/Src/stm32l4xx_hal_flash_ex.c ****       FLASH_MassErase(pEraseInit->Banks);
 172:../Resources/Drivers/STM32L4xx_HAL_Driver/Src/stm32l4xx_hal_flash_ex.c **** 
 173:../Resources/Drivers/STM32L4xx_HAL_Driver/Src/stm32l4xx_hal_flash_ex.c ****       /* Wait for last operation to be completed */
 174:../Resources/Drivers/STM32L4xx_HAL_Driver/Src/stm32l4xx_hal_flash_ex.c ****       status = FLASH_WaitForLastOperation((uint32_t)FLASH_TIMEOUT_VALUE);
 175:../Resources/Drivers/STM32L4xx_HAL_Driver/Src/stm32l4xx_hal_flash_ex.c **** 
 176:../Resources/Drivers/STM32L4xx_HAL_Driver/Src/stm32l4xx_hal_flash_ex.c **** #if defined (STM32L471xx) || defined (STM32L475xx) || defined (STM32L476xx) || defined (STM32L485xx
 177:../Resources/Drivers/STM32L4xx_HAL_Driver/Src/stm32l4xx_hal_flash_ex.c ****     defined (STM32L496xx) || defined (STM32L4A6xx) || \
 178:../Resources/Drivers/STM32L4xx_HAL_Driver/Src/stm32l4xx_hal_flash_ex.c ****     defined (STM32L4P5xx) || defined (STM32L4Q5xx) || \
 179:../Resources/Drivers/STM32L4xx_HAL_Driver/Src/stm32l4xx_hal_flash_ex.c ****     defined (STM32L4R5xx) || defined (STM32L4R7xx) || defined (STM32L4R9xx) || defined (STM32L4S5xx
 180:../Resources/Drivers/STM32L4xx_HAL_Driver/Src/stm32l4xx_hal_flash_ex.c ****       /* If the erase operation is completed, disable the MER1 and MER2 Bits */
 181:../Resources/Drivers/STM32L4xx_HAL_Driver/Src/stm32l4xx_hal_flash_ex.c ****       CLEAR_BIT(FLASH->CR, (FLASH_CR_MER1 | FLASH_CR_MER2));
 182:../Resources/Drivers/STM32L4xx_HAL_Driver/Src/stm32l4xx_hal_flash_ex.c **** #else
 183:../Resources/Drivers/STM32L4xx_HAL_Driver/Src/stm32l4xx_hal_flash_ex.c ****       /* If the erase operation is completed, disable the MER1 Bit */
 184:../Resources/Drivers/STM32L4xx_HAL_Driver/Src/stm32l4xx_hal_flash_ex.c ****       CLEAR_BIT(FLASH->CR, (FLASH_CR_MER1));
 185:../Resources/Drivers/STM32L4xx_HAL_Driver/Src/stm32l4xx_hal_flash_ex.c **** #endif
 186:../Resources/Drivers/STM32L4xx_HAL_Driver/Src/stm32l4xx_hal_flash_ex.c ****     }
 187:../Resources/Drivers/STM32L4xx_HAL_Driver/Src/stm32l4xx_hal_flash_ex.c ****     else
 188:../Resources/Drivers/STM32L4xx_HAL_Driver/Src/stm32l4xx_hal_flash_ex.c ****     {
 189:../Resources/Drivers/STM32L4xx_HAL_Driver/Src/stm32l4xx_hal_flash_ex.c ****       /*Initialization of PageError variable*/
 190:../Resources/Drivers/STM32L4xx_HAL_Driver/Src/stm32l4xx_hal_flash_ex.c ****       *PageError = 0xFFFFFFFFU;
 191:../Resources/Drivers/STM32L4xx_HAL_Driver/Src/stm32l4xx_hal_flash_ex.c **** 
 192:../Resources/Drivers/STM32L4xx_HAL_Driver/Src/stm32l4xx_hal_flash_ex.c ****       for(page_index = pEraseInit->Page; page_index < (pEraseInit->Page + pEraseInit->NbPages); pag
 193:../Resources/Drivers/STM32L4xx_HAL_Driver/Src/stm32l4xx_hal_flash_ex.c ****       {
 194:../Resources/Drivers/STM32L4xx_HAL_Driver/Src/stm32l4xx_hal_flash_ex.c ****         FLASH_PageErase(page_index, pEraseInit->Banks);
 195:../Resources/Drivers/STM32L4xx_HAL_Driver/Src/stm32l4xx_hal_flash_ex.c **** 
 196:../Resources/Drivers/STM32L4xx_HAL_Driver/Src/stm32l4xx_hal_flash_ex.c ****         /* Wait for last operation to be completed */
 197:../Resources/Drivers/STM32L4xx_HAL_Driver/Src/stm32l4xx_hal_flash_ex.c ****         status = FLASH_WaitForLastOperation((uint32_t)FLASH_TIMEOUT_VALUE);
 198:../Resources/Drivers/STM32L4xx_HAL_Driver/Src/stm32l4xx_hal_flash_ex.c **** 
 199:../Resources/Drivers/STM32L4xx_HAL_Driver/Src/stm32l4xx_hal_flash_ex.c ****         /* If the erase operation is completed, disable the PER Bit */
 200:../Resources/Drivers/STM32L4xx_HAL_Driver/Src/stm32l4xx_hal_flash_ex.c ****         CLEAR_BIT(FLASH->CR, (FLASH_CR_PER | FLASH_CR_PNB));
 201:../Resources/Drivers/STM32L4xx_HAL_Driver/Src/stm32l4xx_hal_flash_ex.c **** 
ARM GAS  /tmp/cchkkQtC.s 			page 5


 202:../Resources/Drivers/STM32L4xx_HAL_Driver/Src/stm32l4xx_hal_flash_ex.c ****         if (status != HAL_OK)
 203:../Resources/Drivers/STM32L4xx_HAL_Driver/Src/stm32l4xx_hal_flash_ex.c ****         {
 204:../Resources/Drivers/STM32L4xx_HAL_Driver/Src/stm32l4xx_hal_flash_ex.c ****           /* In case of error, stop erase procedure and return the faulty address */
 205:../Resources/Drivers/STM32L4xx_HAL_Driver/Src/stm32l4xx_hal_flash_ex.c ****           *PageError = page_index;
 206:../Resources/Drivers/STM32L4xx_HAL_Driver/Src/stm32l4xx_hal_flash_ex.c ****           break;
 207:../Resources/Drivers/STM32L4xx_HAL_Driver/Src/stm32l4xx_hal_flash_ex.c ****         }
 208:../Resources/Drivers/STM32L4xx_HAL_Driver/Src/stm32l4xx_hal_flash_ex.c ****       }
 209:../Resources/Drivers/STM32L4xx_HAL_Driver/Src/stm32l4xx_hal_flash_ex.c ****     }
 210:../Resources/Drivers/STM32L4xx_HAL_Driver/Src/stm32l4xx_hal_flash_ex.c **** 
 211:../Resources/Drivers/STM32L4xx_HAL_Driver/Src/stm32l4xx_hal_flash_ex.c ****     /* Flush the caches to be sure of the data consistency */
 212:../Resources/Drivers/STM32L4xx_HAL_Driver/Src/stm32l4xx_hal_flash_ex.c ****     FLASH_FlushCaches();
 213:../Resources/Drivers/STM32L4xx_HAL_Driver/Src/stm32l4xx_hal_flash_ex.c ****   }
 214:../Resources/Drivers/STM32L4xx_HAL_Driver/Src/stm32l4xx_hal_flash_ex.c **** 
 215:../Resources/Drivers/STM32L4xx_HAL_Driver/Src/stm32l4xx_hal_flash_ex.c ****   /* Process Unlocked */
 216:../Resources/Drivers/STM32L4xx_HAL_Driver/Src/stm32l4xx_hal_flash_ex.c ****   __HAL_UNLOCK(&pFlash);
 217:../Resources/Drivers/STM32L4xx_HAL_Driver/Src/stm32l4xx_hal_flash_ex.c **** 
 218:../Resources/Drivers/STM32L4xx_HAL_Driver/Src/stm32l4xx_hal_flash_ex.c ****   return status;
 219:../Resources/Drivers/STM32L4xx_HAL_Driver/Src/stm32l4xx_hal_flash_ex.c **** }
 220:../Resources/Drivers/STM32L4xx_HAL_Driver/Src/stm32l4xx_hal_flash_ex.c **** 
 221:../Resources/Drivers/STM32L4xx_HAL_Driver/Src/stm32l4xx_hal_flash_ex.c **** /**
 222:../Resources/Drivers/STM32L4xx_HAL_Driver/Src/stm32l4xx_hal_flash_ex.c ****   * @brief  Perform a mass erase or erase the specified FLASH memory pages with interrupt enabled.
 223:../Resources/Drivers/STM32L4xx_HAL_Driver/Src/stm32l4xx_hal_flash_ex.c ****   * @param  pEraseInit pointer to an FLASH_EraseInitTypeDef structure that
 224:../Resources/Drivers/STM32L4xx_HAL_Driver/Src/stm32l4xx_hal_flash_ex.c ****   *         contains the configuration information for the erasing.
 225:../Resources/Drivers/STM32L4xx_HAL_Driver/Src/stm32l4xx_hal_flash_ex.c ****   *
 226:../Resources/Drivers/STM32L4xx_HAL_Driver/Src/stm32l4xx_hal_flash_ex.c ****   * @retval HAL Status
 227:../Resources/Drivers/STM32L4xx_HAL_Driver/Src/stm32l4xx_hal_flash_ex.c ****   */
 228:../Resources/Drivers/STM32L4xx_HAL_Driver/Src/stm32l4xx_hal_flash_ex.c **** HAL_StatusTypeDef HAL_FLASHEx_Erase_IT(FLASH_EraseInitTypeDef *pEraseInit)
 229:../Resources/Drivers/STM32L4xx_HAL_Driver/Src/stm32l4xx_hal_flash_ex.c **** {
 230:../Resources/Drivers/STM32L4xx_HAL_Driver/Src/stm32l4xx_hal_flash_ex.c ****   HAL_StatusTypeDef status = HAL_OK;
 231:../Resources/Drivers/STM32L4xx_HAL_Driver/Src/stm32l4xx_hal_flash_ex.c **** 
 232:../Resources/Drivers/STM32L4xx_HAL_Driver/Src/stm32l4xx_hal_flash_ex.c ****   /* Process Locked */
 233:../Resources/Drivers/STM32L4xx_HAL_Driver/Src/stm32l4xx_hal_flash_ex.c ****   __HAL_LOCK(&pFlash);
 234:../Resources/Drivers/STM32L4xx_HAL_Driver/Src/stm32l4xx_hal_flash_ex.c **** 
 235:../Resources/Drivers/STM32L4xx_HAL_Driver/Src/stm32l4xx_hal_flash_ex.c ****   /* Check the parameters */
 236:../Resources/Drivers/STM32L4xx_HAL_Driver/Src/stm32l4xx_hal_flash_ex.c ****   assert_param(IS_FLASH_TYPEERASE(pEraseInit->TypeErase));
 237:../Resources/Drivers/STM32L4xx_HAL_Driver/Src/stm32l4xx_hal_flash_ex.c **** 
 238:../Resources/Drivers/STM32L4xx_HAL_Driver/Src/stm32l4xx_hal_flash_ex.c ****   pFlash.ErrorCode = HAL_FLASH_ERROR_NONE;
 239:../Resources/Drivers/STM32L4xx_HAL_Driver/Src/stm32l4xx_hal_flash_ex.c **** 
 240:../Resources/Drivers/STM32L4xx_HAL_Driver/Src/stm32l4xx_hal_flash_ex.c ****   /* Deactivate the cache if they are activated to avoid data misbehavior */
 241:../Resources/Drivers/STM32L4xx_HAL_Driver/Src/stm32l4xx_hal_flash_ex.c ****   if(READ_BIT(FLASH->ACR, FLASH_ACR_ICEN) != 0U)
 242:../Resources/Drivers/STM32L4xx_HAL_Driver/Src/stm32l4xx_hal_flash_ex.c ****   {
 243:../Resources/Drivers/STM32L4xx_HAL_Driver/Src/stm32l4xx_hal_flash_ex.c ****     if(READ_BIT(FLASH->ACR, FLASH_ACR_DCEN) != 0U)
 244:../Resources/Drivers/STM32L4xx_HAL_Driver/Src/stm32l4xx_hal_flash_ex.c ****     {
 245:../Resources/Drivers/STM32L4xx_HAL_Driver/Src/stm32l4xx_hal_flash_ex.c ****       /* Disable data cache  */
 246:../Resources/Drivers/STM32L4xx_HAL_Driver/Src/stm32l4xx_hal_flash_ex.c ****       __HAL_FLASH_DATA_CACHE_DISABLE();
 247:../Resources/Drivers/STM32L4xx_HAL_Driver/Src/stm32l4xx_hal_flash_ex.c ****       pFlash.CacheToReactivate = FLASH_CACHE_ICACHE_DCACHE_ENABLED;
 248:../Resources/Drivers/STM32L4xx_HAL_Driver/Src/stm32l4xx_hal_flash_ex.c ****     }
 249:../Resources/Drivers/STM32L4xx_HAL_Driver/Src/stm32l4xx_hal_flash_ex.c ****     else
 250:../Resources/Drivers/STM32L4xx_HAL_Driver/Src/stm32l4xx_hal_flash_ex.c ****     {
 251:../Resources/Drivers/STM32L4xx_HAL_Driver/Src/stm32l4xx_hal_flash_ex.c ****       pFlash.CacheToReactivate = FLASH_CACHE_ICACHE_ENABLED;
 252:../Resources/Drivers/STM32L4xx_HAL_Driver/Src/stm32l4xx_hal_flash_ex.c ****     }
 253:../Resources/Drivers/STM32L4xx_HAL_Driver/Src/stm32l4xx_hal_flash_ex.c ****   }
 254:../Resources/Drivers/STM32L4xx_HAL_Driver/Src/stm32l4xx_hal_flash_ex.c ****   else if(READ_BIT(FLASH->ACR, FLASH_ACR_DCEN) != 0U)
 255:../Resources/Drivers/STM32L4xx_HAL_Driver/Src/stm32l4xx_hal_flash_ex.c ****   {
 256:../Resources/Drivers/STM32L4xx_HAL_Driver/Src/stm32l4xx_hal_flash_ex.c ****     /* Disable data cache  */
 257:../Resources/Drivers/STM32L4xx_HAL_Driver/Src/stm32l4xx_hal_flash_ex.c ****     __HAL_FLASH_DATA_CACHE_DISABLE();
 258:../Resources/Drivers/STM32L4xx_HAL_Driver/Src/stm32l4xx_hal_flash_ex.c ****     pFlash.CacheToReactivate = FLASH_CACHE_DCACHE_ENABLED;
ARM GAS  /tmp/cchkkQtC.s 			page 6


 259:../Resources/Drivers/STM32L4xx_HAL_Driver/Src/stm32l4xx_hal_flash_ex.c ****   }
 260:../Resources/Drivers/STM32L4xx_HAL_Driver/Src/stm32l4xx_hal_flash_ex.c ****   else
 261:../Resources/Drivers/STM32L4xx_HAL_Driver/Src/stm32l4xx_hal_flash_ex.c ****   {
 262:../Resources/Drivers/STM32L4xx_HAL_Driver/Src/stm32l4xx_hal_flash_ex.c ****     pFlash.CacheToReactivate = FLASH_CACHE_DISABLED;
 263:../Resources/Drivers/STM32L4xx_HAL_Driver/Src/stm32l4xx_hal_flash_ex.c ****   }
 264:../Resources/Drivers/STM32L4xx_HAL_Driver/Src/stm32l4xx_hal_flash_ex.c **** 
 265:../Resources/Drivers/STM32L4xx_HAL_Driver/Src/stm32l4xx_hal_flash_ex.c ****   /* Enable End of Operation and Error interrupts */
 266:../Resources/Drivers/STM32L4xx_HAL_Driver/Src/stm32l4xx_hal_flash_ex.c ****   __HAL_FLASH_ENABLE_IT(FLASH_IT_EOP | FLASH_IT_OPERR);
 267:../Resources/Drivers/STM32L4xx_HAL_Driver/Src/stm32l4xx_hal_flash_ex.c **** 
 268:../Resources/Drivers/STM32L4xx_HAL_Driver/Src/stm32l4xx_hal_flash_ex.c ****   pFlash.Bank = pEraseInit->Banks;
 269:../Resources/Drivers/STM32L4xx_HAL_Driver/Src/stm32l4xx_hal_flash_ex.c **** 
 270:../Resources/Drivers/STM32L4xx_HAL_Driver/Src/stm32l4xx_hal_flash_ex.c ****   if (pEraseInit->TypeErase == FLASH_TYPEERASE_MASSERASE)
 271:../Resources/Drivers/STM32L4xx_HAL_Driver/Src/stm32l4xx_hal_flash_ex.c ****   {
 272:../Resources/Drivers/STM32L4xx_HAL_Driver/Src/stm32l4xx_hal_flash_ex.c ****     /* Mass erase to be done */
 273:../Resources/Drivers/STM32L4xx_HAL_Driver/Src/stm32l4xx_hal_flash_ex.c ****     pFlash.ProcedureOnGoing = FLASH_PROC_MASS_ERASE;
 274:../Resources/Drivers/STM32L4xx_HAL_Driver/Src/stm32l4xx_hal_flash_ex.c ****     FLASH_MassErase(pEraseInit->Banks);
 275:../Resources/Drivers/STM32L4xx_HAL_Driver/Src/stm32l4xx_hal_flash_ex.c ****   }
 276:../Resources/Drivers/STM32L4xx_HAL_Driver/Src/stm32l4xx_hal_flash_ex.c ****   else
 277:../Resources/Drivers/STM32L4xx_HAL_Driver/Src/stm32l4xx_hal_flash_ex.c ****   {
 278:../Resources/Drivers/STM32L4xx_HAL_Driver/Src/stm32l4xx_hal_flash_ex.c ****     /* Erase by page to be done */
 279:../Resources/Drivers/STM32L4xx_HAL_Driver/Src/stm32l4xx_hal_flash_ex.c ****     pFlash.ProcedureOnGoing = FLASH_PROC_PAGE_ERASE;
 280:../Resources/Drivers/STM32L4xx_HAL_Driver/Src/stm32l4xx_hal_flash_ex.c ****     pFlash.NbPagesToErase = pEraseInit->NbPages;
 281:../Resources/Drivers/STM32L4xx_HAL_Driver/Src/stm32l4xx_hal_flash_ex.c ****     pFlash.Page = pEraseInit->Page;
 282:../Resources/Drivers/STM32L4xx_HAL_Driver/Src/stm32l4xx_hal_flash_ex.c **** 
 283:../Resources/Drivers/STM32L4xx_HAL_Driver/Src/stm32l4xx_hal_flash_ex.c ****     /*Erase 1st page and wait for IT */
 284:../Resources/Drivers/STM32L4xx_HAL_Driver/Src/stm32l4xx_hal_flash_ex.c ****     FLASH_PageErase(pEraseInit->Page, pEraseInit->Banks);
 285:../Resources/Drivers/STM32L4xx_HAL_Driver/Src/stm32l4xx_hal_flash_ex.c ****   }
 286:../Resources/Drivers/STM32L4xx_HAL_Driver/Src/stm32l4xx_hal_flash_ex.c **** 
 287:../Resources/Drivers/STM32L4xx_HAL_Driver/Src/stm32l4xx_hal_flash_ex.c ****   return status;
 288:../Resources/Drivers/STM32L4xx_HAL_Driver/Src/stm32l4xx_hal_flash_ex.c **** }
 289:../Resources/Drivers/STM32L4xx_HAL_Driver/Src/stm32l4xx_hal_flash_ex.c **** 
 290:../Resources/Drivers/STM32L4xx_HAL_Driver/Src/stm32l4xx_hal_flash_ex.c **** /**
 291:../Resources/Drivers/STM32L4xx_HAL_Driver/Src/stm32l4xx_hal_flash_ex.c ****   * @brief  Program Option bytes.
 292:../Resources/Drivers/STM32L4xx_HAL_Driver/Src/stm32l4xx_hal_flash_ex.c ****   * @param  pOBInit pointer to an FLASH_OBInitStruct structure that
 293:../Resources/Drivers/STM32L4xx_HAL_Driver/Src/stm32l4xx_hal_flash_ex.c ****   *         contains the configuration information for the programming.
 294:../Resources/Drivers/STM32L4xx_HAL_Driver/Src/stm32l4xx_hal_flash_ex.c ****   *
 295:../Resources/Drivers/STM32L4xx_HAL_Driver/Src/stm32l4xx_hal_flash_ex.c ****   * @retval HAL Status
 296:../Resources/Drivers/STM32L4xx_HAL_Driver/Src/stm32l4xx_hal_flash_ex.c ****   */
 297:../Resources/Drivers/STM32L4xx_HAL_Driver/Src/stm32l4xx_hal_flash_ex.c **** HAL_StatusTypeDef HAL_FLASHEx_OBProgram(FLASH_OBProgramInitTypeDef *pOBInit)
 298:../Resources/Drivers/STM32L4xx_HAL_Driver/Src/stm32l4xx_hal_flash_ex.c **** {
 299:../Resources/Drivers/STM32L4xx_HAL_Driver/Src/stm32l4xx_hal_flash_ex.c ****   HAL_StatusTypeDef status = HAL_OK;
 300:../Resources/Drivers/STM32L4xx_HAL_Driver/Src/stm32l4xx_hal_flash_ex.c **** 
 301:../Resources/Drivers/STM32L4xx_HAL_Driver/Src/stm32l4xx_hal_flash_ex.c ****   /* Process Locked */
 302:../Resources/Drivers/STM32L4xx_HAL_Driver/Src/stm32l4xx_hal_flash_ex.c ****   __HAL_LOCK(&pFlash);
 303:../Resources/Drivers/STM32L4xx_HAL_Driver/Src/stm32l4xx_hal_flash_ex.c **** 
 304:../Resources/Drivers/STM32L4xx_HAL_Driver/Src/stm32l4xx_hal_flash_ex.c ****   /* Check the parameters */
 305:../Resources/Drivers/STM32L4xx_HAL_Driver/Src/stm32l4xx_hal_flash_ex.c ****   assert_param(IS_OPTIONBYTE(pOBInit->OptionType));
 306:../Resources/Drivers/STM32L4xx_HAL_Driver/Src/stm32l4xx_hal_flash_ex.c **** 
 307:../Resources/Drivers/STM32L4xx_HAL_Driver/Src/stm32l4xx_hal_flash_ex.c ****   pFlash.ErrorCode = HAL_FLASH_ERROR_NONE;
 308:../Resources/Drivers/STM32L4xx_HAL_Driver/Src/stm32l4xx_hal_flash_ex.c **** 
 309:../Resources/Drivers/STM32L4xx_HAL_Driver/Src/stm32l4xx_hal_flash_ex.c ****   /* Write protection configuration */
 310:../Resources/Drivers/STM32L4xx_HAL_Driver/Src/stm32l4xx_hal_flash_ex.c ****   if((pOBInit->OptionType & OPTIONBYTE_WRP) != 0U)
 311:../Resources/Drivers/STM32L4xx_HAL_Driver/Src/stm32l4xx_hal_flash_ex.c ****   {
 312:../Resources/Drivers/STM32L4xx_HAL_Driver/Src/stm32l4xx_hal_flash_ex.c ****     /* Configure of Write protection on the selected area */
 313:../Resources/Drivers/STM32L4xx_HAL_Driver/Src/stm32l4xx_hal_flash_ex.c ****     if(FLASH_OB_WRPConfig(pOBInit->WRPArea, pOBInit->WRPStartOffset, pOBInit->WRPEndOffset) != HAL_
 314:../Resources/Drivers/STM32L4xx_HAL_Driver/Src/stm32l4xx_hal_flash_ex.c ****     {
 315:../Resources/Drivers/STM32L4xx_HAL_Driver/Src/stm32l4xx_hal_flash_ex.c ****       status = HAL_ERROR;
ARM GAS  /tmp/cchkkQtC.s 			page 7


 316:../Resources/Drivers/STM32L4xx_HAL_Driver/Src/stm32l4xx_hal_flash_ex.c ****     }
 317:../Resources/Drivers/STM32L4xx_HAL_Driver/Src/stm32l4xx_hal_flash_ex.c **** 
 318:../Resources/Drivers/STM32L4xx_HAL_Driver/Src/stm32l4xx_hal_flash_ex.c ****   }
 319:../Resources/Drivers/STM32L4xx_HAL_Driver/Src/stm32l4xx_hal_flash_ex.c **** 
 320:../Resources/Drivers/STM32L4xx_HAL_Driver/Src/stm32l4xx_hal_flash_ex.c ****   /* Read protection configuration */
 321:../Resources/Drivers/STM32L4xx_HAL_Driver/Src/stm32l4xx_hal_flash_ex.c ****   if((pOBInit->OptionType & OPTIONBYTE_RDP) != 0U)
 322:../Resources/Drivers/STM32L4xx_HAL_Driver/Src/stm32l4xx_hal_flash_ex.c ****   {
 323:../Resources/Drivers/STM32L4xx_HAL_Driver/Src/stm32l4xx_hal_flash_ex.c ****     /* Configure the Read protection level */
 324:../Resources/Drivers/STM32L4xx_HAL_Driver/Src/stm32l4xx_hal_flash_ex.c ****     if(FLASH_OB_RDPConfig(pOBInit->RDPLevel) != HAL_OK)
 325:../Resources/Drivers/STM32L4xx_HAL_Driver/Src/stm32l4xx_hal_flash_ex.c ****     {
 326:../Resources/Drivers/STM32L4xx_HAL_Driver/Src/stm32l4xx_hal_flash_ex.c ****       status = HAL_ERROR;
 327:../Resources/Drivers/STM32L4xx_HAL_Driver/Src/stm32l4xx_hal_flash_ex.c ****     }
 328:../Resources/Drivers/STM32L4xx_HAL_Driver/Src/stm32l4xx_hal_flash_ex.c ****   }
 329:../Resources/Drivers/STM32L4xx_HAL_Driver/Src/stm32l4xx_hal_flash_ex.c **** 
 330:../Resources/Drivers/STM32L4xx_HAL_Driver/Src/stm32l4xx_hal_flash_ex.c ****   /* User Configuration */
 331:../Resources/Drivers/STM32L4xx_HAL_Driver/Src/stm32l4xx_hal_flash_ex.c ****   if((pOBInit->OptionType & OPTIONBYTE_USER) != 0U)
 332:../Resources/Drivers/STM32L4xx_HAL_Driver/Src/stm32l4xx_hal_flash_ex.c ****   {
 333:../Resources/Drivers/STM32L4xx_HAL_Driver/Src/stm32l4xx_hal_flash_ex.c ****     /* Configure the user option bytes */
 334:../Resources/Drivers/STM32L4xx_HAL_Driver/Src/stm32l4xx_hal_flash_ex.c ****     if(FLASH_OB_UserConfig(pOBInit->USERType, pOBInit->USERConfig) != HAL_OK)
 335:../Resources/Drivers/STM32L4xx_HAL_Driver/Src/stm32l4xx_hal_flash_ex.c ****     {
 336:../Resources/Drivers/STM32L4xx_HAL_Driver/Src/stm32l4xx_hal_flash_ex.c ****       status = HAL_ERROR;
 337:../Resources/Drivers/STM32L4xx_HAL_Driver/Src/stm32l4xx_hal_flash_ex.c ****     }
 338:../Resources/Drivers/STM32L4xx_HAL_Driver/Src/stm32l4xx_hal_flash_ex.c ****   }
 339:../Resources/Drivers/STM32L4xx_HAL_Driver/Src/stm32l4xx_hal_flash_ex.c **** 
 340:../Resources/Drivers/STM32L4xx_HAL_Driver/Src/stm32l4xx_hal_flash_ex.c ****   /* PCROP Configuration */
 341:../Resources/Drivers/STM32L4xx_HAL_Driver/Src/stm32l4xx_hal_flash_ex.c ****   if((pOBInit->OptionType & OPTIONBYTE_PCROP) != 0U)
 342:../Resources/Drivers/STM32L4xx_HAL_Driver/Src/stm32l4xx_hal_flash_ex.c ****   {
 343:../Resources/Drivers/STM32L4xx_HAL_Driver/Src/stm32l4xx_hal_flash_ex.c ****     if (pOBInit->PCROPStartAddr != pOBInit->PCROPEndAddr)
 344:../Resources/Drivers/STM32L4xx_HAL_Driver/Src/stm32l4xx_hal_flash_ex.c ****     {
 345:../Resources/Drivers/STM32L4xx_HAL_Driver/Src/stm32l4xx_hal_flash_ex.c ****       /* Configure the Proprietary code readout protection */
 346:../Resources/Drivers/STM32L4xx_HAL_Driver/Src/stm32l4xx_hal_flash_ex.c ****       if(FLASH_OB_PCROPConfig(pOBInit->PCROPConfig, pOBInit->PCROPStartAddr, pOBInit->PCROPEndAddr)
 347:../Resources/Drivers/STM32L4xx_HAL_Driver/Src/stm32l4xx_hal_flash_ex.c ****       {
 348:../Resources/Drivers/STM32L4xx_HAL_Driver/Src/stm32l4xx_hal_flash_ex.c ****         status = HAL_ERROR;
 349:../Resources/Drivers/STM32L4xx_HAL_Driver/Src/stm32l4xx_hal_flash_ex.c ****       }
 350:../Resources/Drivers/STM32L4xx_HAL_Driver/Src/stm32l4xx_hal_flash_ex.c ****     }
 351:../Resources/Drivers/STM32L4xx_HAL_Driver/Src/stm32l4xx_hal_flash_ex.c ****   }
 352:../Resources/Drivers/STM32L4xx_HAL_Driver/Src/stm32l4xx_hal_flash_ex.c **** 
 353:../Resources/Drivers/STM32L4xx_HAL_Driver/Src/stm32l4xx_hal_flash_ex.c ****   /* Process Unlocked */
 354:../Resources/Drivers/STM32L4xx_HAL_Driver/Src/stm32l4xx_hal_flash_ex.c ****   __HAL_UNLOCK(&pFlash);
 355:../Resources/Drivers/STM32L4xx_HAL_Driver/Src/stm32l4xx_hal_flash_ex.c **** 
 356:../Resources/Drivers/STM32L4xx_HAL_Driver/Src/stm32l4xx_hal_flash_ex.c ****   return status;
 357:../Resources/Drivers/STM32L4xx_HAL_Driver/Src/stm32l4xx_hal_flash_ex.c **** }
 358:../Resources/Drivers/STM32L4xx_HAL_Driver/Src/stm32l4xx_hal_flash_ex.c **** 
 359:../Resources/Drivers/STM32L4xx_HAL_Driver/Src/stm32l4xx_hal_flash_ex.c **** /**
 360:../Resources/Drivers/STM32L4xx_HAL_Driver/Src/stm32l4xx_hal_flash_ex.c ****   * @brief  Get the Option bytes configuration.
 361:../Resources/Drivers/STM32L4xx_HAL_Driver/Src/stm32l4xx_hal_flash_ex.c ****   * @param  pOBInit pointer to an FLASH_OBInitStruct structure that contains the
 362:../Resources/Drivers/STM32L4xx_HAL_Driver/Src/stm32l4xx_hal_flash_ex.c ****   *                  configuration information.
 363:../Resources/Drivers/STM32L4xx_HAL_Driver/Src/stm32l4xx_hal_flash_ex.c ****   * @note   The fields pOBInit->WRPArea and pOBInit->PCROPConfig should indicate
 364:../Resources/Drivers/STM32L4xx_HAL_Driver/Src/stm32l4xx_hal_flash_ex.c ****   *         which area is requested for the WRP and PCROP, else no information will be returned
 365:../Resources/Drivers/STM32L4xx_HAL_Driver/Src/stm32l4xx_hal_flash_ex.c ****   *
 366:../Resources/Drivers/STM32L4xx_HAL_Driver/Src/stm32l4xx_hal_flash_ex.c ****   * @retval None
 367:../Resources/Drivers/STM32L4xx_HAL_Driver/Src/stm32l4xx_hal_flash_ex.c ****   */
 368:../Resources/Drivers/STM32L4xx_HAL_Driver/Src/stm32l4xx_hal_flash_ex.c **** void HAL_FLASHEx_OBGetConfig(FLASH_OBProgramInitTypeDef *pOBInit)
 369:../Resources/Drivers/STM32L4xx_HAL_Driver/Src/stm32l4xx_hal_flash_ex.c **** {
 370:../Resources/Drivers/STM32L4xx_HAL_Driver/Src/stm32l4xx_hal_flash_ex.c ****   pOBInit->OptionType = (OPTIONBYTE_RDP | OPTIONBYTE_USER);
 371:../Resources/Drivers/STM32L4xx_HAL_Driver/Src/stm32l4xx_hal_flash_ex.c **** 
 372:../Resources/Drivers/STM32L4xx_HAL_Driver/Src/stm32l4xx_hal_flash_ex.c **** #if defined (STM32L471xx) || defined (STM32L475xx) || defined (STM32L476xx) || defined (STM32L485xx
ARM GAS  /tmp/cchkkQtC.s 			page 8


 373:../Resources/Drivers/STM32L4xx_HAL_Driver/Src/stm32l4xx_hal_flash_ex.c ****     defined (STM32L496xx) || defined (STM32L4A6xx) || \
 374:../Resources/Drivers/STM32L4xx_HAL_Driver/Src/stm32l4xx_hal_flash_ex.c ****     defined (STM32L4P5xx) || defined (STM32L4Q5xx) || \
 375:../Resources/Drivers/STM32L4xx_HAL_Driver/Src/stm32l4xx_hal_flash_ex.c ****     defined (STM32L4R5xx) || defined (STM32L4R7xx) || defined (STM32L4R9xx) || defined (STM32L4S5xx
 376:../Resources/Drivers/STM32L4xx_HAL_Driver/Src/stm32l4xx_hal_flash_ex.c ****   if((pOBInit->WRPArea == OB_WRPAREA_BANK1_AREAA) || (pOBInit->WRPArea == OB_WRPAREA_BANK1_AREAB) |
 377:../Resources/Drivers/STM32L4xx_HAL_Driver/Src/stm32l4xx_hal_flash_ex.c ****      (pOBInit->WRPArea == OB_WRPAREA_BANK2_AREAA) || (pOBInit->WRPArea == OB_WRPAREA_BANK2_AREAB))
 378:../Resources/Drivers/STM32L4xx_HAL_Driver/Src/stm32l4xx_hal_flash_ex.c **** #else
 379:../Resources/Drivers/STM32L4xx_HAL_Driver/Src/stm32l4xx_hal_flash_ex.c ****   if((pOBInit->WRPArea == OB_WRPAREA_BANK1_AREAA) || (pOBInit->WRPArea == OB_WRPAREA_BANK1_AREAB))
 380:../Resources/Drivers/STM32L4xx_HAL_Driver/Src/stm32l4xx_hal_flash_ex.c **** #endif
 381:../Resources/Drivers/STM32L4xx_HAL_Driver/Src/stm32l4xx_hal_flash_ex.c ****   {
 382:../Resources/Drivers/STM32L4xx_HAL_Driver/Src/stm32l4xx_hal_flash_ex.c ****     pOBInit->OptionType |= OPTIONBYTE_WRP;
 383:../Resources/Drivers/STM32L4xx_HAL_Driver/Src/stm32l4xx_hal_flash_ex.c ****     /* Get write protection on the selected area */
 384:../Resources/Drivers/STM32L4xx_HAL_Driver/Src/stm32l4xx_hal_flash_ex.c ****     FLASH_OB_GetWRP(pOBInit->WRPArea, &(pOBInit->WRPStartOffset), &(pOBInit->WRPEndOffset));
 385:../Resources/Drivers/STM32L4xx_HAL_Driver/Src/stm32l4xx_hal_flash_ex.c ****   }
 386:../Resources/Drivers/STM32L4xx_HAL_Driver/Src/stm32l4xx_hal_flash_ex.c **** 
 387:../Resources/Drivers/STM32L4xx_HAL_Driver/Src/stm32l4xx_hal_flash_ex.c ****   /* Get Read protection level */
 388:../Resources/Drivers/STM32L4xx_HAL_Driver/Src/stm32l4xx_hal_flash_ex.c ****   pOBInit->RDPLevel = FLASH_OB_GetRDP();
 389:../Resources/Drivers/STM32L4xx_HAL_Driver/Src/stm32l4xx_hal_flash_ex.c **** 
 390:../Resources/Drivers/STM32L4xx_HAL_Driver/Src/stm32l4xx_hal_flash_ex.c ****   /* Get the user option bytes */
 391:../Resources/Drivers/STM32L4xx_HAL_Driver/Src/stm32l4xx_hal_flash_ex.c ****   pOBInit->USERConfig = FLASH_OB_GetUser();
 392:../Resources/Drivers/STM32L4xx_HAL_Driver/Src/stm32l4xx_hal_flash_ex.c **** 
 393:../Resources/Drivers/STM32L4xx_HAL_Driver/Src/stm32l4xx_hal_flash_ex.c **** #if defined (STM32L471xx) || defined (STM32L475xx) || defined (STM32L476xx) || defined (STM32L485xx
 394:../Resources/Drivers/STM32L4xx_HAL_Driver/Src/stm32l4xx_hal_flash_ex.c ****     defined (STM32L496xx) || defined (STM32L4A6xx) || \
 395:../Resources/Drivers/STM32L4xx_HAL_Driver/Src/stm32l4xx_hal_flash_ex.c ****     defined (STM32L4P5xx) || defined (STM32L4Q5xx) || \
 396:../Resources/Drivers/STM32L4xx_HAL_Driver/Src/stm32l4xx_hal_flash_ex.c ****     defined (STM32L4R5xx) || defined (STM32L4R7xx) || defined (STM32L4R9xx) || defined (STM32L4S5xx
 397:../Resources/Drivers/STM32L4xx_HAL_Driver/Src/stm32l4xx_hal_flash_ex.c ****   if((pOBInit->PCROPConfig == FLASH_BANK_1) || (pOBInit->PCROPConfig == FLASH_BANK_2))
 398:../Resources/Drivers/STM32L4xx_HAL_Driver/Src/stm32l4xx_hal_flash_ex.c **** #else
 399:../Resources/Drivers/STM32L4xx_HAL_Driver/Src/stm32l4xx_hal_flash_ex.c ****   if(pOBInit->PCROPConfig == FLASH_BANK_1)
 400:../Resources/Drivers/STM32L4xx_HAL_Driver/Src/stm32l4xx_hal_flash_ex.c **** #endif
 401:../Resources/Drivers/STM32L4xx_HAL_Driver/Src/stm32l4xx_hal_flash_ex.c ****   {
 402:../Resources/Drivers/STM32L4xx_HAL_Driver/Src/stm32l4xx_hal_flash_ex.c ****     pOBInit->OptionType |= OPTIONBYTE_PCROP;
 403:../Resources/Drivers/STM32L4xx_HAL_Driver/Src/stm32l4xx_hal_flash_ex.c ****     /* Get the Proprietary code readout protection */
 404:../Resources/Drivers/STM32L4xx_HAL_Driver/Src/stm32l4xx_hal_flash_ex.c ****     FLASH_OB_GetPCROP(&(pOBInit->PCROPConfig), &(pOBInit->PCROPStartAddr), &(pOBInit->PCROPEndAddr)
 405:../Resources/Drivers/STM32L4xx_HAL_Driver/Src/stm32l4xx_hal_flash_ex.c ****   }
 406:../Resources/Drivers/STM32L4xx_HAL_Driver/Src/stm32l4xx_hal_flash_ex.c **** }
 407:../Resources/Drivers/STM32L4xx_HAL_Driver/Src/stm32l4xx_hal_flash_ex.c **** 
 408:../Resources/Drivers/STM32L4xx_HAL_Driver/Src/stm32l4xx_hal_flash_ex.c **** /**
 409:../Resources/Drivers/STM32L4xx_HAL_Driver/Src/stm32l4xx_hal_flash_ex.c ****   * @}
 410:../Resources/Drivers/STM32L4xx_HAL_Driver/Src/stm32l4xx_hal_flash_ex.c ****   */
 411:../Resources/Drivers/STM32L4xx_HAL_Driver/Src/stm32l4xx_hal_flash_ex.c **** 
 412:../Resources/Drivers/STM32L4xx_HAL_Driver/Src/stm32l4xx_hal_flash_ex.c **** #if defined (FLASH_CFGR_LVEN)
 413:../Resources/Drivers/STM32L4xx_HAL_Driver/Src/stm32l4xx_hal_flash_ex.c **** /** @defgroup FLASHEx_Exported_Functions_Group2 Extended specific configuration functions
 414:../Resources/Drivers/STM32L4xx_HAL_Driver/Src/stm32l4xx_hal_flash_ex.c ****  *  @brief   Extended specific configuration functions
 415:../Resources/Drivers/STM32L4xx_HAL_Driver/Src/stm32l4xx_hal_flash_ex.c ****  *
 416:../Resources/Drivers/STM32L4xx_HAL_Driver/Src/stm32l4xx_hal_flash_ex.c **** @verbatim
 417:../Resources/Drivers/STM32L4xx_HAL_Driver/Src/stm32l4xx_hal_flash_ex.c ****  ===============================================================================
 418:../Resources/Drivers/STM32L4xx_HAL_Driver/Src/stm32l4xx_hal_flash_ex.c ****                 ##### Extended specific configuration functions #####
 419:../Resources/Drivers/STM32L4xx_HAL_Driver/Src/stm32l4xx_hal_flash_ex.c ****  ===============================================================================
 420:../Resources/Drivers/STM32L4xx_HAL_Driver/Src/stm32l4xx_hal_flash_ex.c ****     [..]
 421:../Resources/Drivers/STM32L4xx_HAL_Driver/Src/stm32l4xx_hal_flash_ex.c ****     This subsection provides a set of functions allowing to manage the Extended FLASH
 422:../Resources/Drivers/STM32L4xx_HAL_Driver/Src/stm32l4xx_hal_flash_ex.c ****     specific configurations.
 423:../Resources/Drivers/STM32L4xx_HAL_Driver/Src/stm32l4xx_hal_flash_ex.c **** 
 424:../Resources/Drivers/STM32L4xx_HAL_Driver/Src/stm32l4xx_hal_flash_ex.c **** @endverbatim
 425:../Resources/Drivers/STM32L4xx_HAL_Driver/Src/stm32l4xx_hal_flash_ex.c ****   * @{
 426:../Resources/Drivers/STM32L4xx_HAL_Driver/Src/stm32l4xx_hal_flash_ex.c ****   */
 427:../Resources/Drivers/STM32L4xx_HAL_Driver/Src/stm32l4xx_hal_flash_ex.c **** 
 428:../Resources/Drivers/STM32L4xx_HAL_Driver/Src/stm32l4xx_hal_flash_ex.c **** /**
 429:../Resources/Drivers/STM32L4xx_HAL_Driver/Src/stm32l4xx_hal_flash_ex.c ****   * @brief  Configuration of the LVE pin of the Flash (managed by power controller
ARM GAS  /tmp/cchkkQtC.s 			page 9


 430:../Resources/Drivers/STM32L4xx_HAL_Driver/Src/stm32l4xx_hal_flash_ex.c ****   *         or forced to low in order to use an external SMPS)
 431:../Resources/Drivers/STM32L4xx_HAL_Driver/Src/stm32l4xx_hal_flash_ex.c ****   * @param  ConfigLVE Configuration of the LVE pin,
 432:../Resources/Drivers/STM32L4xx_HAL_Driver/Src/stm32l4xx_hal_flash_ex.c ****   *              This parameter can be one of the following values:
 433:../Resources/Drivers/STM32L4xx_HAL_Driver/Src/stm32l4xx_hal_flash_ex.c ****   *                @arg FLASH_LVE_PIN_CTRL: LVE FLASH pin controlled by power controller
 434:../Resources/Drivers/STM32L4xx_HAL_Driver/Src/stm32l4xx_hal_flash_ex.c ****   *                @arg FLASH_LVE_PIN_FORCED: LVE FLASH pin enforced to low (external SMPS used)
 435:../Resources/Drivers/STM32L4xx_HAL_Driver/Src/stm32l4xx_hal_flash_ex.c ****   *
 436:../Resources/Drivers/STM32L4xx_HAL_Driver/Src/stm32l4xx_hal_flash_ex.c ****   * @note   Before enforcing the LVE pin to low, the SOC should be in low voltage
 437:../Resources/Drivers/STM32L4xx_HAL_Driver/Src/stm32l4xx_hal_flash_ex.c ****   *         range 2 and the voltage VDD12 should be higher than 1.08V and SMPS is ON.
 438:../Resources/Drivers/STM32L4xx_HAL_Driver/Src/stm32l4xx_hal_flash_ex.c ****   *
 439:../Resources/Drivers/STM32L4xx_HAL_Driver/Src/stm32l4xx_hal_flash_ex.c ****   * @retval HAL Status
 440:../Resources/Drivers/STM32L4xx_HAL_Driver/Src/stm32l4xx_hal_flash_ex.c ****   */
 441:../Resources/Drivers/STM32L4xx_HAL_Driver/Src/stm32l4xx_hal_flash_ex.c **** HAL_StatusTypeDef HAL_FLASHEx_ConfigLVEPin(uint32_t ConfigLVE)
 442:../Resources/Drivers/STM32L4xx_HAL_Driver/Src/stm32l4xx_hal_flash_ex.c **** {
 443:../Resources/Drivers/STM32L4xx_HAL_Driver/Src/stm32l4xx_hal_flash_ex.c ****   HAL_StatusTypeDef status;
 444:../Resources/Drivers/STM32L4xx_HAL_Driver/Src/stm32l4xx_hal_flash_ex.c **** 
 445:../Resources/Drivers/STM32L4xx_HAL_Driver/Src/stm32l4xx_hal_flash_ex.c ****   /* Process Locked */
 446:../Resources/Drivers/STM32L4xx_HAL_Driver/Src/stm32l4xx_hal_flash_ex.c ****   __HAL_LOCK(&pFlash);
 447:../Resources/Drivers/STM32L4xx_HAL_Driver/Src/stm32l4xx_hal_flash_ex.c **** 
 448:../Resources/Drivers/STM32L4xx_HAL_Driver/Src/stm32l4xx_hal_flash_ex.c ****   /* Check the parameters */
 449:../Resources/Drivers/STM32L4xx_HAL_Driver/Src/stm32l4xx_hal_flash_ex.c ****   assert_param(IS_FLASH_LVE_PIN(ConfigLVE));
 450:../Resources/Drivers/STM32L4xx_HAL_Driver/Src/stm32l4xx_hal_flash_ex.c **** 
 451:../Resources/Drivers/STM32L4xx_HAL_Driver/Src/stm32l4xx_hal_flash_ex.c ****   /* Wait for last operation to be completed */
 452:../Resources/Drivers/STM32L4xx_HAL_Driver/Src/stm32l4xx_hal_flash_ex.c ****   status = FLASH_WaitForLastOperation((uint32_t)FLASH_TIMEOUT_VALUE);
 453:../Resources/Drivers/STM32L4xx_HAL_Driver/Src/stm32l4xx_hal_flash_ex.c **** 
 454:../Resources/Drivers/STM32L4xx_HAL_Driver/Src/stm32l4xx_hal_flash_ex.c ****   if (status == HAL_OK)
 455:../Resources/Drivers/STM32L4xx_HAL_Driver/Src/stm32l4xx_hal_flash_ex.c ****   {
 456:../Resources/Drivers/STM32L4xx_HAL_Driver/Src/stm32l4xx_hal_flash_ex.c ****     /* Check that the voltage scaling is range 2 */
 457:../Resources/Drivers/STM32L4xx_HAL_Driver/Src/stm32l4xx_hal_flash_ex.c ****     if (HAL_PWREx_GetVoltageRange() == PWR_REGULATOR_VOLTAGE_SCALE2)
 458:../Resources/Drivers/STM32L4xx_HAL_Driver/Src/stm32l4xx_hal_flash_ex.c ****     {
 459:../Resources/Drivers/STM32L4xx_HAL_Driver/Src/stm32l4xx_hal_flash_ex.c ****       /* Configure the LVEN bit */
 460:../Resources/Drivers/STM32L4xx_HAL_Driver/Src/stm32l4xx_hal_flash_ex.c ****       MODIFY_REG(FLASH->CFGR, FLASH_CFGR_LVEN, ConfigLVE);
 461:../Resources/Drivers/STM32L4xx_HAL_Driver/Src/stm32l4xx_hal_flash_ex.c **** 
 462:../Resources/Drivers/STM32L4xx_HAL_Driver/Src/stm32l4xx_hal_flash_ex.c ****       /* Check that the bit has been correctly configured */
 463:../Resources/Drivers/STM32L4xx_HAL_Driver/Src/stm32l4xx_hal_flash_ex.c ****       if (READ_BIT(FLASH->CFGR, FLASH_CFGR_LVEN) != ConfigLVE)
 464:../Resources/Drivers/STM32L4xx_HAL_Driver/Src/stm32l4xx_hal_flash_ex.c ****       {
 465:../Resources/Drivers/STM32L4xx_HAL_Driver/Src/stm32l4xx_hal_flash_ex.c ****         status = HAL_ERROR;
 466:../Resources/Drivers/STM32L4xx_HAL_Driver/Src/stm32l4xx_hal_flash_ex.c ****       }
 467:../Resources/Drivers/STM32L4xx_HAL_Driver/Src/stm32l4xx_hal_flash_ex.c ****     }
 468:../Resources/Drivers/STM32L4xx_HAL_Driver/Src/stm32l4xx_hal_flash_ex.c ****     else
 469:../Resources/Drivers/STM32L4xx_HAL_Driver/Src/stm32l4xx_hal_flash_ex.c ****     {
 470:../Resources/Drivers/STM32L4xx_HAL_Driver/Src/stm32l4xx_hal_flash_ex.c ****       /* Not allow to force Flash LVE pin if not in voltage range 2 */
 471:../Resources/Drivers/STM32L4xx_HAL_Driver/Src/stm32l4xx_hal_flash_ex.c ****       status = HAL_ERROR;
 472:../Resources/Drivers/STM32L4xx_HAL_Driver/Src/stm32l4xx_hal_flash_ex.c ****     }
 473:../Resources/Drivers/STM32L4xx_HAL_Driver/Src/stm32l4xx_hal_flash_ex.c ****   }
 474:../Resources/Drivers/STM32L4xx_HAL_Driver/Src/stm32l4xx_hal_flash_ex.c **** 
 475:../Resources/Drivers/STM32L4xx_HAL_Driver/Src/stm32l4xx_hal_flash_ex.c ****   /* Process Unlocked */
 476:../Resources/Drivers/STM32L4xx_HAL_Driver/Src/stm32l4xx_hal_flash_ex.c ****   __HAL_UNLOCK(&pFlash);
 477:../Resources/Drivers/STM32L4xx_HAL_Driver/Src/stm32l4xx_hal_flash_ex.c **** 
 478:../Resources/Drivers/STM32L4xx_HAL_Driver/Src/stm32l4xx_hal_flash_ex.c ****   return status;
 479:../Resources/Drivers/STM32L4xx_HAL_Driver/Src/stm32l4xx_hal_flash_ex.c **** }
 480:../Resources/Drivers/STM32L4xx_HAL_Driver/Src/stm32l4xx_hal_flash_ex.c **** 
 481:../Resources/Drivers/STM32L4xx_HAL_Driver/Src/stm32l4xx_hal_flash_ex.c **** /**
 482:../Resources/Drivers/STM32L4xx_HAL_Driver/Src/stm32l4xx_hal_flash_ex.c ****   * @}
 483:../Resources/Drivers/STM32L4xx_HAL_Driver/Src/stm32l4xx_hal_flash_ex.c ****   */
 484:../Resources/Drivers/STM32L4xx_HAL_Driver/Src/stm32l4xx_hal_flash_ex.c **** #endif /* FLASH_CFGR_LVEN */
 485:../Resources/Drivers/STM32L4xx_HAL_Driver/Src/stm32l4xx_hal_flash_ex.c **** 
 486:../Resources/Drivers/STM32L4xx_HAL_Driver/Src/stm32l4xx_hal_flash_ex.c **** /**
ARM GAS  /tmp/cchkkQtC.s 			page 10


 487:../Resources/Drivers/STM32L4xx_HAL_Driver/Src/stm32l4xx_hal_flash_ex.c ****   * @}
 488:../Resources/Drivers/STM32L4xx_HAL_Driver/Src/stm32l4xx_hal_flash_ex.c ****   */
 489:../Resources/Drivers/STM32L4xx_HAL_Driver/Src/stm32l4xx_hal_flash_ex.c **** 
 490:../Resources/Drivers/STM32L4xx_HAL_Driver/Src/stm32l4xx_hal_flash_ex.c **** /* Private functions ---------------------------------------------------------*/
 491:../Resources/Drivers/STM32L4xx_HAL_Driver/Src/stm32l4xx_hal_flash_ex.c **** 
 492:../Resources/Drivers/STM32L4xx_HAL_Driver/Src/stm32l4xx_hal_flash_ex.c **** /** @addtogroup FLASHEx_Private_Functions
 493:../Resources/Drivers/STM32L4xx_HAL_Driver/Src/stm32l4xx_hal_flash_ex.c ****   * @{
 494:../Resources/Drivers/STM32L4xx_HAL_Driver/Src/stm32l4xx_hal_flash_ex.c ****   */
 495:../Resources/Drivers/STM32L4xx_HAL_Driver/Src/stm32l4xx_hal_flash_ex.c **** /**
 496:../Resources/Drivers/STM32L4xx_HAL_Driver/Src/stm32l4xx_hal_flash_ex.c ****   * @brief  Mass erase of FLASH memory.
 497:../Resources/Drivers/STM32L4xx_HAL_Driver/Src/stm32l4xx_hal_flash_ex.c ****   * @param  Banks Banks to be erased
 498:../Resources/Drivers/STM32L4xx_HAL_Driver/Src/stm32l4xx_hal_flash_ex.c ****   *          This parameter can be one of the following values:
 499:../Resources/Drivers/STM32L4xx_HAL_Driver/Src/stm32l4xx_hal_flash_ex.c ****   *            @arg FLASH_BANK_1: Bank1 to be erased
 500:../Resources/Drivers/STM32L4xx_HAL_Driver/Src/stm32l4xx_hal_flash_ex.c ****   *            @arg FLASH_BANK_2: Bank2 to be erased
 501:../Resources/Drivers/STM32L4xx_HAL_Driver/Src/stm32l4xx_hal_flash_ex.c ****   *            @arg FLASH_BANK_BOTH: Bank1 and Bank2 to be erased
 502:../Resources/Drivers/STM32L4xx_HAL_Driver/Src/stm32l4xx_hal_flash_ex.c ****   * @retval None
 503:../Resources/Drivers/STM32L4xx_HAL_Driver/Src/stm32l4xx_hal_flash_ex.c ****   */
 504:../Resources/Drivers/STM32L4xx_HAL_Driver/Src/stm32l4xx_hal_flash_ex.c **** static void FLASH_MassErase(uint32_t Banks)
 505:../Resources/Drivers/STM32L4xx_HAL_Driver/Src/stm32l4xx_hal_flash_ex.c **** {
  29              		.loc 1 505 1 view -0
  30              		.cfi_startproc
  31              		@ args = 0, pretend = 0, frame = 0
  32              		@ frame_needed = 0, uses_anonymous_args = 0
  33              		@ link register save eliminated.
 506:../Resources/Drivers/STM32L4xx_HAL_Driver/Src/stm32l4xx_hal_flash_ex.c **** #if defined (STM32L4P5xx) || defined (STM32L4Q5xx) || defined (STM32L4R5xx) || defined (STM32L4R7xx
 507:../Resources/Drivers/STM32L4xx_HAL_Driver/Src/stm32l4xx_hal_flash_ex.c ****   if (READ_BIT(FLASH->OPTR, FLASH_OPTR_DBANK) != 0U)
 508:../Resources/Drivers/STM32L4xx_HAL_Driver/Src/stm32l4xx_hal_flash_ex.c **** #endif
 509:../Resources/Drivers/STM32L4xx_HAL_Driver/Src/stm32l4xx_hal_flash_ex.c ****   {
 510:../Resources/Drivers/STM32L4xx_HAL_Driver/Src/stm32l4xx_hal_flash_ex.c ****     /* Check the parameters */
 511:../Resources/Drivers/STM32L4xx_HAL_Driver/Src/stm32l4xx_hal_flash_ex.c ****     assert_param(IS_FLASH_BANK(Banks));
  34              		.loc 1 511 5 view .LVU1
 512:../Resources/Drivers/STM32L4xx_HAL_Driver/Src/stm32l4xx_hal_flash_ex.c **** 
 513:../Resources/Drivers/STM32L4xx_HAL_Driver/Src/stm32l4xx_hal_flash_ex.c ****     /* Set the Mass Erase Bit for the bank 1 if requested */
 514:../Resources/Drivers/STM32L4xx_HAL_Driver/Src/stm32l4xx_hal_flash_ex.c ****     if((Banks & FLASH_BANK_1) != 0U)
  35              		.loc 1 514 5 view .LVU2
  36              		.loc 1 514 7 is_stmt 0 view .LVU3
  37 0000 10F0010F 		tst	r0, #1
  38 0004 04D0     		beq	.L2
 515:../Resources/Drivers/STM32L4xx_HAL_Driver/Src/stm32l4xx_hal_flash_ex.c ****     {
 516:../Resources/Drivers/STM32L4xx_HAL_Driver/Src/stm32l4xx_hal_flash_ex.c ****       SET_BIT(FLASH->CR, FLASH_CR_MER1);
  39              		.loc 1 516 7 is_stmt 1 view .LVU4
  40 0006 094A     		ldr	r2, .L4
  41 0008 5369     		ldr	r3, [r2, #20]
  42 000a 43F00403 		orr	r3, r3, #4
  43 000e 5361     		str	r3, [r2, #20]
  44              	.L2:
 517:../Resources/Drivers/STM32L4xx_HAL_Driver/Src/stm32l4xx_hal_flash_ex.c ****     }
 518:../Resources/Drivers/STM32L4xx_HAL_Driver/Src/stm32l4xx_hal_flash_ex.c **** 
 519:../Resources/Drivers/STM32L4xx_HAL_Driver/Src/stm32l4xx_hal_flash_ex.c **** #if defined (STM32L471xx) || defined (STM32L475xx) || defined (STM32L476xx) || defined (STM32L485xx
 520:../Resources/Drivers/STM32L4xx_HAL_Driver/Src/stm32l4xx_hal_flash_ex.c ****     defined (STM32L496xx) || defined (STM32L4A6xx) || \
 521:../Resources/Drivers/STM32L4xx_HAL_Driver/Src/stm32l4xx_hal_flash_ex.c ****     defined (STM32L4P5xx) || defined (STM32L4Q5xx) || \
 522:../Resources/Drivers/STM32L4xx_HAL_Driver/Src/stm32l4xx_hal_flash_ex.c ****     defined (STM32L4R5xx) || defined (STM32L4R7xx) || defined (STM32L4R9xx) || defined (STM32L4S5xx
 523:../Resources/Drivers/STM32L4xx_HAL_Driver/Src/stm32l4xx_hal_flash_ex.c ****     /* Set the Mass Erase Bit for the bank 2 if requested */
 524:../Resources/Drivers/STM32L4xx_HAL_Driver/Src/stm32l4xx_hal_flash_ex.c ****     if((Banks & FLASH_BANK_2) != 0U)
  45              		.loc 1 524 5 view .LVU5
  46              		.loc 1 524 7 is_stmt 0 view .LVU6
  47 0010 10F0020F 		tst	r0, #2
ARM GAS  /tmp/cchkkQtC.s 			page 11


  48 0014 04D0     		beq	.L3
 525:../Resources/Drivers/STM32L4xx_HAL_Driver/Src/stm32l4xx_hal_flash_ex.c ****     {
 526:../Resources/Drivers/STM32L4xx_HAL_Driver/Src/stm32l4xx_hal_flash_ex.c ****       SET_BIT(FLASH->CR, FLASH_CR_MER2);
  49              		.loc 1 526 7 is_stmt 1 view .LVU7
  50 0016 054A     		ldr	r2, .L4
  51 0018 5369     		ldr	r3, [r2, #20]
  52 001a 43F40043 		orr	r3, r3, #32768
  53 001e 5361     		str	r3, [r2, #20]
  54              	.L3:
 527:../Resources/Drivers/STM32L4xx_HAL_Driver/Src/stm32l4xx_hal_flash_ex.c ****     }
 528:../Resources/Drivers/STM32L4xx_HAL_Driver/Src/stm32l4xx_hal_flash_ex.c **** #endif
 529:../Resources/Drivers/STM32L4xx_HAL_Driver/Src/stm32l4xx_hal_flash_ex.c ****   }
 530:../Resources/Drivers/STM32L4xx_HAL_Driver/Src/stm32l4xx_hal_flash_ex.c **** #if defined (STM32L4P5xx) || defined (STM32L4Q5xx) || defined (STM32L4R5xx) || defined (STM32L4R7xx
 531:../Resources/Drivers/STM32L4xx_HAL_Driver/Src/stm32l4xx_hal_flash_ex.c ****   else
 532:../Resources/Drivers/STM32L4xx_HAL_Driver/Src/stm32l4xx_hal_flash_ex.c ****   {
 533:../Resources/Drivers/STM32L4xx_HAL_Driver/Src/stm32l4xx_hal_flash_ex.c ****     SET_BIT(FLASH->CR, (FLASH_CR_MER1 | FLASH_CR_MER2));
 534:../Resources/Drivers/STM32L4xx_HAL_Driver/Src/stm32l4xx_hal_flash_ex.c ****   }
 535:../Resources/Drivers/STM32L4xx_HAL_Driver/Src/stm32l4xx_hal_flash_ex.c **** #endif
 536:../Resources/Drivers/STM32L4xx_HAL_Driver/Src/stm32l4xx_hal_flash_ex.c **** 
 537:../Resources/Drivers/STM32L4xx_HAL_Driver/Src/stm32l4xx_hal_flash_ex.c ****   /* Proceed to erase all sectors */
 538:../Resources/Drivers/STM32L4xx_HAL_Driver/Src/stm32l4xx_hal_flash_ex.c ****   SET_BIT(FLASH->CR, FLASH_CR_STRT);
  55              		.loc 1 538 3 view .LVU8
  56 0020 024A     		ldr	r2, .L4
  57 0022 5369     		ldr	r3, [r2, #20]
  58 0024 43F48033 		orr	r3, r3, #65536
  59 0028 5361     		str	r3, [r2, #20]
 539:../Resources/Drivers/STM32L4xx_HAL_Driver/Src/stm32l4xx_hal_flash_ex.c **** }
  60              		.loc 1 539 1 is_stmt 0 view .LVU9
  61 002a 7047     		bx	lr
  62              	.L5:
  63              		.align	2
  64              	.L4:
  65 002c 00200240 		.word	1073881088
  66              		.cfi_endproc
  67              	.LFE136:
  69              		.section	.text.FLASH_OB_GetWRP,"ax",%progbits
  70              		.align	1
  71              		.syntax unified
  72              		.thumb
  73              		.thumb_func
  75              	FLASH_OB_GetWRP:
  76              	.LVL1:
  77              	.LFB143:
 540:../Resources/Drivers/STM32L4xx_HAL_Driver/Src/stm32l4xx_hal_flash_ex.c **** 
 541:../Resources/Drivers/STM32L4xx_HAL_Driver/Src/stm32l4xx_hal_flash_ex.c **** /**
 542:../Resources/Drivers/STM32L4xx_HAL_Driver/Src/stm32l4xx_hal_flash_ex.c ****   * @brief  Erase the specified FLASH memory page.
 543:../Resources/Drivers/STM32L4xx_HAL_Driver/Src/stm32l4xx_hal_flash_ex.c ****   * @param  Page FLASH page to erase
 544:../Resources/Drivers/STM32L4xx_HAL_Driver/Src/stm32l4xx_hal_flash_ex.c ****   *         This parameter must be a value between 0 and (max number of pages in the bank - 1)
 545:../Resources/Drivers/STM32L4xx_HAL_Driver/Src/stm32l4xx_hal_flash_ex.c ****   * @param  Banks Bank(s) where the page will be erased
 546:../Resources/Drivers/STM32L4xx_HAL_Driver/Src/stm32l4xx_hal_flash_ex.c ****   *          This parameter can be one of the following values:
 547:../Resources/Drivers/STM32L4xx_HAL_Driver/Src/stm32l4xx_hal_flash_ex.c ****   *            @arg FLASH_BANK_1: Page in bank 1 to be erased
 548:../Resources/Drivers/STM32L4xx_HAL_Driver/Src/stm32l4xx_hal_flash_ex.c ****   *            @arg FLASH_BANK_2: Page in bank 2 to be erased
 549:../Resources/Drivers/STM32L4xx_HAL_Driver/Src/stm32l4xx_hal_flash_ex.c ****   * @retval None
 550:../Resources/Drivers/STM32L4xx_HAL_Driver/Src/stm32l4xx_hal_flash_ex.c ****   */
 551:../Resources/Drivers/STM32L4xx_HAL_Driver/Src/stm32l4xx_hal_flash_ex.c **** void FLASH_PageErase(uint32_t Page, uint32_t Banks)
 552:../Resources/Drivers/STM32L4xx_HAL_Driver/Src/stm32l4xx_hal_flash_ex.c **** {
 553:../Resources/Drivers/STM32L4xx_HAL_Driver/Src/stm32l4xx_hal_flash_ex.c ****   /* Check the parameters */
ARM GAS  /tmp/cchkkQtC.s 			page 12


 554:../Resources/Drivers/STM32L4xx_HAL_Driver/Src/stm32l4xx_hal_flash_ex.c ****   assert_param(IS_FLASH_PAGE(Page));
 555:../Resources/Drivers/STM32L4xx_HAL_Driver/Src/stm32l4xx_hal_flash_ex.c **** 
 556:../Resources/Drivers/STM32L4xx_HAL_Driver/Src/stm32l4xx_hal_flash_ex.c **** #if defined (STM32L471xx) || defined (STM32L475xx) || defined (STM32L476xx) || defined (STM32L485xx
 557:../Resources/Drivers/STM32L4xx_HAL_Driver/Src/stm32l4xx_hal_flash_ex.c ****     defined (STM32L496xx) || defined (STM32L4A6xx) || \
 558:../Resources/Drivers/STM32L4xx_HAL_Driver/Src/stm32l4xx_hal_flash_ex.c ****     defined (STM32L4P5xx) || defined (STM32L4Q5xx) || \
 559:../Resources/Drivers/STM32L4xx_HAL_Driver/Src/stm32l4xx_hal_flash_ex.c ****     defined (STM32L4R5xx) || defined (STM32L4R7xx) || defined (STM32L4R9xx) || defined (STM32L4S5xx
 560:../Resources/Drivers/STM32L4xx_HAL_Driver/Src/stm32l4xx_hal_flash_ex.c **** #if defined (STM32L4P5xx) || defined (STM32L4Q5xx) || defined (STM32L4R5xx) || defined (STM32L4R7xx
 561:../Resources/Drivers/STM32L4xx_HAL_Driver/Src/stm32l4xx_hal_flash_ex.c ****   if(READ_BIT(FLASH->OPTR, FLASH_OPTR_DBANK) == 0U)
 562:../Resources/Drivers/STM32L4xx_HAL_Driver/Src/stm32l4xx_hal_flash_ex.c ****   {
 563:../Resources/Drivers/STM32L4xx_HAL_Driver/Src/stm32l4xx_hal_flash_ex.c ****     CLEAR_BIT(FLASH->CR, FLASH_CR_BKER);
 564:../Resources/Drivers/STM32L4xx_HAL_Driver/Src/stm32l4xx_hal_flash_ex.c ****   }
 565:../Resources/Drivers/STM32L4xx_HAL_Driver/Src/stm32l4xx_hal_flash_ex.c ****   else
 566:../Resources/Drivers/STM32L4xx_HAL_Driver/Src/stm32l4xx_hal_flash_ex.c **** #endif
 567:../Resources/Drivers/STM32L4xx_HAL_Driver/Src/stm32l4xx_hal_flash_ex.c ****   {
 568:../Resources/Drivers/STM32L4xx_HAL_Driver/Src/stm32l4xx_hal_flash_ex.c ****     assert_param(IS_FLASH_BANK_EXCLUSIVE(Banks));
 569:../Resources/Drivers/STM32L4xx_HAL_Driver/Src/stm32l4xx_hal_flash_ex.c **** 
 570:../Resources/Drivers/STM32L4xx_HAL_Driver/Src/stm32l4xx_hal_flash_ex.c ****     if((Banks & FLASH_BANK_1) != 0U)
 571:../Resources/Drivers/STM32L4xx_HAL_Driver/Src/stm32l4xx_hal_flash_ex.c ****     {
 572:../Resources/Drivers/STM32L4xx_HAL_Driver/Src/stm32l4xx_hal_flash_ex.c ****       CLEAR_BIT(FLASH->CR, FLASH_CR_BKER);
 573:../Resources/Drivers/STM32L4xx_HAL_Driver/Src/stm32l4xx_hal_flash_ex.c ****     }
 574:../Resources/Drivers/STM32L4xx_HAL_Driver/Src/stm32l4xx_hal_flash_ex.c ****     else
 575:../Resources/Drivers/STM32L4xx_HAL_Driver/Src/stm32l4xx_hal_flash_ex.c ****     {
 576:../Resources/Drivers/STM32L4xx_HAL_Driver/Src/stm32l4xx_hal_flash_ex.c ****       SET_BIT(FLASH->CR, FLASH_CR_BKER);
 577:../Resources/Drivers/STM32L4xx_HAL_Driver/Src/stm32l4xx_hal_flash_ex.c ****     }
 578:../Resources/Drivers/STM32L4xx_HAL_Driver/Src/stm32l4xx_hal_flash_ex.c ****   }
 579:../Resources/Drivers/STM32L4xx_HAL_Driver/Src/stm32l4xx_hal_flash_ex.c **** #else
 580:../Resources/Drivers/STM32L4xx_HAL_Driver/Src/stm32l4xx_hal_flash_ex.c ****   /* Prevent unused argument(s) compilation warning */
 581:../Resources/Drivers/STM32L4xx_HAL_Driver/Src/stm32l4xx_hal_flash_ex.c ****   UNUSED(Banks);
 582:../Resources/Drivers/STM32L4xx_HAL_Driver/Src/stm32l4xx_hal_flash_ex.c **** #endif
 583:../Resources/Drivers/STM32L4xx_HAL_Driver/Src/stm32l4xx_hal_flash_ex.c **** 
 584:../Resources/Drivers/STM32L4xx_HAL_Driver/Src/stm32l4xx_hal_flash_ex.c ****   /* Proceed to erase the page */
 585:../Resources/Drivers/STM32L4xx_HAL_Driver/Src/stm32l4xx_hal_flash_ex.c ****   MODIFY_REG(FLASH->CR, FLASH_CR_PNB, ((Page & 0xFFU) << FLASH_CR_PNB_Pos));
 586:../Resources/Drivers/STM32L4xx_HAL_Driver/Src/stm32l4xx_hal_flash_ex.c ****   SET_BIT(FLASH->CR, FLASH_CR_PER);
 587:../Resources/Drivers/STM32L4xx_HAL_Driver/Src/stm32l4xx_hal_flash_ex.c ****   SET_BIT(FLASH->CR, FLASH_CR_STRT);
 588:../Resources/Drivers/STM32L4xx_HAL_Driver/Src/stm32l4xx_hal_flash_ex.c **** }
 589:../Resources/Drivers/STM32L4xx_HAL_Driver/Src/stm32l4xx_hal_flash_ex.c **** 
 590:../Resources/Drivers/STM32L4xx_HAL_Driver/Src/stm32l4xx_hal_flash_ex.c **** /**
 591:../Resources/Drivers/STM32L4xx_HAL_Driver/Src/stm32l4xx_hal_flash_ex.c ****   * @brief  Flush the instruction and data caches.
 592:../Resources/Drivers/STM32L4xx_HAL_Driver/Src/stm32l4xx_hal_flash_ex.c ****   * @retval None
 593:../Resources/Drivers/STM32L4xx_HAL_Driver/Src/stm32l4xx_hal_flash_ex.c ****   */
 594:../Resources/Drivers/STM32L4xx_HAL_Driver/Src/stm32l4xx_hal_flash_ex.c **** void FLASH_FlushCaches(void)
 595:../Resources/Drivers/STM32L4xx_HAL_Driver/Src/stm32l4xx_hal_flash_ex.c **** {
 596:../Resources/Drivers/STM32L4xx_HAL_Driver/Src/stm32l4xx_hal_flash_ex.c ****   FLASH_CacheTypeDef cache = pFlash.CacheToReactivate;
 597:../Resources/Drivers/STM32L4xx_HAL_Driver/Src/stm32l4xx_hal_flash_ex.c **** 
 598:../Resources/Drivers/STM32L4xx_HAL_Driver/Src/stm32l4xx_hal_flash_ex.c ****   /* Flush instruction cache  */
 599:../Resources/Drivers/STM32L4xx_HAL_Driver/Src/stm32l4xx_hal_flash_ex.c ****   if((cache == FLASH_CACHE_ICACHE_ENABLED) ||
 600:../Resources/Drivers/STM32L4xx_HAL_Driver/Src/stm32l4xx_hal_flash_ex.c ****      (cache == FLASH_CACHE_ICACHE_DCACHE_ENABLED))
 601:../Resources/Drivers/STM32L4xx_HAL_Driver/Src/stm32l4xx_hal_flash_ex.c ****   {
 602:../Resources/Drivers/STM32L4xx_HAL_Driver/Src/stm32l4xx_hal_flash_ex.c ****     /* Disable instruction cache */
 603:../Resources/Drivers/STM32L4xx_HAL_Driver/Src/stm32l4xx_hal_flash_ex.c ****     __HAL_FLASH_INSTRUCTION_CACHE_DISABLE();
 604:../Resources/Drivers/STM32L4xx_HAL_Driver/Src/stm32l4xx_hal_flash_ex.c ****     /* Reset instruction cache */
 605:../Resources/Drivers/STM32L4xx_HAL_Driver/Src/stm32l4xx_hal_flash_ex.c ****     __HAL_FLASH_INSTRUCTION_CACHE_RESET();
 606:../Resources/Drivers/STM32L4xx_HAL_Driver/Src/stm32l4xx_hal_flash_ex.c ****     /* Enable instruction cache */
 607:../Resources/Drivers/STM32L4xx_HAL_Driver/Src/stm32l4xx_hal_flash_ex.c ****     __HAL_FLASH_INSTRUCTION_CACHE_ENABLE();
 608:../Resources/Drivers/STM32L4xx_HAL_Driver/Src/stm32l4xx_hal_flash_ex.c ****   }
 609:../Resources/Drivers/STM32L4xx_HAL_Driver/Src/stm32l4xx_hal_flash_ex.c **** 
 610:../Resources/Drivers/STM32L4xx_HAL_Driver/Src/stm32l4xx_hal_flash_ex.c ****   /* Flush data cache */
ARM GAS  /tmp/cchkkQtC.s 			page 13


 611:../Resources/Drivers/STM32L4xx_HAL_Driver/Src/stm32l4xx_hal_flash_ex.c ****   if((cache == FLASH_CACHE_DCACHE_ENABLED) ||
 612:../Resources/Drivers/STM32L4xx_HAL_Driver/Src/stm32l4xx_hal_flash_ex.c ****      (cache == FLASH_CACHE_ICACHE_DCACHE_ENABLED))
 613:../Resources/Drivers/STM32L4xx_HAL_Driver/Src/stm32l4xx_hal_flash_ex.c ****   {
 614:../Resources/Drivers/STM32L4xx_HAL_Driver/Src/stm32l4xx_hal_flash_ex.c ****     /* Reset data cache */
 615:../Resources/Drivers/STM32L4xx_HAL_Driver/Src/stm32l4xx_hal_flash_ex.c ****     __HAL_FLASH_DATA_CACHE_RESET();
 616:../Resources/Drivers/STM32L4xx_HAL_Driver/Src/stm32l4xx_hal_flash_ex.c ****     /* Enable data cache */
 617:../Resources/Drivers/STM32L4xx_HAL_Driver/Src/stm32l4xx_hal_flash_ex.c ****     __HAL_FLASH_DATA_CACHE_ENABLE();
 618:../Resources/Drivers/STM32L4xx_HAL_Driver/Src/stm32l4xx_hal_flash_ex.c ****   }
 619:../Resources/Drivers/STM32L4xx_HAL_Driver/Src/stm32l4xx_hal_flash_ex.c **** 
 620:../Resources/Drivers/STM32L4xx_HAL_Driver/Src/stm32l4xx_hal_flash_ex.c ****   /* Reset internal variable */
 621:../Resources/Drivers/STM32L4xx_HAL_Driver/Src/stm32l4xx_hal_flash_ex.c ****   pFlash.CacheToReactivate = FLASH_CACHE_DISABLED;
 622:../Resources/Drivers/STM32L4xx_HAL_Driver/Src/stm32l4xx_hal_flash_ex.c **** }
 623:../Resources/Drivers/STM32L4xx_HAL_Driver/Src/stm32l4xx_hal_flash_ex.c **** 
 624:../Resources/Drivers/STM32L4xx_HAL_Driver/Src/stm32l4xx_hal_flash_ex.c **** /**
 625:../Resources/Drivers/STM32L4xx_HAL_Driver/Src/stm32l4xx_hal_flash_ex.c ****   * @brief  Configure the write protection of the desired pages.
 626:../Resources/Drivers/STM32L4xx_HAL_Driver/Src/stm32l4xx_hal_flash_ex.c ****   *
 627:../Resources/Drivers/STM32L4xx_HAL_Driver/Src/stm32l4xx_hal_flash_ex.c ****   * @note   When the memory read protection level is selected (RDP level = 1),
 628:../Resources/Drivers/STM32L4xx_HAL_Driver/Src/stm32l4xx_hal_flash_ex.c ****   *         it is not possible to program or erase Flash memory if the CPU debug
 629:../Resources/Drivers/STM32L4xx_HAL_Driver/Src/stm32l4xx_hal_flash_ex.c ****   *         features are connected (JTAG or single wire) or boot code is being
 630:../Resources/Drivers/STM32L4xx_HAL_Driver/Src/stm32l4xx_hal_flash_ex.c ****   *         executed from RAM or System flash, even if WRP is not activated.
 631:../Resources/Drivers/STM32L4xx_HAL_Driver/Src/stm32l4xx_hal_flash_ex.c ****   * @note   To configure the WRP options, the option lock bit OPTLOCK must be
 632:../Resources/Drivers/STM32L4xx_HAL_Driver/Src/stm32l4xx_hal_flash_ex.c ****   *         cleared with the call of the HAL_FLASH_OB_Unlock() function.
 633:../Resources/Drivers/STM32L4xx_HAL_Driver/Src/stm32l4xx_hal_flash_ex.c ****   * @note   To validate the WRP options, the option bytes must be reloaded
 634:../Resources/Drivers/STM32L4xx_HAL_Driver/Src/stm32l4xx_hal_flash_ex.c ****   *         through the call of the HAL_FLASH_OB_Launch() function.
 635:../Resources/Drivers/STM32L4xx_HAL_Driver/Src/stm32l4xx_hal_flash_ex.c ****   *
 636:../Resources/Drivers/STM32L4xx_HAL_Driver/Src/stm32l4xx_hal_flash_ex.c ****   * @param  WRPArea specifies the area to be configured.
 637:../Resources/Drivers/STM32L4xx_HAL_Driver/Src/stm32l4xx_hal_flash_ex.c ****   *          This parameter can be one of the following values:
 638:../Resources/Drivers/STM32L4xx_HAL_Driver/Src/stm32l4xx_hal_flash_ex.c ****   *            @arg OB_WRPAREA_BANK1_AREAA: Flash Bank 1 Area A
 639:../Resources/Drivers/STM32L4xx_HAL_Driver/Src/stm32l4xx_hal_flash_ex.c ****   *            @arg OB_WRPAREA_BANK1_AREAB: Flash Bank 1 Area B
 640:../Resources/Drivers/STM32L4xx_HAL_Driver/Src/stm32l4xx_hal_flash_ex.c ****   *            @arg OB_WRPAREA_BANK2_AREAA: Flash Bank 2 Area A  (don't apply for STM32L43x/STM32L4
 641:../Resources/Drivers/STM32L4xx_HAL_Driver/Src/stm32l4xx_hal_flash_ex.c ****   *            @arg OB_WRPAREA_BANK2_AREAB: Flash Bank 2 Area B  (don't apply for STM32L43x/STM32L4
 642:../Resources/Drivers/STM32L4xx_HAL_Driver/Src/stm32l4xx_hal_flash_ex.c ****   *
 643:../Resources/Drivers/STM32L4xx_HAL_Driver/Src/stm32l4xx_hal_flash_ex.c ****   * @param  WRPStartOffset specifies the start page of the write protected area
 644:../Resources/Drivers/STM32L4xx_HAL_Driver/Src/stm32l4xx_hal_flash_ex.c ****   *          This parameter can be page number between 0 and (max number of pages in the bank - 1)
 645:../Resources/Drivers/STM32L4xx_HAL_Driver/Src/stm32l4xx_hal_flash_ex.c ****   *
 646:../Resources/Drivers/STM32L4xx_HAL_Driver/Src/stm32l4xx_hal_flash_ex.c ****   * @param  WRDPEndOffset specifies the end page of the write protected area
 647:../Resources/Drivers/STM32L4xx_HAL_Driver/Src/stm32l4xx_hal_flash_ex.c ****   *          This parameter can be page number between WRPStartOffset and (max number of pages in t
 648:../Resources/Drivers/STM32L4xx_HAL_Driver/Src/stm32l4xx_hal_flash_ex.c ****   *
 649:../Resources/Drivers/STM32L4xx_HAL_Driver/Src/stm32l4xx_hal_flash_ex.c ****   * @retval HAL Status
 650:../Resources/Drivers/STM32L4xx_HAL_Driver/Src/stm32l4xx_hal_flash_ex.c ****   */
 651:../Resources/Drivers/STM32L4xx_HAL_Driver/Src/stm32l4xx_hal_flash_ex.c **** static HAL_StatusTypeDef FLASH_OB_WRPConfig(uint32_t WRPArea, uint32_t WRPStartOffset, uint32_t WRD
 652:../Resources/Drivers/STM32L4xx_HAL_Driver/Src/stm32l4xx_hal_flash_ex.c **** {
 653:../Resources/Drivers/STM32L4xx_HAL_Driver/Src/stm32l4xx_hal_flash_ex.c ****   HAL_StatusTypeDef status;
 654:../Resources/Drivers/STM32L4xx_HAL_Driver/Src/stm32l4xx_hal_flash_ex.c **** 
 655:../Resources/Drivers/STM32L4xx_HAL_Driver/Src/stm32l4xx_hal_flash_ex.c ****   /* Check the parameters */
 656:../Resources/Drivers/STM32L4xx_HAL_Driver/Src/stm32l4xx_hal_flash_ex.c ****   assert_param(IS_OB_WRPAREA(WRPArea));
 657:../Resources/Drivers/STM32L4xx_HAL_Driver/Src/stm32l4xx_hal_flash_ex.c ****   assert_param(IS_FLASH_PAGE(WRPStartOffset));
 658:../Resources/Drivers/STM32L4xx_HAL_Driver/Src/stm32l4xx_hal_flash_ex.c ****   assert_param(IS_FLASH_PAGE(WRDPEndOffset));
 659:../Resources/Drivers/STM32L4xx_HAL_Driver/Src/stm32l4xx_hal_flash_ex.c **** 
 660:../Resources/Drivers/STM32L4xx_HAL_Driver/Src/stm32l4xx_hal_flash_ex.c ****   /* Wait for last operation to be completed */
 661:../Resources/Drivers/STM32L4xx_HAL_Driver/Src/stm32l4xx_hal_flash_ex.c ****   status = FLASH_WaitForLastOperation((uint32_t)FLASH_TIMEOUT_VALUE);
 662:../Resources/Drivers/STM32L4xx_HAL_Driver/Src/stm32l4xx_hal_flash_ex.c **** 
 663:../Resources/Drivers/STM32L4xx_HAL_Driver/Src/stm32l4xx_hal_flash_ex.c ****   if(status == HAL_OK)
 664:../Resources/Drivers/STM32L4xx_HAL_Driver/Src/stm32l4xx_hal_flash_ex.c ****   {
 665:../Resources/Drivers/STM32L4xx_HAL_Driver/Src/stm32l4xx_hal_flash_ex.c ****     /* Configure the write protected area */
 666:../Resources/Drivers/STM32L4xx_HAL_Driver/Src/stm32l4xx_hal_flash_ex.c ****     if(WRPArea == OB_WRPAREA_BANK1_AREAA)
 667:../Resources/Drivers/STM32L4xx_HAL_Driver/Src/stm32l4xx_hal_flash_ex.c ****     {
ARM GAS  /tmp/cchkkQtC.s 			page 14


 668:../Resources/Drivers/STM32L4xx_HAL_Driver/Src/stm32l4xx_hal_flash_ex.c ****       MODIFY_REG(FLASH->WRP1AR, (FLASH_WRP1AR_WRP1A_STRT | FLASH_WRP1AR_WRP1A_END),
 669:../Resources/Drivers/STM32L4xx_HAL_Driver/Src/stm32l4xx_hal_flash_ex.c ****                  (WRPStartOffset | (WRDPEndOffset << 16)));
 670:../Resources/Drivers/STM32L4xx_HAL_Driver/Src/stm32l4xx_hal_flash_ex.c ****     }
 671:../Resources/Drivers/STM32L4xx_HAL_Driver/Src/stm32l4xx_hal_flash_ex.c ****     else if(WRPArea == OB_WRPAREA_BANK1_AREAB)
 672:../Resources/Drivers/STM32L4xx_HAL_Driver/Src/stm32l4xx_hal_flash_ex.c ****     {
 673:../Resources/Drivers/STM32L4xx_HAL_Driver/Src/stm32l4xx_hal_flash_ex.c ****       MODIFY_REG(FLASH->WRP1BR, (FLASH_WRP1BR_WRP1B_STRT | FLASH_WRP1BR_WRP1B_END),
 674:../Resources/Drivers/STM32L4xx_HAL_Driver/Src/stm32l4xx_hal_flash_ex.c ****                  (WRPStartOffset | (WRDPEndOffset << 16)));
 675:../Resources/Drivers/STM32L4xx_HAL_Driver/Src/stm32l4xx_hal_flash_ex.c ****     }
 676:../Resources/Drivers/STM32L4xx_HAL_Driver/Src/stm32l4xx_hal_flash_ex.c **** #if defined (STM32L471xx) || defined (STM32L475xx) || defined (STM32L476xx) || defined (STM32L485xx
 677:../Resources/Drivers/STM32L4xx_HAL_Driver/Src/stm32l4xx_hal_flash_ex.c ****     defined (STM32L496xx) || defined (STM32L4A6xx) || \
 678:../Resources/Drivers/STM32L4xx_HAL_Driver/Src/stm32l4xx_hal_flash_ex.c ****     defined (STM32L4P5xx) || defined (STM32L4Q5xx) || \
 679:../Resources/Drivers/STM32L4xx_HAL_Driver/Src/stm32l4xx_hal_flash_ex.c ****     defined (STM32L4R5xx) || defined (STM32L4R7xx) || defined (STM32L4R9xx) || defined (STM32L4S5xx
 680:../Resources/Drivers/STM32L4xx_HAL_Driver/Src/stm32l4xx_hal_flash_ex.c ****     else if(WRPArea == OB_WRPAREA_BANK2_AREAA)
 681:../Resources/Drivers/STM32L4xx_HAL_Driver/Src/stm32l4xx_hal_flash_ex.c ****     {
 682:../Resources/Drivers/STM32L4xx_HAL_Driver/Src/stm32l4xx_hal_flash_ex.c ****       MODIFY_REG(FLASH->WRP2AR, (FLASH_WRP2AR_WRP2A_STRT | FLASH_WRP2AR_WRP2A_END),
 683:../Resources/Drivers/STM32L4xx_HAL_Driver/Src/stm32l4xx_hal_flash_ex.c ****                  (WRPStartOffset | (WRDPEndOffset << 16)));
 684:../Resources/Drivers/STM32L4xx_HAL_Driver/Src/stm32l4xx_hal_flash_ex.c ****     }
 685:../Resources/Drivers/STM32L4xx_HAL_Driver/Src/stm32l4xx_hal_flash_ex.c ****     else if(WRPArea == OB_WRPAREA_BANK2_AREAB)
 686:../Resources/Drivers/STM32L4xx_HAL_Driver/Src/stm32l4xx_hal_flash_ex.c ****     {
 687:../Resources/Drivers/STM32L4xx_HAL_Driver/Src/stm32l4xx_hal_flash_ex.c ****       MODIFY_REG(FLASH->WRP2BR, (FLASH_WRP2BR_WRP2B_STRT | FLASH_WRP2BR_WRP2B_END),
 688:../Resources/Drivers/STM32L4xx_HAL_Driver/Src/stm32l4xx_hal_flash_ex.c ****                  (WRPStartOffset | (WRDPEndOffset << 16)));
 689:../Resources/Drivers/STM32L4xx_HAL_Driver/Src/stm32l4xx_hal_flash_ex.c ****     }
 690:../Resources/Drivers/STM32L4xx_HAL_Driver/Src/stm32l4xx_hal_flash_ex.c **** #endif
 691:../Resources/Drivers/STM32L4xx_HAL_Driver/Src/stm32l4xx_hal_flash_ex.c ****     else
 692:../Resources/Drivers/STM32L4xx_HAL_Driver/Src/stm32l4xx_hal_flash_ex.c ****     {
 693:../Resources/Drivers/STM32L4xx_HAL_Driver/Src/stm32l4xx_hal_flash_ex.c ****       /* Nothing to do */
 694:../Resources/Drivers/STM32L4xx_HAL_Driver/Src/stm32l4xx_hal_flash_ex.c ****     }
 695:../Resources/Drivers/STM32L4xx_HAL_Driver/Src/stm32l4xx_hal_flash_ex.c **** 
 696:../Resources/Drivers/STM32L4xx_HAL_Driver/Src/stm32l4xx_hal_flash_ex.c ****     /* Set OPTSTRT Bit */
 697:../Resources/Drivers/STM32L4xx_HAL_Driver/Src/stm32l4xx_hal_flash_ex.c ****     SET_BIT(FLASH->CR, FLASH_CR_OPTSTRT);
 698:../Resources/Drivers/STM32L4xx_HAL_Driver/Src/stm32l4xx_hal_flash_ex.c **** 
 699:../Resources/Drivers/STM32L4xx_HAL_Driver/Src/stm32l4xx_hal_flash_ex.c ****     /* Wait for last operation to be completed */
 700:../Resources/Drivers/STM32L4xx_HAL_Driver/Src/stm32l4xx_hal_flash_ex.c ****     status = FLASH_WaitForLastOperation((uint32_t)FLASH_TIMEOUT_VALUE);
 701:../Resources/Drivers/STM32L4xx_HAL_Driver/Src/stm32l4xx_hal_flash_ex.c **** 
 702:../Resources/Drivers/STM32L4xx_HAL_Driver/Src/stm32l4xx_hal_flash_ex.c ****     /* If the option byte program operation is completed, disable the OPTSTRT Bit */
 703:../Resources/Drivers/STM32L4xx_HAL_Driver/Src/stm32l4xx_hal_flash_ex.c ****     CLEAR_BIT(FLASH->CR, FLASH_CR_OPTSTRT);
 704:../Resources/Drivers/STM32L4xx_HAL_Driver/Src/stm32l4xx_hal_flash_ex.c ****   }
 705:../Resources/Drivers/STM32L4xx_HAL_Driver/Src/stm32l4xx_hal_flash_ex.c **** 
 706:../Resources/Drivers/STM32L4xx_HAL_Driver/Src/stm32l4xx_hal_flash_ex.c ****   return status;
 707:../Resources/Drivers/STM32L4xx_HAL_Driver/Src/stm32l4xx_hal_flash_ex.c **** }
 708:../Resources/Drivers/STM32L4xx_HAL_Driver/Src/stm32l4xx_hal_flash_ex.c **** 
 709:../Resources/Drivers/STM32L4xx_HAL_Driver/Src/stm32l4xx_hal_flash_ex.c **** /**
 710:../Resources/Drivers/STM32L4xx_HAL_Driver/Src/stm32l4xx_hal_flash_ex.c ****   * @brief  Set the read protection level.
 711:../Resources/Drivers/STM32L4xx_HAL_Driver/Src/stm32l4xx_hal_flash_ex.c ****   *
 712:../Resources/Drivers/STM32L4xx_HAL_Driver/Src/stm32l4xx_hal_flash_ex.c ****   * @note   To configure the RDP level, the option lock bit OPTLOCK must be
 713:../Resources/Drivers/STM32L4xx_HAL_Driver/Src/stm32l4xx_hal_flash_ex.c ****   *         cleared with the call of the HAL_FLASH_OB_Unlock() function.
 714:../Resources/Drivers/STM32L4xx_HAL_Driver/Src/stm32l4xx_hal_flash_ex.c ****   * @note   To validate the RDP level, the option bytes must be reloaded
 715:../Resources/Drivers/STM32L4xx_HAL_Driver/Src/stm32l4xx_hal_flash_ex.c ****   *         through the call of the HAL_FLASH_OB_Launch() function.
 716:../Resources/Drivers/STM32L4xx_HAL_Driver/Src/stm32l4xx_hal_flash_ex.c ****   * @note   !!! Warning : When enabling OB_RDP level 2 it's no more possible
 717:../Resources/Drivers/STM32L4xx_HAL_Driver/Src/stm32l4xx_hal_flash_ex.c ****   *         to go back to level 1 or 0 !!!
 718:../Resources/Drivers/STM32L4xx_HAL_Driver/Src/stm32l4xx_hal_flash_ex.c ****   *
 719:../Resources/Drivers/STM32L4xx_HAL_Driver/Src/stm32l4xx_hal_flash_ex.c ****   * @param  RDPLevel specifies the read protection level.
 720:../Resources/Drivers/STM32L4xx_HAL_Driver/Src/stm32l4xx_hal_flash_ex.c ****   *         This parameter can be one of the following values:
 721:../Resources/Drivers/STM32L4xx_HAL_Driver/Src/stm32l4xx_hal_flash_ex.c ****   *            @arg OB_RDP_LEVEL_0: No protection
 722:../Resources/Drivers/STM32L4xx_HAL_Driver/Src/stm32l4xx_hal_flash_ex.c ****   *            @arg OB_RDP_LEVEL_1: Read protection of the memory
 723:../Resources/Drivers/STM32L4xx_HAL_Driver/Src/stm32l4xx_hal_flash_ex.c ****   *            @arg OB_RDP_LEVEL_2: Full chip protection
 724:../Resources/Drivers/STM32L4xx_HAL_Driver/Src/stm32l4xx_hal_flash_ex.c ****   *
ARM GAS  /tmp/cchkkQtC.s 			page 15


 725:../Resources/Drivers/STM32L4xx_HAL_Driver/Src/stm32l4xx_hal_flash_ex.c ****   * @retval HAL status
 726:../Resources/Drivers/STM32L4xx_HAL_Driver/Src/stm32l4xx_hal_flash_ex.c ****   */
 727:../Resources/Drivers/STM32L4xx_HAL_Driver/Src/stm32l4xx_hal_flash_ex.c **** static HAL_StatusTypeDef FLASH_OB_RDPConfig(uint32_t RDPLevel)
 728:../Resources/Drivers/STM32L4xx_HAL_Driver/Src/stm32l4xx_hal_flash_ex.c **** {
 729:../Resources/Drivers/STM32L4xx_HAL_Driver/Src/stm32l4xx_hal_flash_ex.c ****   HAL_StatusTypeDef status;
 730:../Resources/Drivers/STM32L4xx_HAL_Driver/Src/stm32l4xx_hal_flash_ex.c **** 
 731:../Resources/Drivers/STM32L4xx_HAL_Driver/Src/stm32l4xx_hal_flash_ex.c ****   /* Check the parameters */
 732:../Resources/Drivers/STM32L4xx_HAL_Driver/Src/stm32l4xx_hal_flash_ex.c ****   assert_param(IS_OB_RDP_LEVEL(RDPLevel));
 733:../Resources/Drivers/STM32L4xx_HAL_Driver/Src/stm32l4xx_hal_flash_ex.c **** 
 734:../Resources/Drivers/STM32L4xx_HAL_Driver/Src/stm32l4xx_hal_flash_ex.c ****   /* Wait for last operation to be completed */
 735:../Resources/Drivers/STM32L4xx_HAL_Driver/Src/stm32l4xx_hal_flash_ex.c ****   status = FLASH_WaitForLastOperation((uint32_t)FLASH_TIMEOUT_VALUE);
 736:../Resources/Drivers/STM32L4xx_HAL_Driver/Src/stm32l4xx_hal_flash_ex.c **** 
 737:../Resources/Drivers/STM32L4xx_HAL_Driver/Src/stm32l4xx_hal_flash_ex.c ****   if(status == HAL_OK)
 738:../Resources/Drivers/STM32L4xx_HAL_Driver/Src/stm32l4xx_hal_flash_ex.c ****   {
 739:../Resources/Drivers/STM32L4xx_HAL_Driver/Src/stm32l4xx_hal_flash_ex.c ****     /* Configure the RDP level in the option bytes register */
 740:../Resources/Drivers/STM32L4xx_HAL_Driver/Src/stm32l4xx_hal_flash_ex.c ****     MODIFY_REG(FLASH->OPTR, FLASH_OPTR_RDP, RDPLevel);
 741:../Resources/Drivers/STM32L4xx_HAL_Driver/Src/stm32l4xx_hal_flash_ex.c **** 
 742:../Resources/Drivers/STM32L4xx_HAL_Driver/Src/stm32l4xx_hal_flash_ex.c ****     /* Set OPTSTRT Bit */
 743:../Resources/Drivers/STM32L4xx_HAL_Driver/Src/stm32l4xx_hal_flash_ex.c ****     SET_BIT(FLASH->CR, FLASH_CR_OPTSTRT);
 744:../Resources/Drivers/STM32L4xx_HAL_Driver/Src/stm32l4xx_hal_flash_ex.c **** 
 745:../Resources/Drivers/STM32L4xx_HAL_Driver/Src/stm32l4xx_hal_flash_ex.c ****     /* Wait for last operation to be completed */
 746:../Resources/Drivers/STM32L4xx_HAL_Driver/Src/stm32l4xx_hal_flash_ex.c ****     status = FLASH_WaitForLastOperation((uint32_t)FLASH_TIMEOUT_VALUE);
 747:../Resources/Drivers/STM32L4xx_HAL_Driver/Src/stm32l4xx_hal_flash_ex.c **** 
 748:../Resources/Drivers/STM32L4xx_HAL_Driver/Src/stm32l4xx_hal_flash_ex.c ****     /* If the option byte program operation is completed, disable the OPTSTRT Bit */
 749:../Resources/Drivers/STM32L4xx_HAL_Driver/Src/stm32l4xx_hal_flash_ex.c ****     CLEAR_BIT(FLASH->CR, FLASH_CR_OPTSTRT);
 750:../Resources/Drivers/STM32L4xx_HAL_Driver/Src/stm32l4xx_hal_flash_ex.c ****   }
 751:../Resources/Drivers/STM32L4xx_HAL_Driver/Src/stm32l4xx_hal_flash_ex.c **** 
 752:../Resources/Drivers/STM32L4xx_HAL_Driver/Src/stm32l4xx_hal_flash_ex.c ****   return status;
 753:../Resources/Drivers/STM32L4xx_HAL_Driver/Src/stm32l4xx_hal_flash_ex.c **** }
 754:../Resources/Drivers/STM32L4xx_HAL_Driver/Src/stm32l4xx_hal_flash_ex.c **** 
 755:../Resources/Drivers/STM32L4xx_HAL_Driver/Src/stm32l4xx_hal_flash_ex.c **** /**
 756:../Resources/Drivers/STM32L4xx_HAL_Driver/Src/stm32l4xx_hal_flash_ex.c ****   * @brief  Program the FLASH User Option Byte.
 757:../Resources/Drivers/STM32L4xx_HAL_Driver/Src/stm32l4xx_hal_flash_ex.c ****   *
 758:../Resources/Drivers/STM32L4xx_HAL_Driver/Src/stm32l4xx_hal_flash_ex.c ****   * @note   To configure the user option bytes, the option lock bit OPTLOCK must
 759:../Resources/Drivers/STM32L4xx_HAL_Driver/Src/stm32l4xx_hal_flash_ex.c ****   *         be cleared with the call of the HAL_FLASH_OB_Unlock() function.
 760:../Resources/Drivers/STM32L4xx_HAL_Driver/Src/stm32l4xx_hal_flash_ex.c ****   * @note   To validate the user option bytes, the option bytes must be reloaded
 761:../Resources/Drivers/STM32L4xx_HAL_Driver/Src/stm32l4xx_hal_flash_ex.c ****   *         through the call of the HAL_FLASH_OB_Launch() function.
 762:../Resources/Drivers/STM32L4xx_HAL_Driver/Src/stm32l4xx_hal_flash_ex.c ****   *
 763:../Resources/Drivers/STM32L4xx_HAL_Driver/Src/stm32l4xx_hal_flash_ex.c ****   * @param  UserType The FLASH User Option Bytes to be modified
 764:../Resources/Drivers/STM32L4xx_HAL_Driver/Src/stm32l4xx_hal_flash_ex.c ****   * @param  UserConfig The FLASH User Option Bytes values:
 765:../Resources/Drivers/STM32L4xx_HAL_Driver/Src/stm32l4xx_hal_flash_ex.c ****   *         BOR_LEV(Bit8-10), nRST_STOP(Bit12), nRST_STDBY(Bit13), IWDG_SW(Bit16),
 766:../Resources/Drivers/STM32L4xx_HAL_Driver/Src/stm32l4xx_hal_flash_ex.c ****   *         IWDG_STOP(Bit17), IWDG_STDBY(Bit18), WWDG_SW(Bit19), BFB2(Bit20),
 767:../Resources/Drivers/STM32L4xx_HAL_Driver/Src/stm32l4xx_hal_flash_ex.c ****   *         DUALBANK(Bit21), nBOOT1(Bit23), SRAM2_PE(Bit24) and SRAM2_RST(Bit25).
 768:../Resources/Drivers/STM32L4xx_HAL_Driver/Src/stm32l4xx_hal_flash_ex.c ****   *
 769:../Resources/Drivers/STM32L4xx_HAL_Driver/Src/stm32l4xx_hal_flash_ex.c ****   * @retval HAL status
 770:../Resources/Drivers/STM32L4xx_HAL_Driver/Src/stm32l4xx_hal_flash_ex.c ****   */
 771:../Resources/Drivers/STM32L4xx_HAL_Driver/Src/stm32l4xx_hal_flash_ex.c **** static HAL_StatusTypeDef FLASH_OB_UserConfig(uint32_t UserType, uint32_t UserConfig)
 772:../Resources/Drivers/STM32L4xx_HAL_Driver/Src/stm32l4xx_hal_flash_ex.c **** {
 773:../Resources/Drivers/STM32L4xx_HAL_Driver/Src/stm32l4xx_hal_flash_ex.c ****   uint32_t optr_reg_val = 0;
 774:../Resources/Drivers/STM32L4xx_HAL_Driver/Src/stm32l4xx_hal_flash_ex.c ****   uint32_t optr_reg_mask = 0;
 775:../Resources/Drivers/STM32L4xx_HAL_Driver/Src/stm32l4xx_hal_flash_ex.c ****   HAL_StatusTypeDef status;
 776:../Resources/Drivers/STM32L4xx_HAL_Driver/Src/stm32l4xx_hal_flash_ex.c **** 
 777:../Resources/Drivers/STM32L4xx_HAL_Driver/Src/stm32l4xx_hal_flash_ex.c ****   /* Check the parameters */
 778:../Resources/Drivers/STM32L4xx_HAL_Driver/Src/stm32l4xx_hal_flash_ex.c ****   assert_param(IS_OB_USER_TYPE(UserType));
 779:../Resources/Drivers/STM32L4xx_HAL_Driver/Src/stm32l4xx_hal_flash_ex.c **** 
 780:../Resources/Drivers/STM32L4xx_HAL_Driver/Src/stm32l4xx_hal_flash_ex.c ****   /* Wait for last operation to be completed */
 781:../Resources/Drivers/STM32L4xx_HAL_Driver/Src/stm32l4xx_hal_flash_ex.c ****   status = FLASH_WaitForLastOperation((uint32_t)FLASH_TIMEOUT_VALUE);
ARM GAS  /tmp/cchkkQtC.s 			page 16


 782:../Resources/Drivers/STM32L4xx_HAL_Driver/Src/stm32l4xx_hal_flash_ex.c **** 
 783:../Resources/Drivers/STM32L4xx_HAL_Driver/Src/stm32l4xx_hal_flash_ex.c ****   if(status == HAL_OK)
 784:../Resources/Drivers/STM32L4xx_HAL_Driver/Src/stm32l4xx_hal_flash_ex.c ****   {
 785:../Resources/Drivers/STM32L4xx_HAL_Driver/Src/stm32l4xx_hal_flash_ex.c ****     if((UserType & OB_USER_BOR_LEV) != 0U)
 786:../Resources/Drivers/STM32L4xx_HAL_Driver/Src/stm32l4xx_hal_flash_ex.c ****     {
 787:../Resources/Drivers/STM32L4xx_HAL_Driver/Src/stm32l4xx_hal_flash_ex.c ****       /* BOR level option byte should be modified */
 788:../Resources/Drivers/STM32L4xx_HAL_Driver/Src/stm32l4xx_hal_flash_ex.c ****       assert_param(IS_OB_USER_BOR_LEVEL(UserConfig & FLASH_OPTR_BOR_LEV));
 789:../Resources/Drivers/STM32L4xx_HAL_Driver/Src/stm32l4xx_hal_flash_ex.c **** 
 790:../Resources/Drivers/STM32L4xx_HAL_Driver/Src/stm32l4xx_hal_flash_ex.c ****       /* Set value and mask for BOR level option byte */
 791:../Resources/Drivers/STM32L4xx_HAL_Driver/Src/stm32l4xx_hal_flash_ex.c ****       optr_reg_val |= (UserConfig & FLASH_OPTR_BOR_LEV);
 792:../Resources/Drivers/STM32L4xx_HAL_Driver/Src/stm32l4xx_hal_flash_ex.c ****       optr_reg_mask |= FLASH_OPTR_BOR_LEV;
 793:../Resources/Drivers/STM32L4xx_HAL_Driver/Src/stm32l4xx_hal_flash_ex.c ****     }
 794:../Resources/Drivers/STM32L4xx_HAL_Driver/Src/stm32l4xx_hal_flash_ex.c **** 
 795:../Resources/Drivers/STM32L4xx_HAL_Driver/Src/stm32l4xx_hal_flash_ex.c ****     if((UserType & OB_USER_nRST_STOP) != 0U)
 796:../Resources/Drivers/STM32L4xx_HAL_Driver/Src/stm32l4xx_hal_flash_ex.c ****     {
 797:../Resources/Drivers/STM32L4xx_HAL_Driver/Src/stm32l4xx_hal_flash_ex.c ****       /* nRST_STOP option byte should be modified */
 798:../Resources/Drivers/STM32L4xx_HAL_Driver/Src/stm32l4xx_hal_flash_ex.c ****       assert_param(IS_OB_USER_STOP(UserConfig & FLASH_OPTR_nRST_STOP));
 799:../Resources/Drivers/STM32L4xx_HAL_Driver/Src/stm32l4xx_hal_flash_ex.c **** 
 800:../Resources/Drivers/STM32L4xx_HAL_Driver/Src/stm32l4xx_hal_flash_ex.c ****       /* Set value and mask for nRST_STOP option byte */
 801:../Resources/Drivers/STM32L4xx_HAL_Driver/Src/stm32l4xx_hal_flash_ex.c ****       optr_reg_val |= (UserConfig & FLASH_OPTR_nRST_STOP);
 802:../Resources/Drivers/STM32L4xx_HAL_Driver/Src/stm32l4xx_hal_flash_ex.c ****       optr_reg_mask |= FLASH_OPTR_nRST_STOP;
 803:../Resources/Drivers/STM32L4xx_HAL_Driver/Src/stm32l4xx_hal_flash_ex.c ****     }
 804:../Resources/Drivers/STM32L4xx_HAL_Driver/Src/stm32l4xx_hal_flash_ex.c **** 
 805:../Resources/Drivers/STM32L4xx_HAL_Driver/Src/stm32l4xx_hal_flash_ex.c ****     if((UserType & OB_USER_nRST_STDBY) != 0U)
 806:../Resources/Drivers/STM32L4xx_HAL_Driver/Src/stm32l4xx_hal_flash_ex.c ****     {
 807:../Resources/Drivers/STM32L4xx_HAL_Driver/Src/stm32l4xx_hal_flash_ex.c ****       /* nRST_STDBY option byte should be modified */
 808:../Resources/Drivers/STM32L4xx_HAL_Driver/Src/stm32l4xx_hal_flash_ex.c ****       assert_param(IS_OB_USER_STANDBY(UserConfig & FLASH_OPTR_nRST_STDBY));
 809:../Resources/Drivers/STM32L4xx_HAL_Driver/Src/stm32l4xx_hal_flash_ex.c **** 
 810:../Resources/Drivers/STM32L4xx_HAL_Driver/Src/stm32l4xx_hal_flash_ex.c ****       /* Set value and mask for nRST_STDBY option byte */
 811:../Resources/Drivers/STM32L4xx_HAL_Driver/Src/stm32l4xx_hal_flash_ex.c ****       optr_reg_val |= (UserConfig & FLASH_OPTR_nRST_STDBY);
 812:../Resources/Drivers/STM32L4xx_HAL_Driver/Src/stm32l4xx_hal_flash_ex.c ****       optr_reg_mask |= FLASH_OPTR_nRST_STDBY;
 813:../Resources/Drivers/STM32L4xx_HAL_Driver/Src/stm32l4xx_hal_flash_ex.c ****     }
 814:../Resources/Drivers/STM32L4xx_HAL_Driver/Src/stm32l4xx_hal_flash_ex.c **** 
 815:../Resources/Drivers/STM32L4xx_HAL_Driver/Src/stm32l4xx_hal_flash_ex.c ****     if((UserType & OB_USER_nRST_SHDW) != 0U)
 816:../Resources/Drivers/STM32L4xx_HAL_Driver/Src/stm32l4xx_hal_flash_ex.c ****     {
 817:../Resources/Drivers/STM32L4xx_HAL_Driver/Src/stm32l4xx_hal_flash_ex.c ****       /* nRST_SHDW option byte should be modified */
 818:../Resources/Drivers/STM32L4xx_HAL_Driver/Src/stm32l4xx_hal_flash_ex.c ****       assert_param(IS_OB_USER_SHUTDOWN(UserConfig & FLASH_OPTR_nRST_SHDW));
 819:../Resources/Drivers/STM32L4xx_HAL_Driver/Src/stm32l4xx_hal_flash_ex.c **** 
 820:../Resources/Drivers/STM32L4xx_HAL_Driver/Src/stm32l4xx_hal_flash_ex.c ****       /* Set value and mask for nRST_SHDW option byte */
 821:../Resources/Drivers/STM32L4xx_HAL_Driver/Src/stm32l4xx_hal_flash_ex.c ****       optr_reg_val |= (UserConfig & FLASH_OPTR_nRST_SHDW);
 822:../Resources/Drivers/STM32L4xx_HAL_Driver/Src/stm32l4xx_hal_flash_ex.c ****       optr_reg_mask |= FLASH_OPTR_nRST_SHDW;
 823:../Resources/Drivers/STM32L4xx_HAL_Driver/Src/stm32l4xx_hal_flash_ex.c ****     }
 824:../Resources/Drivers/STM32L4xx_HAL_Driver/Src/stm32l4xx_hal_flash_ex.c **** 
 825:../Resources/Drivers/STM32L4xx_HAL_Driver/Src/stm32l4xx_hal_flash_ex.c ****     if((UserType & OB_USER_IWDG_SW) != 0U)
 826:../Resources/Drivers/STM32L4xx_HAL_Driver/Src/stm32l4xx_hal_flash_ex.c ****     {
 827:../Resources/Drivers/STM32L4xx_HAL_Driver/Src/stm32l4xx_hal_flash_ex.c ****       /* IWDG_SW option byte should be modified */
 828:../Resources/Drivers/STM32L4xx_HAL_Driver/Src/stm32l4xx_hal_flash_ex.c ****       assert_param(IS_OB_USER_IWDG(UserConfig & FLASH_OPTR_IWDG_SW));
 829:../Resources/Drivers/STM32L4xx_HAL_Driver/Src/stm32l4xx_hal_flash_ex.c **** 
 830:../Resources/Drivers/STM32L4xx_HAL_Driver/Src/stm32l4xx_hal_flash_ex.c ****       /* Set value and mask for IWDG_SW option byte */
 831:../Resources/Drivers/STM32L4xx_HAL_Driver/Src/stm32l4xx_hal_flash_ex.c ****       optr_reg_val |= (UserConfig & FLASH_OPTR_IWDG_SW);
 832:../Resources/Drivers/STM32L4xx_HAL_Driver/Src/stm32l4xx_hal_flash_ex.c ****       optr_reg_mask |= FLASH_OPTR_IWDG_SW;
 833:../Resources/Drivers/STM32L4xx_HAL_Driver/Src/stm32l4xx_hal_flash_ex.c ****     }
 834:../Resources/Drivers/STM32L4xx_HAL_Driver/Src/stm32l4xx_hal_flash_ex.c **** 
 835:../Resources/Drivers/STM32L4xx_HAL_Driver/Src/stm32l4xx_hal_flash_ex.c ****     if((UserType & OB_USER_IWDG_STOP) != 0U)
 836:../Resources/Drivers/STM32L4xx_HAL_Driver/Src/stm32l4xx_hal_flash_ex.c ****     {
 837:../Resources/Drivers/STM32L4xx_HAL_Driver/Src/stm32l4xx_hal_flash_ex.c ****       /* IWDG_STOP option byte should be modified */
 838:../Resources/Drivers/STM32L4xx_HAL_Driver/Src/stm32l4xx_hal_flash_ex.c ****       assert_param(IS_OB_USER_IWDG_STOP(UserConfig & FLASH_OPTR_IWDG_STOP));
ARM GAS  /tmp/cchkkQtC.s 			page 17


 839:../Resources/Drivers/STM32L4xx_HAL_Driver/Src/stm32l4xx_hal_flash_ex.c **** 
 840:../Resources/Drivers/STM32L4xx_HAL_Driver/Src/stm32l4xx_hal_flash_ex.c ****       /* Set value and mask for IWDG_STOP option byte */
 841:../Resources/Drivers/STM32L4xx_HAL_Driver/Src/stm32l4xx_hal_flash_ex.c ****       optr_reg_val |= (UserConfig & FLASH_OPTR_IWDG_STOP);
 842:../Resources/Drivers/STM32L4xx_HAL_Driver/Src/stm32l4xx_hal_flash_ex.c ****       optr_reg_mask |= FLASH_OPTR_IWDG_STOP;
 843:../Resources/Drivers/STM32L4xx_HAL_Driver/Src/stm32l4xx_hal_flash_ex.c ****     }
 844:../Resources/Drivers/STM32L4xx_HAL_Driver/Src/stm32l4xx_hal_flash_ex.c **** 
 845:../Resources/Drivers/STM32L4xx_HAL_Driver/Src/stm32l4xx_hal_flash_ex.c ****     if((UserType & OB_USER_IWDG_STDBY) != 0U)
 846:../Resources/Drivers/STM32L4xx_HAL_Driver/Src/stm32l4xx_hal_flash_ex.c ****     {
 847:../Resources/Drivers/STM32L4xx_HAL_Driver/Src/stm32l4xx_hal_flash_ex.c ****       /* IWDG_STDBY option byte should be modified */
 848:../Resources/Drivers/STM32L4xx_HAL_Driver/Src/stm32l4xx_hal_flash_ex.c ****       assert_param(IS_OB_USER_IWDG_STDBY(UserConfig & FLASH_OPTR_IWDG_STDBY));
 849:../Resources/Drivers/STM32L4xx_HAL_Driver/Src/stm32l4xx_hal_flash_ex.c **** 
 850:../Resources/Drivers/STM32L4xx_HAL_Driver/Src/stm32l4xx_hal_flash_ex.c ****       /* Set value and mask for IWDG_STDBY option byte */
 851:../Resources/Drivers/STM32L4xx_HAL_Driver/Src/stm32l4xx_hal_flash_ex.c ****       optr_reg_val |= (UserConfig & FLASH_OPTR_IWDG_STDBY);
 852:../Resources/Drivers/STM32L4xx_HAL_Driver/Src/stm32l4xx_hal_flash_ex.c ****       optr_reg_mask |= FLASH_OPTR_IWDG_STDBY;
 853:../Resources/Drivers/STM32L4xx_HAL_Driver/Src/stm32l4xx_hal_flash_ex.c ****     }
 854:../Resources/Drivers/STM32L4xx_HAL_Driver/Src/stm32l4xx_hal_flash_ex.c **** 
 855:../Resources/Drivers/STM32L4xx_HAL_Driver/Src/stm32l4xx_hal_flash_ex.c ****     if((UserType & OB_USER_WWDG_SW) != 0U)
 856:../Resources/Drivers/STM32L4xx_HAL_Driver/Src/stm32l4xx_hal_flash_ex.c ****     {
 857:../Resources/Drivers/STM32L4xx_HAL_Driver/Src/stm32l4xx_hal_flash_ex.c ****       /* WWDG_SW option byte should be modified */
 858:../Resources/Drivers/STM32L4xx_HAL_Driver/Src/stm32l4xx_hal_flash_ex.c ****       assert_param(IS_OB_USER_WWDG(UserConfig & FLASH_OPTR_WWDG_SW));
 859:../Resources/Drivers/STM32L4xx_HAL_Driver/Src/stm32l4xx_hal_flash_ex.c **** 
 860:../Resources/Drivers/STM32L4xx_HAL_Driver/Src/stm32l4xx_hal_flash_ex.c ****       /* Set value and mask for WWDG_SW option byte */
 861:../Resources/Drivers/STM32L4xx_HAL_Driver/Src/stm32l4xx_hal_flash_ex.c ****       optr_reg_val |= (UserConfig & FLASH_OPTR_WWDG_SW);
 862:../Resources/Drivers/STM32L4xx_HAL_Driver/Src/stm32l4xx_hal_flash_ex.c ****       optr_reg_mask |= FLASH_OPTR_WWDG_SW;
 863:../Resources/Drivers/STM32L4xx_HAL_Driver/Src/stm32l4xx_hal_flash_ex.c ****     }
 864:../Resources/Drivers/STM32L4xx_HAL_Driver/Src/stm32l4xx_hal_flash_ex.c **** 
 865:../Resources/Drivers/STM32L4xx_HAL_Driver/Src/stm32l4xx_hal_flash_ex.c **** #if defined (STM32L471xx) || defined (STM32L475xx) || defined (STM32L476xx) || defined (STM32L485xx
 866:../Resources/Drivers/STM32L4xx_HAL_Driver/Src/stm32l4xx_hal_flash_ex.c ****     defined (STM32L496xx) || defined (STM32L4A6xx) || \
 867:../Resources/Drivers/STM32L4xx_HAL_Driver/Src/stm32l4xx_hal_flash_ex.c ****     defined (STM32L4P5xx) || defined (STM32L4Q5xx) || \
 868:../Resources/Drivers/STM32L4xx_HAL_Driver/Src/stm32l4xx_hal_flash_ex.c ****     defined (STM32L4R5xx) || defined (STM32L4R7xx) || defined (STM32L4R9xx) || defined (STM32L4S5xx
 869:../Resources/Drivers/STM32L4xx_HAL_Driver/Src/stm32l4xx_hal_flash_ex.c ****     if((UserType & OB_USER_BFB2) != 0U)
 870:../Resources/Drivers/STM32L4xx_HAL_Driver/Src/stm32l4xx_hal_flash_ex.c ****     {
 871:../Resources/Drivers/STM32L4xx_HAL_Driver/Src/stm32l4xx_hal_flash_ex.c ****       /* BFB2 option byte should be modified */
 872:../Resources/Drivers/STM32L4xx_HAL_Driver/Src/stm32l4xx_hal_flash_ex.c ****       assert_param(IS_OB_USER_BFB2(UserConfig & FLASH_OPTR_BFB2));
 873:../Resources/Drivers/STM32L4xx_HAL_Driver/Src/stm32l4xx_hal_flash_ex.c **** 
 874:../Resources/Drivers/STM32L4xx_HAL_Driver/Src/stm32l4xx_hal_flash_ex.c ****       /* Set value and mask for BFB2 option byte */
 875:../Resources/Drivers/STM32L4xx_HAL_Driver/Src/stm32l4xx_hal_flash_ex.c ****       optr_reg_val |= (UserConfig & FLASH_OPTR_BFB2);
 876:../Resources/Drivers/STM32L4xx_HAL_Driver/Src/stm32l4xx_hal_flash_ex.c ****       optr_reg_mask |= FLASH_OPTR_BFB2;
 877:../Resources/Drivers/STM32L4xx_HAL_Driver/Src/stm32l4xx_hal_flash_ex.c ****     }
 878:../Resources/Drivers/STM32L4xx_HAL_Driver/Src/stm32l4xx_hal_flash_ex.c **** 
 879:../Resources/Drivers/STM32L4xx_HAL_Driver/Src/stm32l4xx_hal_flash_ex.c ****     if((UserType & OB_USER_DUALBANK) != 0U)
 880:../Resources/Drivers/STM32L4xx_HAL_Driver/Src/stm32l4xx_hal_flash_ex.c ****     {
 881:../Resources/Drivers/STM32L4xx_HAL_Driver/Src/stm32l4xx_hal_flash_ex.c **** #if defined (STM32L4P5xx) || defined (STM32L4Q5xx) || defined (STM32L4R5xx) || defined (STM32L4R7xx
 882:../Resources/Drivers/STM32L4xx_HAL_Driver/Src/stm32l4xx_hal_flash_ex.c ****       /* DUALBANK option byte should be modified */
 883:../Resources/Drivers/STM32L4xx_HAL_Driver/Src/stm32l4xx_hal_flash_ex.c ****       assert_param(IS_OB_USER_DUALBANK(UserConfig & FLASH_OPTR_DB1M));
 884:../Resources/Drivers/STM32L4xx_HAL_Driver/Src/stm32l4xx_hal_flash_ex.c **** 
 885:../Resources/Drivers/STM32L4xx_HAL_Driver/Src/stm32l4xx_hal_flash_ex.c ****       /* Set value and mask for DUALBANK option byte */
 886:../Resources/Drivers/STM32L4xx_HAL_Driver/Src/stm32l4xx_hal_flash_ex.c ****       optr_reg_val |= (UserConfig & FLASH_OPTR_DB1M);
 887:../Resources/Drivers/STM32L4xx_HAL_Driver/Src/stm32l4xx_hal_flash_ex.c ****       optr_reg_mask |= FLASH_OPTR_DB1M;
 888:../Resources/Drivers/STM32L4xx_HAL_Driver/Src/stm32l4xx_hal_flash_ex.c **** #else
 889:../Resources/Drivers/STM32L4xx_HAL_Driver/Src/stm32l4xx_hal_flash_ex.c ****       /* DUALBANK option byte should be modified */
 890:../Resources/Drivers/STM32L4xx_HAL_Driver/Src/stm32l4xx_hal_flash_ex.c ****       assert_param(IS_OB_USER_DUALBANK(UserConfig & FLASH_OPTR_DUALBANK));
 891:../Resources/Drivers/STM32L4xx_HAL_Driver/Src/stm32l4xx_hal_flash_ex.c **** 
 892:../Resources/Drivers/STM32L4xx_HAL_Driver/Src/stm32l4xx_hal_flash_ex.c ****       /* Set value and mask for DUALBANK option byte */
 893:../Resources/Drivers/STM32L4xx_HAL_Driver/Src/stm32l4xx_hal_flash_ex.c ****       optr_reg_val |= (UserConfig & FLASH_OPTR_DUALBANK);
 894:../Resources/Drivers/STM32L4xx_HAL_Driver/Src/stm32l4xx_hal_flash_ex.c ****       optr_reg_mask |= FLASH_OPTR_DUALBANK;
 895:../Resources/Drivers/STM32L4xx_HAL_Driver/Src/stm32l4xx_hal_flash_ex.c **** #endif
ARM GAS  /tmp/cchkkQtC.s 			page 18


 896:../Resources/Drivers/STM32L4xx_HAL_Driver/Src/stm32l4xx_hal_flash_ex.c ****     }
 897:../Resources/Drivers/STM32L4xx_HAL_Driver/Src/stm32l4xx_hal_flash_ex.c **** #endif
 898:../Resources/Drivers/STM32L4xx_HAL_Driver/Src/stm32l4xx_hal_flash_ex.c **** 
 899:../Resources/Drivers/STM32L4xx_HAL_Driver/Src/stm32l4xx_hal_flash_ex.c ****     if((UserType & OB_USER_nBOOT1) != 0U)
 900:../Resources/Drivers/STM32L4xx_HAL_Driver/Src/stm32l4xx_hal_flash_ex.c ****     {
 901:../Resources/Drivers/STM32L4xx_HAL_Driver/Src/stm32l4xx_hal_flash_ex.c ****       /* nBOOT1 option byte should be modified */
 902:../Resources/Drivers/STM32L4xx_HAL_Driver/Src/stm32l4xx_hal_flash_ex.c ****       assert_param(IS_OB_USER_BOOT1(UserConfig & FLASH_OPTR_nBOOT1));
 903:../Resources/Drivers/STM32L4xx_HAL_Driver/Src/stm32l4xx_hal_flash_ex.c **** 
 904:../Resources/Drivers/STM32L4xx_HAL_Driver/Src/stm32l4xx_hal_flash_ex.c ****       /* Set value and mask for nBOOT1 option byte */
 905:../Resources/Drivers/STM32L4xx_HAL_Driver/Src/stm32l4xx_hal_flash_ex.c ****       optr_reg_val |= (UserConfig & FLASH_OPTR_nBOOT1);
 906:../Resources/Drivers/STM32L4xx_HAL_Driver/Src/stm32l4xx_hal_flash_ex.c ****       optr_reg_mask |= FLASH_OPTR_nBOOT1;
 907:../Resources/Drivers/STM32L4xx_HAL_Driver/Src/stm32l4xx_hal_flash_ex.c ****     }
 908:../Resources/Drivers/STM32L4xx_HAL_Driver/Src/stm32l4xx_hal_flash_ex.c **** 
 909:../Resources/Drivers/STM32L4xx_HAL_Driver/Src/stm32l4xx_hal_flash_ex.c ****     if((UserType & OB_USER_SRAM2_PE) != 0U)
 910:../Resources/Drivers/STM32L4xx_HAL_Driver/Src/stm32l4xx_hal_flash_ex.c ****     {
 911:../Resources/Drivers/STM32L4xx_HAL_Driver/Src/stm32l4xx_hal_flash_ex.c ****       /* SRAM2_PE option byte should be modified */
 912:../Resources/Drivers/STM32L4xx_HAL_Driver/Src/stm32l4xx_hal_flash_ex.c ****       assert_param(IS_OB_USER_SRAM2_PARITY(UserConfig & FLASH_OPTR_SRAM2_PE));
 913:../Resources/Drivers/STM32L4xx_HAL_Driver/Src/stm32l4xx_hal_flash_ex.c **** 
 914:../Resources/Drivers/STM32L4xx_HAL_Driver/Src/stm32l4xx_hal_flash_ex.c ****       /* Set value and mask for SRAM2_PE option byte */
 915:../Resources/Drivers/STM32L4xx_HAL_Driver/Src/stm32l4xx_hal_flash_ex.c ****       optr_reg_val |= (UserConfig & FLASH_OPTR_SRAM2_PE);
 916:../Resources/Drivers/STM32L4xx_HAL_Driver/Src/stm32l4xx_hal_flash_ex.c ****       optr_reg_mask |= FLASH_OPTR_SRAM2_PE;
 917:../Resources/Drivers/STM32L4xx_HAL_Driver/Src/stm32l4xx_hal_flash_ex.c ****     }
 918:../Resources/Drivers/STM32L4xx_HAL_Driver/Src/stm32l4xx_hal_flash_ex.c **** 
 919:../Resources/Drivers/STM32L4xx_HAL_Driver/Src/stm32l4xx_hal_flash_ex.c ****     if((UserType & OB_USER_SRAM2_RST) != 0U)
 920:../Resources/Drivers/STM32L4xx_HAL_Driver/Src/stm32l4xx_hal_flash_ex.c ****     {
 921:../Resources/Drivers/STM32L4xx_HAL_Driver/Src/stm32l4xx_hal_flash_ex.c ****       /* SRAM2_RST option byte should be modified */
 922:../Resources/Drivers/STM32L4xx_HAL_Driver/Src/stm32l4xx_hal_flash_ex.c ****       assert_param(IS_OB_USER_SRAM2_RST(UserConfig & FLASH_OPTR_SRAM2_RST));
 923:../Resources/Drivers/STM32L4xx_HAL_Driver/Src/stm32l4xx_hal_flash_ex.c **** 
 924:../Resources/Drivers/STM32L4xx_HAL_Driver/Src/stm32l4xx_hal_flash_ex.c ****       /* Set value and mask for SRAM2_RST option byte */
 925:../Resources/Drivers/STM32L4xx_HAL_Driver/Src/stm32l4xx_hal_flash_ex.c ****       optr_reg_val |= (UserConfig & FLASH_OPTR_SRAM2_RST);
 926:../Resources/Drivers/STM32L4xx_HAL_Driver/Src/stm32l4xx_hal_flash_ex.c ****       optr_reg_mask |= FLASH_OPTR_SRAM2_RST;
 927:../Resources/Drivers/STM32L4xx_HAL_Driver/Src/stm32l4xx_hal_flash_ex.c ****     }
 928:../Resources/Drivers/STM32L4xx_HAL_Driver/Src/stm32l4xx_hal_flash_ex.c **** 
 929:../Resources/Drivers/STM32L4xx_HAL_Driver/Src/stm32l4xx_hal_flash_ex.c **** #if defined (STM32L412xx) || defined (STM32L422xx) || defined (STM32L431xx) || defined (STM32L432xx
 930:../Resources/Drivers/STM32L4xx_HAL_Driver/Src/stm32l4xx_hal_flash_ex.c ****     defined (STM32L442xx) || defined (STM32L443xx) || defined (STM32L451xx) || defined (STM32L452xx
 931:../Resources/Drivers/STM32L4xx_HAL_Driver/Src/stm32l4xx_hal_flash_ex.c ****     defined (STM32L496xx) || defined (STM32L4A6xx) || \
 932:../Resources/Drivers/STM32L4xx_HAL_Driver/Src/stm32l4xx_hal_flash_ex.c ****     defined (STM32L4P5xx) || defined (STM32L4Q5xx) || \
 933:../Resources/Drivers/STM32L4xx_HAL_Driver/Src/stm32l4xx_hal_flash_ex.c ****     defined (STM32L4R5xx) || defined (STM32L4R7xx) || defined (STM32L4R9xx) || defined (STM32L4S5xx
 934:../Resources/Drivers/STM32L4xx_HAL_Driver/Src/stm32l4xx_hal_flash_ex.c ****     if((UserType & OB_USER_nSWBOOT0) != 0U)
 935:../Resources/Drivers/STM32L4xx_HAL_Driver/Src/stm32l4xx_hal_flash_ex.c ****     {
 936:../Resources/Drivers/STM32L4xx_HAL_Driver/Src/stm32l4xx_hal_flash_ex.c ****       /* nSWBOOT0 option byte should be modified */
 937:../Resources/Drivers/STM32L4xx_HAL_Driver/Src/stm32l4xx_hal_flash_ex.c ****       assert_param(IS_OB_USER_SWBOOT0(UserConfig & FLASH_OPTR_nSWBOOT0));
 938:../Resources/Drivers/STM32L4xx_HAL_Driver/Src/stm32l4xx_hal_flash_ex.c **** 
 939:../Resources/Drivers/STM32L4xx_HAL_Driver/Src/stm32l4xx_hal_flash_ex.c ****       /* Set value and mask for nSWBOOT0 option byte */
 940:../Resources/Drivers/STM32L4xx_HAL_Driver/Src/stm32l4xx_hal_flash_ex.c ****       optr_reg_val |= (UserConfig & FLASH_OPTR_nSWBOOT0);
 941:../Resources/Drivers/STM32L4xx_HAL_Driver/Src/stm32l4xx_hal_flash_ex.c ****       optr_reg_mask |= FLASH_OPTR_nSWBOOT0;
 942:../Resources/Drivers/STM32L4xx_HAL_Driver/Src/stm32l4xx_hal_flash_ex.c ****     }
 943:../Resources/Drivers/STM32L4xx_HAL_Driver/Src/stm32l4xx_hal_flash_ex.c **** 
 944:../Resources/Drivers/STM32L4xx_HAL_Driver/Src/stm32l4xx_hal_flash_ex.c ****     if((UserType & OB_USER_nBOOT0) != 0U)
 945:../Resources/Drivers/STM32L4xx_HAL_Driver/Src/stm32l4xx_hal_flash_ex.c ****     {
 946:../Resources/Drivers/STM32L4xx_HAL_Driver/Src/stm32l4xx_hal_flash_ex.c ****       /* nBOOT0 option byte should be modified */
 947:../Resources/Drivers/STM32L4xx_HAL_Driver/Src/stm32l4xx_hal_flash_ex.c ****       assert_param(IS_OB_USER_BOOT0(UserConfig & FLASH_OPTR_nBOOT0));
 948:../Resources/Drivers/STM32L4xx_HAL_Driver/Src/stm32l4xx_hal_flash_ex.c **** 
 949:../Resources/Drivers/STM32L4xx_HAL_Driver/Src/stm32l4xx_hal_flash_ex.c ****       /* Set value and mask for nBOOT0 option byte */
 950:../Resources/Drivers/STM32L4xx_HAL_Driver/Src/stm32l4xx_hal_flash_ex.c ****       optr_reg_val |= (UserConfig & FLASH_OPTR_nBOOT0);
 951:../Resources/Drivers/STM32L4xx_HAL_Driver/Src/stm32l4xx_hal_flash_ex.c ****       optr_reg_mask |= FLASH_OPTR_nBOOT0;
 952:../Resources/Drivers/STM32L4xx_HAL_Driver/Src/stm32l4xx_hal_flash_ex.c ****     }
ARM GAS  /tmp/cchkkQtC.s 			page 19


 953:../Resources/Drivers/STM32L4xx_HAL_Driver/Src/stm32l4xx_hal_flash_ex.c **** #endif
 954:../Resources/Drivers/STM32L4xx_HAL_Driver/Src/stm32l4xx_hal_flash_ex.c **** 
 955:../Resources/Drivers/STM32L4xx_HAL_Driver/Src/stm32l4xx_hal_flash_ex.c ****     /* Configure the option bytes register */
 956:../Resources/Drivers/STM32L4xx_HAL_Driver/Src/stm32l4xx_hal_flash_ex.c ****     MODIFY_REG(FLASH->OPTR, optr_reg_mask, optr_reg_val);
 957:../Resources/Drivers/STM32L4xx_HAL_Driver/Src/stm32l4xx_hal_flash_ex.c **** 
 958:../Resources/Drivers/STM32L4xx_HAL_Driver/Src/stm32l4xx_hal_flash_ex.c ****     /* Set OPTSTRT Bit */
 959:../Resources/Drivers/STM32L4xx_HAL_Driver/Src/stm32l4xx_hal_flash_ex.c ****     SET_BIT(FLASH->CR, FLASH_CR_OPTSTRT);
 960:../Resources/Drivers/STM32L4xx_HAL_Driver/Src/stm32l4xx_hal_flash_ex.c **** 
 961:../Resources/Drivers/STM32L4xx_HAL_Driver/Src/stm32l4xx_hal_flash_ex.c ****     /* Wait for last operation to be completed */
 962:../Resources/Drivers/STM32L4xx_HAL_Driver/Src/stm32l4xx_hal_flash_ex.c ****     status = FLASH_WaitForLastOperation((uint32_t)FLASH_TIMEOUT_VALUE);
 963:../Resources/Drivers/STM32L4xx_HAL_Driver/Src/stm32l4xx_hal_flash_ex.c **** 
 964:../Resources/Drivers/STM32L4xx_HAL_Driver/Src/stm32l4xx_hal_flash_ex.c ****     /* If the option byte program operation is completed, disable the OPTSTRT Bit */
 965:../Resources/Drivers/STM32L4xx_HAL_Driver/Src/stm32l4xx_hal_flash_ex.c ****     CLEAR_BIT(FLASH->CR, FLASH_CR_OPTSTRT);
 966:../Resources/Drivers/STM32L4xx_HAL_Driver/Src/stm32l4xx_hal_flash_ex.c ****   }
 967:../Resources/Drivers/STM32L4xx_HAL_Driver/Src/stm32l4xx_hal_flash_ex.c **** 
 968:../Resources/Drivers/STM32L4xx_HAL_Driver/Src/stm32l4xx_hal_flash_ex.c ****   return status;
 969:../Resources/Drivers/STM32L4xx_HAL_Driver/Src/stm32l4xx_hal_flash_ex.c **** }
 970:../Resources/Drivers/STM32L4xx_HAL_Driver/Src/stm32l4xx_hal_flash_ex.c **** 
 971:../Resources/Drivers/STM32L4xx_HAL_Driver/Src/stm32l4xx_hal_flash_ex.c **** /**
 972:../Resources/Drivers/STM32L4xx_HAL_Driver/Src/stm32l4xx_hal_flash_ex.c ****   * @brief  Configure the Proprietary code readout protection of the desired addresses.
 973:../Resources/Drivers/STM32L4xx_HAL_Driver/Src/stm32l4xx_hal_flash_ex.c ****   *
 974:../Resources/Drivers/STM32L4xx_HAL_Driver/Src/stm32l4xx_hal_flash_ex.c ****   * @note   To configure the PCROP options, the option lock bit OPTLOCK must be
 975:../Resources/Drivers/STM32L4xx_HAL_Driver/Src/stm32l4xx_hal_flash_ex.c ****   *         cleared with the call of the HAL_FLASH_OB_Unlock() function.
 976:../Resources/Drivers/STM32L4xx_HAL_Driver/Src/stm32l4xx_hal_flash_ex.c ****   * @note   To validate the PCROP options, the option bytes must be reloaded
 977:../Resources/Drivers/STM32L4xx_HAL_Driver/Src/stm32l4xx_hal_flash_ex.c ****   *         through the call of the HAL_FLASH_OB_Launch() function.
 978:../Resources/Drivers/STM32L4xx_HAL_Driver/Src/stm32l4xx_hal_flash_ex.c ****   *
 979:../Resources/Drivers/STM32L4xx_HAL_Driver/Src/stm32l4xx_hal_flash_ex.c ****   * @param  PCROPConfig specifies the configuration (Bank to be configured and PCROP_RDP option).
 980:../Resources/Drivers/STM32L4xx_HAL_Driver/Src/stm32l4xx_hal_flash_ex.c ****   *          This parameter must be a combination of FLASH_BANK_1 or FLASH_BANK_2
 981:../Resources/Drivers/STM32L4xx_HAL_Driver/Src/stm32l4xx_hal_flash_ex.c ****   *          with OB_PCROP_RDP_NOT_ERASE or OB_PCROP_RDP_ERASE
 982:../Resources/Drivers/STM32L4xx_HAL_Driver/Src/stm32l4xx_hal_flash_ex.c ****   *
 983:../Resources/Drivers/STM32L4xx_HAL_Driver/Src/stm32l4xx_hal_flash_ex.c ****   * @param  PCROPStartAddr specifies the start address of the Proprietary code readout protection
 984:../Resources/Drivers/STM32L4xx_HAL_Driver/Src/stm32l4xx_hal_flash_ex.c ****   *          This parameter can be an address between begin and end of the bank
 985:../Resources/Drivers/STM32L4xx_HAL_Driver/Src/stm32l4xx_hal_flash_ex.c ****   *
 986:../Resources/Drivers/STM32L4xx_HAL_Driver/Src/stm32l4xx_hal_flash_ex.c ****   * @param  PCROPEndAddr specifies the end address of the Proprietary code readout protection
 987:../Resources/Drivers/STM32L4xx_HAL_Driver/Src/stm32l4xx_hal_flash_ex.c ****   *          This parameter can be an address between PCROPStartAddr and end of the bank
 988:../Resources/Drivers/STM32L4xx_HAL_Driver/Src/stm32l4xx_hal_flash_ex.c ****   *
 989:../Resources/Drivers/STM32L4xx_HAL_Driver/Src/stm32l4xx_hal_flash_ex.c ****   * @retval HAL Status
 990:../Resources/Drivers/STM32L4xx_HAL_Driver/Src/stm32l4xx_hal_flash_ex.c ****   */
 991:../Resources/Drivers/STM32L4xx_HAL_Driver/Src/stm32l4xx_hal_flash_ex.c **** static HAL_StatusTypeDef FLASH_OB_PCROPConfig(uint32_t PCROPConfig, uint32_t PCROPStartAddr, uint32
 992:../Resources/Drivers/STM32L4xx_HAL_Driver/Src/stm32l4xx_hal_flash_ex.c **** {
 993:../Resources/Drivers/STM32L4xx_HAL_Driver/Src/stm32l4xx_hal_flash_ex.c ****   HAL_StatusTypeDef status;
 994:../Resources/Drivers/STM32L4xx_HAL_Driver/Src/stm32l4xx_hal_flash_ex.c ****   uint32_t reg_value;
 995:../Resources/Drivers/STM32L4xx_HAL_Driver/Src/stm32l4xx_hal_flash_ex.c ****   uint32_t bank1_addr;
 996:../Resources/Drivers/STM32L4xx_HAL_Driver/Src/stm32l4xx_hal_flash_ex.c **** #if defined (STM32L471xx) || defined (STM32L475xx) || defined (STM32L476xx) || defined (STM32L485xx
 997:../Resources/Drivers/STM32L4xx_HAL_Driver/Src/stm32l4xx_hal_flash_ex.c ****     defined (STM32L496xx) || defined (STM32L4A6xx) || \
 998:../Resources/Drivers/STM32L4xx_HAL_Driver/Src/stm32l4xx_hal_flash_ex.c ****     defined (STM32L4P5xx) || defined (STM32L4Q5xx) || \
 999:../Resources/Drivers/STM32L4xx_HAL_Driver/Src/stm32l4xx_hal_flash_ex.c ****     defined (STM32L4R5xx) || defined (STM32L4R7xx) || defined (STM32L4R9xx) || defined (STM32L4S5xx
1000:../Resources/Drivers/STM32L4xx_HAL_Driver/Src/stm32l4xx_hal_flash_ex.c ****   uint32_t bank2_addr;
1001:../Resources/Drivers/STM32L4xx_HAL_Driver/Src/stm32l4xx_hal_flash_ex.c **** #endif
1002:../Resources/Drivers/STM32L4xx_HAL_Driver/Src/stm32l4xx_hal_flash_ex.c **** 
1003:../Resources/Drivers/STM32L4xx_HAL_Driver/Src/stm32l4xx_hal_flash_ex.c ****   /* Check the parameters */
1004:../Resources/Drivers/STM32L4xx_HAL_Driver/Src/stm32l4xx_hal_flash_ex.c ****   assert_param(IS_FLASH_BANK_EXCLUSIVE(PCROPConfig & FLASH_BANK_BOTH));
1005:../Resources/Drivers/STM32L4xx_HAL_Driver/Src/stm32l4xx_hal_flash_ex.c ****   assert_param(IS_OB_PCROP_RDP(PCROPConfig & FLASH_PCROP1ER_PCROP_RDP));
1006:../Resources/Drivers/STM32L4xx_HAL_Driver/Src/stm32l4xx_hal_flash_ex.c ****   assert_param(IS_FLASH_MAIN_MEM_ADDRESS(PCROPStartAddr));
1007:../Resources/Drivers/STM32L4xx_HAL_Driver/Src/stm32l4xx_hal_flash_ex.c ****   assert_param(IS_FLASH_MAIN_MEM_ADDRESS(PCROPEndAddr));
1008:../Resources/Drivers/STM32L4xx_HAL_Driver/Src/stm32l4xx_hal_flash_ex.c **** 
1009:../Resources/Drivers/STM32L4xx_HAL_Driver/Src/stm32l4xx_hal_flash_ex.c ****   /* Wait for last operation to be completed */
ARM GAS  /tmp/cchkkQtC.s 			page 20


1010:../Resources/Drivers/STM32L4xx_HAL_Driver/Src/stm32l4xx_hal_flash_ex.c ****   status = FLASH_WaitForLastOperation((uint32_t)FLASH_TIMEOUT_VALUE);
1011:../Resources/Drivers/STM32L4xx_HAL_Driver/Src/stm32l4xx_hal_flash_ex.c **** 
1012:../Resources/Drivers/STM32L4xx_HAL_Driver/Src/stm32l4xx_hal_flash_ex.c ****   if(status == HAL_OK)
1013:../Resources/Drivers/STM32L4xx_HAL_Driver/Src/stm32l4xx_hal_flash_ex.c ****   {
1014:../Resources/Drivers/STM32L4xx_HAL_Driver/Src/stm32l4xx_hal_flash_ex.c **** #if defined (STM32L471xx) || defined (STM32L475xx) || defined (STM32L476xx) || defined (STM32L485xx
1015:../Resources/Drivers/STM32L4xx_HAL_Driver/Src/stm32l4xx_hal_flash_ex.c ****     defined (STM32L496xx) || defined (STM32L4A6xx) || \
1016:../Resources/Drivers/STM32L4xx_HAL_Driver/Src/stm32l4xx_hal_flash_ex.c ****     defined (STM32L4P5xx) || defined (STM32L4Q5xx) || \
1017:../Resources/Drivers/STM32L4xx_HAL_Driver/Src/stm32l4xx_hal_flash_ex.c ****     defined (STM32L4R5xx) || defined (STM32L4R7xx) || defined (STM32L4R9xx) || defined (STM32L4S5xx
1018:../Resources/Drivers/STM32L4xx_HAL_Driver/Src/stm32l4xx_hal_flash_ex.c ****     /* Get the information about the bank swapping */
1019:../Resources/Drivers/STM32L4xx_HAL_Driver/Src/stm32l4xx_hal_flash_ex.c ****     if (READ_BIT(SYSCFG->MEMRMP, SYSCFG_MEMRMP_FB_MODE) == 0U)
1020:../Resources/Drivers/STM32L4xx_HAL_Driver/Src/stm32l4xx_hal_flash_ex.c ****     {
1021:../Resources/Drivers/STM32L4xx_HAL_Driver/Src/stm32l4xx_hal_flash_ex.c ****       bank1_addr = FLASH_BASE;
1022:../Resources/Drivers/STM32L4xx_HAL_Driver/Src/stm32l4xx_hal_flash_ex.c ****       bank2_addr = FLASH_BASE + FLASH_BANK_SIZE;
1023:../Resources/Drivers/STM32L4xx_HAL_Driver/Src/stm32l4xx_hal_flash_ex.c ****     }
1024:../Resources/Drivers/STM32L4xx_HAL_Driver/Src/stm32l4xx_hal_flash_ex.c ****     else
1025:../Resources/Drivers/STM32L4xx_HAL_Driver/Src/stm32l4xx_hal_flash_ex.c ****     {
1026:../Resources/Drivers/STM32L4xx_HAL_Driver/Src/stm32l4xx_hal_flash_ex.c ****       bank1_addr = FLASH_BASE + FLASH_BANK_SIZE;
1027:../Resources/Drivers/STM32L4xx_HAL_Driver/Src/stm32l4xx_hal_flash_ex.c ****       bank2_addr = FLASH_BASE;
1028:../Resources/Drivers/STM32L4xx_HAL_Driver/Src/stm32l4xx_hal_flash_ex.c ****     }
1029:../Resources/Drivers/STM32L4xx_HAL_Driver/Src/stm32l4xx_hal_flash_ex.c **** #else
1030:../Resources/Drivers/STM32L4xx_HAL_Driver/Src/stm32l4xx_hal_flash_ex.c ****     bank1_addr = FLASH_BASE;
1031:../Resources/Drivers/STM32L4xx_HAL_Driver/Src/stm32l4xx_hal_flash_ex.c **** #endif
1032:../Resources/Drivers/STM32L4xx_HAL_Driver/Src/stm32l4xx_hal_flash_ex.c **** 
1033:../Resources/Drivers/STM32L4xx_HAL_Driver/Src/stm32l4xx_hal_flash_ex.c **** #if defined (STM32L4P5xx) || defined (STM32L4Q5xx) || defined (STM32L4R5xx) || defined (STM32L4R7xx
1034:../Resources/Drivers/STM32L4xx_HAL_Driver/Src/stm32l4xx_hal_flash_ex.c ****     if (READ_BIT(FLASH->OPTR, FLASH_OPTR_DBANK) == 0U)
1035:../Resources/Drivers/STM32L4xx_HAL_Driver/Src/stm32l4xx_hal_flash_ex.c ****     {
1036:../Resources/Drivers/STM32L4xx_HAL_Driver/Src/stm32l4xx_hal_flash_ex.c ****       /* Configure the Proprietary code readout protection */
1037:../Resources/Drivers/STM32L4xx_HAL_Driver/Src/stm32l4xx_hal_flash_ex.c ****       if((PCROPConfig & FLASH_BANK_BOTH) == FLASH_BANK_1)
1038:../Resources/Drivers/STM32L4xx_HAL_Driver/Src/stm32l4xx_hal_flash_ex.c ****       {
1039:../Resources/Drivers/STM32L4xx_HAL_Driver/Src/stm32l4xx_hal_flash_ex.c ****         reg_value = ((PCROPStartAddr - FLASH_BASE) >> 4);
1040:../Resources/Drivers/STM32L4xx_HAL_Driver/Src/stm32l4xx_hal_flash_ex.c ****         MODIFY_REG(FLASH->PCROP1SR, FLASH_PCROP1SR_PCROP1_STRT, reg_value);
1041:../Resources/Drivers/STM32L4xx_HAL_Driver/Src/stm32l4xx_hal_flash_ex.c **** 
1042:../Resources/Drivers/STM32L4xx_HAL_Driver/Src/stm32l4xx_hal_flash_ex.c ****         reg_value = ((PCROPEndAddr - FLASH_BASE) >> 4);
1043:../Resources/Drivers/STM32L4xx_HAL_Driver/Src/stm32l4xx_hal_flash_ex.c ****         MODIFY_REG(FLASH->PCROP1ER, FLASH_PCROP1ER_PCROP1_END, reg_value);
1044:../Resources/Drivers/STM32L4xx_HAL_Driver/Src/stm32l4xx_hal_flash_ex.c ****       }
1045:../Resources/Drivers/STM32L4xx_HAL_Driver/Src/stm32l4xx_hal_flash_ex.c ****       else if((PCROPConfig & FLASH_BANK_BOTH) == FLASH_BANK_2)
1046:../Resources/Drivers/STM32L4xx_HAL_Driver/Src/stm32l4xx_hal_flash_ex.c ****       {
1047:../Resources/Drivers/STM32L4xx_HAL_Driver/Src/stm32l4xx_hal_flash_ex.c ****         reg_value = ((PCROPStartAddr - FLASH_BASE) >> 4);
1048:../Resources/Drivers/STM32L4xx_HAL_Driver/Src/stm32l4xx_hal_flash_ex.c ****         MODIFY_REG(FLASH->PCROP2SR, FLASH_PCROP2SR_PCROP2_STRT, reg_value);
1049:../Resources/Drivers/STM32L4xx_HAL_Driver/Src/stm32l4xx_hal_flash_ex.c **** 
1050:../Resources/Drivers/STM32L4xx_HAL_Driver/Src/stm32l4xx_hal_flash_ex.c ****         reg_value = ((PCROPEndAddr - FLASH_BASE) >> 4);
1051:../Resources/Drivers/STM32L4xx_HAL_Driver/Src/stm32l4xx_hal_flash_ex.c ****         MODIFY_REG(FLASH->PCROP2ER, FLASH_PCROP2ER_PCROP2_END, reg_value);
1052:../Resources/Drivers/STM32L4xx_HAL_Driver/Src/stm32l4xx_hal_flash_ex.c ****       }
1053:../Resources/Drivers/STM32L4xx_HAL_Driver/Src/stm32l4xx_hal_flash_ex.c ****       else
1054:../Resources/Drivers/STM32L4xx_HAL_Driver/Src/stm32l4xx_hal_flash_ex.c ****       {
1055:../Resources/Drivers/STM32L4xx_HAL_Driver/Src/stm32l4xx_hal_flash_ex.c ****         /* Nothing to do */
1056:../Resources/Drivers/STM32L4xx_HAL_Driver/Src/stm32l4xx_hal_flash_ex.c ****       }
1057:../Resources/Drivers/STM32L4xx_HAL_Driver/Src/stm32l4xx_hal_flash_ex.c ****     }
1058:../Resources/Drivers/STM32L4xx_HAL_Driver/Src/stm32l4xx_hal_flash_ex.c ****     else
1059:../Resources/Drivers/STM32L4xx_HAL_Driver/Src/stm32l4xx_hal_flash_ex.c **** #endif
1060:../Resources/Drivers/STM32L4xx_HAL_Driver/Src/stm32l4xx_hal_flash_ex.c ****     {
1061:../Resources/Drivers/STM32L4xx_HAL_Driver/Src/stm32l4xx_hal_flash_ex.c ****       /* Configure the Proprietary code readout protection */
1062:../Resources/Drivers/STM32L4xx_HAL_Driver/Src/stm32l4xx_hal_flash_ex.c ****       if((PCROPConfig & FLASH_BANK_BOTH) == FLASH_BANK_1)
1063:../Resources/Drivers/STM32L4xx_HAL_Driver/Src/stm32l4xx_hal_flash_ex.c ****       {
1064:../Resources/Drivers/STM32L4xx_HAL_Driver/Src/stm32l4xx_hal_flash_ex.c ****         reg_value = ((PCROPStartAddr - bank1_addr) >> 3);
1065:../Resources/Drivers/STM32L4xx_HAL_Driver/Src/stm32l4xx_hal_flash_ex.c ****         MODIFY_REG(FLASH->PCROP1SR, FLASH_PCROP1SR_PCROP1_STRT, reg_value);
1066:../Resources/Drivers/STM32L4xx_HAL_Driver/Src/stm32l4xx_hal_flash_ex.c **** 
ARM GAS  /tmp/cchkkQtC.s 			page 21


1067:../Resources/Drivers/STM32L4xx_HAL_Driver/Src/stm32l4xx_hal_flash_ex.c ****         reg_value = ((PCROPEndAddr - bank1_addr) >> 3);
1068:../Resources/Drivers/STM32L4xx_HAL_Driver/Src/stm32l4xx_hal_flash_ex.c ****         MODIFY_REG(FLASH->PCROP1ER, FLASH_PCROP1ER_PCROP1_END, reg_value);
1069:../Resources/Drivers/STM32L4xx_HAL_Driver/Src/stm32l4xx_hal_flash_ex.c ****       }
1070:../Resources/Drivers/STM32L4xx_HAL_Driver/Src/stm32l4xx_hal_flash_ex.c **** #if defined (STM32L471xx) || defined (STM32L475xx) || defined (STM32L476xx) || defined (STM32L485xx
1071:../Resources/Drivers/STM32L4xx_HAL_Driver/Src/stm32l4xx_hal_flash_ex.c ****     defined (STM32L496xx) || defined (STM32L4A6xx) || \
1072:../Resources/Drivers/STM32L4xx_HAL_Driver/Src/stm32l4xx_hal_flash_ex.c ****     defined (STM32L4P5xx) || defined (STM32L4Q5xx) || \
1073:../Resources/Drivers/STM32L4xx_HAL_Driver/Src/stm32l4xx_hal_flash_ex.c ****     defined (STM32L4R5xx) || defined (STM32L4R7xx) || defined (STM32L4R9xx) || defined (STM32L4S5xx
1074:../Resources/Drivers/STM32L4xx_HAL_Driver/Src/stm32l4xx_hal_flash_ex.c ****       else if((PCROPConfig & FLASH_BANK_BOTH) == FLASH_BANK_2)
1075:../Resources/Drivers/STM32L4xx_HAL_Driver/Src/stm32l4xx_hal_flash_ex.c ****       {
1076:../Resources/Drivers/STM32L4xx_HAL_Driver/Src/stm32l4xx_hal_flash_ex.c ****         reg_value = ((PCROPStartAddr - bank2_addr) >> 3);
1077:../Resources/Drivers/STM32L4xx_HAL_Driver/Src/stm32l4xx_hal_flash_ex.c ****         MODIFY_REG(FLASH->PCROP2SR, FLASH_PCROP2SR_PCROP2_STRT, reg_value);
1078:../Resources/Drivers/STM32L4xx_HAL_Driver/Src/stm32l4xx_hal_flash_ex.c **** 
1079:../Resources/Drivers/STM32L4xx_HAL_Driver/Src/stm32l4xx_hal_flash_ex.c ****         reg_value = ((PCROPEndAddr - bank2_addr) >> 3);
1080:../Resources/Drivers/STM32L4xx_HAL_Driver/Src/stm32l4xx_hal_flash_ex.c ****         MODIFY_REG(FLASH->PCROP2ER, FLASH_PCROP2ER_PCROP2_END, reg_value);
1081:../Resources/Drivers/STM32L4xx_HAL_Driver/Src/stm32l4xx_hal_flash_ex.c ****       }
1082:../Resources/Drivers/STM32L4xx_HAL_Driver/Src/stm32l4xx_hal_flash_ex.c **** #endif
1083:../Resources/Drivers/STM32L4xx_HAL_Driver/Src/stm32l4xx_hal_flash_ex.c ****       else
1084:../Resources/Drivers/STM32L4xx_HAL_Driver/Src/stm32l4xx_hal_flash_ex.c ****       {
1085:../Resources/Drivers/STM32L4xx_HAL_Driver/Src/stm32l4xx_hal_flash_ex.c ****         /* Nothing to do */
1086:../Resources/Drivers/STM32L4xx_HAL_Driver/Src/stm32l4xx_hal_flash_ex.c ****       }
1087:../Resources/Drivers/STM32L4xx_HAL_Driver/Src/stm32l4xx_hal_flash_ex.c ****     }
1088:../Resources/Drivers/STM32L4xx_HAL_Driver/Src/stm32l4xx_hal_flash_ex.c **** 
1089:../Resources/Drivers/STM32L4xx_HAL_Driver/Src/stm32l4xx_hal_flash_ex.c ****     MODIFY_REG(FLASH->PCROP1ER, FLASH_PCROP1ER_PCROP_RDP, (PCROPConfig & FLASH_PCROP1ER_PCROP_RDP))
1090:../Resources/Drivers/STM32L4xx_HAL_Driver/Src/stm32l4xx_hal_flash_ex.c **** 
1091:../Resources/Drivers/STM32L4xx_HAL_Driver/Src/stm32l4xx_hal_flash_ex.c ****     /* Set OPTSTRT Bit */
1092:../Resources/Drivers/STM32L4xx_HAL_Driver/Src/stm32l4xx_hal_flash_ex.c ****     SET_BIT(FLASH->CR, FLASH_CR_OPTSTRT);
1093:../Resources/Drivers/STM32L4xx_HAL_Driver/Src/stm32l4xx_hal_flash_ex.c **** 
1094:../Resources/Drivers/STM32L4xx_HAL_Driver/Src/stm32l4xx_hal_flash_ex.c ****     /* Wait for last operation to be completed */
1095:../Resources/Drivers/STM32L4xx_HAL_Driver/Src/stm32l4xx_hal_flash_ex.c ****     status = FLASH_WaitForLastOperation((uint32_t)FLASH_TIMEOUT_VALUE);
1096:../Resources/Drivers/STM32L4xx_HAL_Driver/Src/stm32l4xx_hal_flash_ex.c **** 
1097:../Resources/Drivers/STM32L4xx_HAL_Driver/Src/stm32l4xx_hal_flash_ex.c ****     /* If the option byte program operation is completed, disable the OPTSTRT Bit */
1098:../Resources/Drivers/STM32L4xx_HAL_Driver/Src/stm32l4xx_hal_flash_ex.c ****     CLEAR_BIT(FLASH->CR, FLASH_CR_OPTSTRT);
1099:../Resources/Drivers/STM32L4xx_HAL_Driver/Src/stm32l4xx_hal_flash_ex.c ****   }
1100:../Resources/Drivers/STM32L4xx_HAL_Driver/Src/stm32l4xx_hal_flash_ex.c **** 
1101:../Resources/Drivers/STM32L4xx_HAL_Driver/Src/stm32l4xx_hal_flash_ex.c ****   return status;
1102:../Resources/Drivers/STM32L4xx_HAL_Driver/Src/stm32l4xx_hal_flash_ex.c **** }
1103:../Resources/Drivers/STM32L4xx_HAL_Driver/Src/stm32l4xx_hal_flash_ex.c **** 
1104:../Resources/Drivers/STM32L4xx_HAL_Driver/Src/stm32l4xx_hal_flash_ex.c **** /**
1105:../Resources/Drivers/STM32L4xx_HAL_Driver/Src/stm32l4xx_hal_flash_ex.c ****   * @brief  Return the FLASH Write Protection Option Bytes value.
1106:../Resources/Drivers/STM32L4xx_HAL_Driver/Src/stm32l4xx_hal_flash_ex.c ****   *
1107:../Resources/Drivers/STM32L4xx_HAL_Driver/Src/stm32l4xx_hal_flash_ex.c ****   * @param[in]  WRPArea: specifies the area to be returned.
1108:../Resources/Drivers/STM32L4xx_HAL_Driver/Src/stm32l4xx_hal_flash_ex.c ****   *          This parameter can be one of the following values:
1109:../Resources/Drivers/STM32L4xx_HAL_Driver/Src/stm32l4xx_hal_flash_ex.c ****   *            @arg OB_WRPAREA_BANK1_AREAA: Flash Bank 1 Area A
1110:../Resources/Drivers/STM32L4xx_HAL_Driver/Src/stm32l4xx_hal_flash_ex.c ****   *            @arg OB_WRPAREA_BANK1_AREAB: Flash Bank 1 Area B
1111:../Resources/Drivers/STM32L4xx_HAL_Driver/Src/stm32l4xx_hal_flash_ex.c ****   *            @arg OB_WRPAREA_BANK2_AREAA: Flash Bank 2 Area A (don't apply to STM32L43x/STM32L44x
1112:../Resources/Drivers/STM32L4xx_HAL_Driver/Src/stm32l4xx_hal_flash_ex.c ****   *            @arg OB_WRPAREA_BANK2_AREAB: Flash Bank 2 Area B (don't apply to STM32L43x/STM32L44x
1113:../Resources/Drivers/STM32L4xx_HAL_Driver/Src/stm32l4xx_hal_flash_ex.c ****   *
1114:../Resources/Drivers/STM32L4xx_HAL_Driver/Src/stm32l4xx_hal_flash_ex.c ****   * @param[out]  WRPStartOffset: specifies the address where to copied the start page
1115:../Resources/Drivers/STM32L4xx_HAL_Driver/Src/stm32l4xx_hal_flash_ex.c ****   *                         of the write protected area
1116:../Resources/Drivers/STM32L4xx_HAL_Driver/Src/stm32l4xx_hal_flash_ex.c ****   *
1117:../Resources/Drivers/STM32L4xx_HAL_Driver/Src/stm32l4xx_hal_flash_ex.c ****   * @param[out]  WRDPEndOffset: specifies the address where to copied the end page of
1118:../Resources/Drivers/STM32L4xx_HAL_Driver/Src/stm32l4xx_hal_flash_ex.c ****   *                        the write protected area
1119:../Resources/Drivers/STM32L4xx_HAL_Driver/Src/stm32l4xx_hal_flash_ex.c ****   *
1120:../Resources/Drivers/STM32L4xx_HAL_Driver/Src/stm32l4xx_hal_flash_ex.c ****   * @retval None
1121:../Resources/Drivers/STM32L4xx_HAL_Driver/Src/stm32l4xx_hal_flash_ex.c ****   */
1122:../Resources/Drivers/STM32L4xx_HAL_Driver/Src/stm32l4xx_hal_flash_ex.c **** static void FLASH_OB_GetWRP(uint32_t WRPArea, uint32_t * WRPStartOffset, uint32_t * WRDPEndOffset)
1123:../Resources/Drivers/STM32L4xx_HAL_Driver/Src/stm32l4xx_hal_flash_ex.c **** {
ARM GAS  /tmp/cchkkQtC.s 			page 22


  78              		.loc 1 1123 1 is_stmt 1 view -0
  79              		.cfi_startproc
  80              		@ args = 0, pretend = 0, frame = 0
  81              		@ frame_needed = 0, uses_anonymous_args = 0
  82              		@ link register save eliminated.
1124:../Resources/Drivers/STM32L4xx_HAL_Driver/Src/stm32l4xx_hal_flash_ex.c ****   /* Get the configuration of the write protected area */
1125:../Resources/Drivers/STM32L4xx_HAL_Driver/Src/stm32l4xx_hal_flash_ex.c ****   if(WRPArea == OB_WRPAREA_BANK1_AREAA)
  83              		.loc 1 1125 3 view .LVU11
  84              		.loc 1 1125 5 is_stmt 0 view .LVU12
  85 0000 40B9     		cbnz	r0, .L7
1126:../Resources/Drivers/STM32L4xx_HAL_Driver/Src/stm32l4xx_hal_flash_ex.c ****   {
1127:../Resources/Drivers/STM32L4xx_HAL_Driver/Src/stm32l4xx_hal_flash_ex.c ****     *WRPStartOffset = READ_BIT(FLASH->WRP1AR, FLASH_WRP1AR_WRP1A_STRT);
  86              		.loc 1 1127 5 is_stmt 1 view .LVU13
  87              		.loc 1 1127 23 is_stmt 0 view .LVU14
  88 0002 1548     		ldr	r0, .L14
  89              	.LVL2:
  90              		.loc 1 1127 23 view .LVU15
  91 0004 C36A     		ldr	r3, [r0, #44]
  92 0006 DBB2     		uxtb	r3, r3
  93              		.loc 1 1127 21 view .LVU16
  94 0008 0B60     		str	r3, [r1]
1128:../Resources/Drivers/STM32L4xx_HAL_Driver/Src/stm32l4xx_hal_flash_ex.c ****     *WRDPEndOffset = (READ_BIT(FLASH->WRP1AR, FLASH_WRP1AR_WRP1A_END) >> 16);
  95              		.loc 1 1128 5 is_stmt 1 view .LVU17
  96              		.loc 1 1128 23 is_stmt 0 view .LVU18
  97 000a C36A     		ldr	r3, [r0, #44]
  98              		.loc 1 1128 71 view .LVU19
  99 000c C3F30743 		ubfx	r3, r3, #16, #8
 100              		.loc 1 1128 20 view .LVU20
 101 0010 1360     		str	r3, [r2]
 102 0012 7047     		bx	lr
 103              	.LVL3:
 104              	.L7:
1129:../Resources/Drivers/STM32L4xx_HAL_Driver/Src/stm32l4xx_hal_flash_ex.c ****   }
1130:../Resources/Drivers/STM32L4xx_HAL_Driver/Src/stm32l4xx_hal_flash_ex.c ****   else if(WRPArea == OB_WRPAREA_BANK1_AREAB)
 105              		.loc 1 1130 8 is_stmt 1 view .LVU21
 106              		.loc 1 1130 10 is_stmt 0 view .LVU22
 107 0014 0128     		cmp	r0, #1
 108 0016 04D0     		beq	.L11
1131:../Resources/Drivers/STM32L4xx_HAL_Driver/Src/stm32l4xx_hal_flash_ex.c ****   {
1132:../Resources/Drivers/STM32L4xx_HAL_Driver/Src/stm32l4xx_hal_flash_ex.c ****     *WRPStartOffset = READ_BIT(FLASH->WRP1BR, FLASH_WRP1BR_WRP1B_STRT);
1133:../Resources/Drivers/STM32L4xx_HAL_Driver/Src/stm32l4xx_hal_flash_ex.c ****     *WRDPEndOffset = (READ_BIT(FLASH->WRP1BR, FLASH_WRP1BR_WRP1B_END) >> 16);
1134:../Resources/Drivers/STM32L4xx_HAL_Driver/Src/stm32l4xx_hal_flash_ex.c ****   }
1135:../Resources/Drivers/STM32L4xx_HAL_Driver/Src/stm32l4xx_hal_flash_ex.c **** #if defined (STM32L471xx) || defined (STM32L475xx) || defined (STM32L476xx) || defined (STM32L485xx
1136:../Resources/Drivers/STM32L4xx_HAL_Driver/Src/stm32l4xx_hal_flash_ex.c ****     defined (STM32L496xx) || defined (STM32L4A6xx) || \
1137:../Resources/Drivers/STM32L4xx_HAL_Driver/Src/stm32l4xx_hal_flash_ex.c ****     defined (STM32L4P5xx) || defined (STM32L4Q5xx) || \
1138:../Resources/Drivers/STM32L4xx_HAL_Driver/Src/stm32l4xx_hal_flash_ex.c ****     defined (STM32L4R5xx) || defined (STM32L4R7xx) || defined (STM32L4R9xx) || defined (STM32L4S5xx
1139:../Resources/Drivers/STM32L4xx_HAL_Driver/Src/stm32l4xx_hal_flash_ex.c ****   else if(WRPArea == OB_WRPAREA_BANK2_AREAA)
 109              		.loc 1 1139 8 is_stmt 1 view .LVU23
 110              		.loc 1 1139 10 is_stmt 0 view .LVU24
 111 0018 0228     		cmp	r0, #2
 112 001a 0BD0     		beq	.L12
1140:../Resources/Drivers/STM32L4xx_HAL_Driver/Src/stm32l4xx_hal_flash_ex.c ****   {
1141:../Resources/Drivers/STM32L4xx_HAL_Driver/Src/stm32l4xx_hal_flash_ex.c ****     *WRPStartOffset = READ_BIT(FLASH->WRP2AR, FLASH_WRP2AR_WRP2A_STRT);
1142:../Resources/Drivers/STM32L4xx_HAL_Driver/Src/stm32l4xx_hal_flash_ex.c ****     *WRDPEndOffset = (READ_BIT(FLASH->WRP2AR, FLASH_WRP2AR_WRP2A_END) >> 16);
1143:../Resources/Drivers/STM32L4xx_HAL_Driver/Src/stm32l4xx_hal_flash_ex.c ****   }
1144:../Resources/Drivers/STM32L4xx_HAL_Driver/Src/stm32l4xx_hal_flash_ex.c ****   else if(WRPArea == OB_WRPAREA_BANK2_AREAB)
 113              		.loc 1 1144 8 is_stmt 1 view .LVU25
ARM GAS  /tmp/cchkkQtC.s 			page 23


 114              		.loc 1 1144 10 is_stmt 0 view .LVU26
 115 001c 0428     		cmp	r0, #4
 116 001e 12D0     		beq	.L13
 117              	.LVL4:
 118              	.L6:
1145:../Resources/Drivers/STM32L4xx_HAL_Driver/Src/stm32l4xx_hal_flash_ex.c ****   {
1146:../Resources/Drivers/STM32L4xx_HAL_Driver/Src/stm32l4xx_hal_flash_ex.c ****     *WRPStartOffset = READ_BIT(FLASH->WRP2BR, FLASH_WRP2BR_WRP2B_STRT);
1147:../Resources/Drivers/STM32L4xx_HAL_Driver/Src/stm32l4xx_hal_flash_ex.c ****     *WRDPEndOffset = (READ_BIT(FLASH->WRP2BR, FLASH_WRP2BR_WRP2B_END) >> 16);
1148:../Resources/Drivers/STM32L4xx_HAL_Driver/Src/stm32l4xx_hal_flash_ex.c ****   }
1149:../Resources/Drivers/STM32L4xx_HAL_Driver/Src/stm32l4xx_hal_flash_ex.c **** #endif
1150:../Resources/Drivers/STM32L4xx_HAL_Driver/Src/stm32l4xx_hal_flash_ex.c ****   else
1151:../Resources/Drivers/STM32L4xx_HAL_Driver/Src/stm32l4xx_hal_flash_ex.c ****   {
1152:../Resources/Drivers/STM32L4xx_HAL_Driver/Src/stm32l4xx_hal_flash_ex.c ****     /* Nothing to do */
1153:../Resources/Drivers/STM32L4xx_HAL_Driver/Src/stm32l4xx_hal_flash_ex.c ****   }
1154:../Resources/Drivers/STM32L4xx_HAL_Driver/Src/stm32l4xx_hal_flash_ex.c **** }
 119              		.loc 1 1154 1 view .LVU27
 120 0020 7047     		bx	lr
 121              	.LVL5:
 122              	.L11:
1132:../Resources/Drivers/STM32L4xx_HAL_Driver/Src/stm32l4xx_hal_flash_ex.c ****     *WRDPEndOffset = (READ_BIT(FLASH->WRP1BR, FLASH_WRP1BR_WRP1B_END) >> 16);
 123              		.loc 1 1132 5 is_stmt 1 view .LVU28
1132:../Resources/Drivers/STM32L4xx_HAL_Driver/Src/stm32l4xx_hal_flash_ex.c ****     *WRDPEndOffset = (READ_BIT(FLASH->WRP1BR, FLASH_WRP1BR_WRP1B_END) >> 16);
 124              		.loc 1 1132 23 is_stmt 0 view .LVU29
 125 0022 0D48     		ldr	r0, .L14
 126              	.LVL6:
1132:../Resources/Drivers/STM32L4xx_HAL_Driver/Src/stm32l4xx_hal_flash_ex.c ****     *WRDPEndOffset = (READ_BIT(FLASH->WRP1BR, FLASH_WRP1BR_WRP1B_END) >> 16);
 127              		.loc 1 1132 23 view .LVU30
 128 0024 036B     		ldr	r3, [r0, #48]
 129 0026 DBB2     		uxtb	r3, r3
1132:../Resources/Drivers/STM32L4xx_HAL_Driver/Src/stm32l4xx_hal_flash_ex.c ****     *WRDPEndOffset = (READ_BIT(FLASH->WRP1BR, FLASH_WRP1BR_WRP1B_END) >> 16);
 130              		.loc 1 1132 21 view .LVU31
 131 0028 0B60     		str	r3, [r1]
1133:../Resources/Drivers/STM32L4xx_HAL_Driver/Src/stm32l4xx_hal_flash_ex.c ****   }
 132              		.loc 1 1133 5 is_stmt 1 view .LVU32
1133:../Resources/Drivers/STM32L4xx_HAL_Driver/Src/stm32l4xx_hal_flash_ex.c ****   }
 133              		.loc 1 1133 23 is_stmt 0 view .LVU33
 134 002a 036B     		ldr	r3, [r0, #48]
1133:../Resources/Drivers/STM32L4xx_HAL_Driver/Src/stm32l4xx_hal_flash_ex.c ****   }
 135              		.loc 1 1133 71 view .LVU34
 136 002c C3F30743 		ubfx	r3, r3, #16, #8
1133:../Resources/Drivers/STM32L4xx_HAL_Driver/Src/stm32l4xx_hal_flash_ex.c ****   }
 137              		.loc 1 1133 20 view .LVU35
 138 0030 1360     		str	r3, [r2]
 139 0032 7047     		bx	lr
 140              	.LVL7:
 141              	.L12:
1141:../Resources/Drivers/STM32L4xx_HAL_Driver/Src/stm32l4xx_hal_flash_ex.c ****     *WRDPEndOffset = (READ_BIT(FLASH->WRP2AR, FLASH_WRP2AR_WRP2A_END) >> 16);
 142              		.loc 1 1141 5 is_stmt 1 view .LVU36
1141:../Resources/Drivers/STM32L4xx_HAL_Driver/Src/stm32l4xx_hal_flash_ex.c ****     *WRDPEndOffset = (READ_BIT(FLASH->WRP2AR, FLASH_WRP2AR_WRP2A_END) >> 16);
 143              		.loc 1 1141 23 is_stmt 0 view .LVU37
 144 0034 0848     		ldr	r0, .L14
 145              	.LVL8:
1141:../Resources/Drivers/STM32L4xx_HAL_Driver/Src/stm32l4xx_hal_flash_ex.c ****     *WRDPEndOffset = (READ_BIT(FLASH->WRP2AR, FLASH_WRP2AR_WRP2A_END) >> 16);
 146              		.loc 1 1141 23 view .LVU38
 147 0036 C36C     		ldr	r3, [r0, #76]
 148 0038 DBB2     		uxtb	r3, r3
1141:../Resources/Drivers/STM32L4xx_HAL_Driver/Src/stm32l4xx_hal_flash_ex.c ****     *WRDPEndOffset = (READ_BIT(FLASH->WRP2AR, FLASH_WRP2AR_WRP2A_END) >> 16);
ARM GAS  /tmp/cchkkQtC.s 			page 24


 149              		.loc 1 1141 21 view .LVU39
 150 003a 0B60     		str	r3, [r1]
1142:../Resources/Drivers/STM32L4xx_HAL_Driver/Src/stm32l4xx_hal_flash_ex.c ****   }
 151              		.loc 1 1142 5 is_stmt 1 view .LVU40
1142:../Resources/Drivers/STM32L4xx_HAL_Driver/Src/stm32l4xx_hal_flash_ex.c ****   }
 152              		.loc 1 1142 23 is_stmt 0 view .LVU41
 153 003c C36C     		ldr	r3, [r0, #76]
1142:../Resources/Drivers/STM32L4xx_HAL_Driver/Src/stm32l4xx_hal_flash_ex.c ****   }
 154              		.loc 1 1142 71 view .LVU42
 155 003e C3F30743 		ubfx	r3, r3, #16, #8
1142:../Resources/Drivers/STM32L4xx_HAL_Driver/Src/stm32l4xx_hal_flash_ex.c ****   }
 156              		.loc 1 1142 20 view .LVU43
 157 0042 1360     		str	r3, [r2]
 158 0044 7047     		bx	lr
 159              	.LVL9:
 160              	.L13:
1146:../Resources/Drivers/STM32L4xx_HAL_Driver/Src/stm32l4xx_hal_flash_ex.c ****     *WRDPEndOffset = (READ_BIT(FLASH->WRP2BR, FLASH_WRP2BR_WRP2B_END) >> 16);
 161              		.loc 1 1146 5 is_stmt 1 view .LVU44
1146:../Resources/Drivers/STM32L4xx_HAL_Driver/Src/stm32l4xx_hal_flash_ex.c ****     *WRDPEndOffset = (READ_BIT(FLASH->WRP2BR, FLASH_WRP2BR_WRP2B_END) >> 16);
 162              		.loc 1 1146 23 is_stmt 0 view .LVU45
 163 0046 0448     		ldr	r0, .L14
 164              	.LVL10:
1146:../Resources/Drivers/STM32L4xx_HAL_Driver/Src/stm32l4xx_hal_flash_ex.c ****     *WRDPEndOffset = (READ_BIT(FLASH->WRP2BR, FLASH_WRP2BR_WRP2B_END) >> 16);
 165              		.loc 1 1146 23 view .LVU46
 166 0048 036D     		ldr	r3, [r0, #80]
 167 004a DBB2     		uxtb	r3, r3
1146:../Resources/Drivers/STM32L4xx_HAL_Driver/Src/stm32l4xx_hal_flash_ex.c ****     *WRDPEndOffset = (READ_BIT(FLASH->WRP2BR, FLASH_WRP2BR_WRP2B_END) >> 16);
 168              		.loc 1 1146 21 view .LVU47
 169 004c 0B60     		str	r3, [r1]
1147:../Resources/Drivers/STM32L4xx_HAL_Driver/Src/stm32l4xx_hal_flash_ex.c ****   }
 170              		.loc 1 1147 5 is_stmt 1 view .LVU48
1147:../Resources/Drivers/STM32L4xx_HAL_Driver/Src/stm32l4xx_hal_flash_ex.c ****   }
 171              		.loc 1 1147 23 is_stmt 0 view .LVU49
 172 004e 036D     		ldr	r3, [r0, #80]
1147:../Resources/Drivers/STM32L4xx_HAL_Driver/Src/stm32l4xx_hal_flash_ex.c ****   }
 173              		.loc 1 1147 71 view .LVU50
 174 0050 C3F30743 		ubfx	r3, r3, #16, #8
1147:../Resources/Drivers/STM32L4xx_HAL_Driver/Src/stm32l4xx_hal_flash_ex.c ****   }
 175              		.loc 1 1147 20 view .LVU51
 176 0054 1360     		str	r3, [r2]
1153:../Resources/Drivers/STM32L4xx_HAL_Driver/Src/stm32l4xx_hal_flash_ex.c **** }
 177              		.loc 1 1153 3 is_stmt 1 view .LVU52
 178              		.loc 1 1154 1 is_stmt 0 view .LVU53
 179 0056 E3E7     		b	.L6
 180              	.L15:
 181              		.align	2
 182              	.L14:
 183 0058 00200240 		.word	1073881088
 184              		.cfi_endproc
 185              	.LFE143:
 187              		.section	.text.FLASH_OB_GetRDP,"ax",%progbits
 188              		.align	1
 189              		.syntax unified
 190              		.thumb
 191              		.thumb_func
 193              	FLASH_OB_GetRDP:
 194              	.LFB144:
ARM GAS  /tmp/cchkkQtC.s 			page 25


1155:../Resources/Drivers/STM32L4xx_HAL_Driver/Src/stm32l4xx_hal_flash_ex.c **** 
1156:../Resources/Drivers/STM32L4xx_HAL_Driver/Src/stm32l4xx_hal_flash_ex.c **** /**
1157:../Resources/Drivers/STM32L4xx_HAL_Driver/Src/stm32l4xx_hal_flash_ex.c ****   * @brief  Return the FLASH Read Protection level.
1158:../Resources/Drivers/STM32L4xx_HAL_Driver/Src/stm32l4xx_hal_flash_ex.c ****   * @retval FLASH ReadOut Protection Status:
1159:../Resources/Drivers/STM32L4xx_HAL_Driver/Src/stm32l4xx_hal_flash_ex.c ****   *         This return value can be one of the following values:
1160:../Resources/Drivers/STM32L4xx_HAL_Driver/Src/stm32l4xx_hal_flash_ex.c ****   *            @arg OB_RDP_LEVEL_0: No protection
1161:../Resources/Drivers/STM32L4xx_HAL_Driver/Src/stm32l4xx_hal_flash_ex.c ****   *            @arg OB_RDP_LEVEL_1: Read protection of the memory
1162:../Resources/Drivers/STM32L4xx_HAL_Driver/Src/stm32l4xx_hal_flash_ex.c ****   *            @arg OB_RDP_LEVEL_2: Full chip protection
1163:../Resources/Drivers/STM32L4xx_HAL_Driver/Src/stm32l4xx_hal_flash_ex.c ****   */
1164:../Resources/Drivers/STM32L4xx_HAL_Driver/Src/stm32l4xx_hal_flash_ex.c **** static uint32_t FLASH_OB_GetRDP(void)
1165:../Resources/Drivers/STM32L4xx_HAL_Driver/Src/stm32l4xx_hal_flash_ex.c **** {
 195              		.loc 1 1165 1 is_stmt 1 view -0
 196              		.cfi_startproc
 197              		@ args = 0, pretend = 0, frame = 0
 198              		@ frame_needed = 0, uses_anonymous_args = 0
 199              		@ link register save eliminated.
1166:../Resources/Drivers/STM32L4xx_HAL_Driver/Src/stm32l4xx_hal_flash_ex.c ****   uint32_t rdp_level = READ_BIT(FLASH->OPTR, FLASH_OPTR_RDP);
 200              		.loc 1 1166 3 view .LVU55
 201              		.loc 1 1166 24 is_stmt 0 view .LVU56
 202 0000 064B     		ldr	r3, .L20
 203 0002 1B6A     		ldr	r3, [r3, #32]
 204              		.loc 1 1166 12 view .LVU57
 205 0004 DBB2     		uxtb	r3, r3
 206              	.LVL11:
1167:../Resources/Drivers/STM32L4xx_HAL_Driver/Src/stm32l4xx_hal_flash_ex.c **** 
1168:../Resources/Drivers/STM32L4xx_HAL_Driver/Src/stm32l4xx_hal_flash_ex.c ****   if ((rdp_level != OB_RDP_LEVEL_0) && (rdp_level != OB_RDP_LEVEL_2))
 207              		.loc 1 1168 3 is_stmt 1 view .LVU58
 208              		.loc 1 1168 6 is_stmt 0 view .LVU59
 209 0006 AA2B     		cmp	r3, #170
 210 0008 03D0     		beq	.L17
 211              		.loc 1 1168 37 discriminator 1 view .LVU60
 212 000a CC2B     		cmp	r3, #204
 213 000c 01D0     		beq	.L17
1169:../Resources/Drivers/STM32L4xx_HAL_Driver/Src/stm32l4xx_hal_flash_ex.c ****   {
1170:../Resources/Drivers/STM32L4xx_HAL_Driver/Src/stm32l4xx_hal_flash_ex.c ****     return (OB_RDP_LEVEL_1);
 214              		.loc 1 1170 12 view .LVU61
 215 000e BB20     		movs	r0, #187
1171:../Resources/Drivers/STM32L4xx_HAL_Driver/Src/stm32l4xx_hal_flash_ex.c ****   }
1172:../Resources/Drivers/STM32L4xx_HAL_Driver/Src/stm32l4xx_hal_flash_ex.c ****   else
1173:../Resources/Drivers/STM32L4xx_HAL_Driver/Src/stm32l4xx_hal_flash_ex.c ****   {
1174:../Resources/Drivers/STM32L4xx_HAL_Driver/Src/stm32l4xx_hal_flash_ex.c ****     return (READ_BIT(FLASH->OPTR, FLASH_OPTR_RDP));
1175:../Resources/Drivers/STM32L4xx_HAL_Driver/Src/stm32l4xx_hal_flash_ex.c ****   }
1176:../Resources/Drivers/STM32L4xx_HAL_Driver/Src/stm32l4xx_hal_flash_ex.c **** }
 216              		.loc 1 1176 1 view .LVU62
 217 0010 7047     		bx	lr
 218              	.L17:
1174:../Resources/Drivers/STM32L4xx_HAL_Driver/Src/stm32l4xx_hal_flash_ex.c ****   }
 219              		.loc 1 1174 5 is_stmt 1 view .LVU63
1174:../Resources/Drivers/STM32L4xx_HAL_Driver/Src/stm32l4xx_hal_flash_ex.c ****   }
 220              		.loc 1 1174 13 is_stmt 0 view .LVU64
 221 0012 024B     		ldr	r3, .L20
 222              	.LVL12:
1174:../Resources/Drivers/STM32L4xx_HAL_Driver/Src/stm32l4xx_hal_flash_ex.c ****   }
 223              		.loc 1 1174 13 view .LVU65
 224 0014 186A     		ldr	r0, [r3, #32]
 225 0016 C0B2     		uxtb	r0, r0
 226 0018 7047     		bx	lr
ARM GAS  /tmp/cchkkQtC.s 			page 26


 227              	.L21:
 228 001a 00BF     		.align	2
 229              	.L20:
 230 001c 00200240 		.word	1073881088
 231              		.cfi_endproc
 232              	.LFE144:
 234              		.section	.text.FLASH_OB_GetUser,"ax",%progbits
 235              		.align	1
 236              		.syntax unified
 237              		.thumb
 238              		.thumb_func
 240              	FLASH_OB_GetUser:
 241              	.LFB145:
1177:../Resources/Drivers/STM32L4xx_HAL_Driver/Src/stm32l4xx_hal_flash_ex.c **** 
1178:../Resources/Drivers/STM32L4xx_HAL_Driver/Src/stm32l4xx_hal_flash_ex.c **** /**
1179:../Resources/Drivers/STM32L4xx_HAL_Driver/Src/stm32l4xx_hal_flash_ex.c ****   * @brief  Return the FLASH User Option Byte value.
1180:../Resources/Drivers/STM32L4xx_HAL_Driver/Src/stm32l4xx_hal_flash_ex.c ****   * @retval The FLASH User Option Bytes values:
1181:../Resources/Drivers/STM32L4xx_HAL_Driver/Src/stm32l4xx_hal_flash_ex.c ****   *      For STM32L47x/STM32L48x devices :
1182:../Resources/Drivers/STM32L4xx_HAL_Driver/Src/stm32l4xx_hal_flash_ex.c ****   *         BOR_LEV(Bit8-10), nRST_STOP(Bit12), nRST_STDBY(Bit13), nRST_SHDW(Bit14),
1183:../Resources/Drivers/STM32L4xx_HAL_Driver/Src/stm32l4xx_hal_flash_ex.c ****   *         IWDG_SW(Bit16), IWDG_STOP(Bit17), IWDG_STDBY(Bit18), WWDG_SW(Bit19),
1184:../Resources/Drivers/STM32L4xx_HAL_Driver/Src/stm32l4xx_hal_flash_ex.c ****   *         BFB2(Bit20), DUALBANK(Bit21), nBOOT1(Bit23), SRAM2_PE(Bit24) and SRAM2_RST(Bit25).
1185:../Resources/Drivers/STM32L4xx_HAL_Driver/Src/stm32l4xx_hal_flash_ex.c ****   *      For STM32L43x/STM32L44x devices :
1186:../Resources/Drivers/STM32L4xx_HAL_Driver/Src/stm32l4xx_hal_flash_ex.c ****   *         BOR_LEV(Bit8-10), nRST_STOP(Bit12), nRST_STDBY(Bit13), nRST_SHDW(Bit14),
1187:../Resources/Drivers/STM32L4xx_HAL_Driver/Src/stm32l4xx_hal_flash_ex.c ****   *         IWDG_SW(Bit16), IWDG_STOP(Bit17), IWDG_STDBY(Bit18), WWDG_SW(Bit19),
1188:../Resources/Drivers/STM32L4xx_HAL_Driver/Src/stm32l4xx_hal_flash_ex.c ****   *         nBOOT1(Bit23), SRAM2_PE(Bit24), SRAM2_RST(Bit25), nSWBOOT0(Bit26) and nBOOT0(Bit27).
1189:../Resources/Drivers/STM32L4xx_HAL_Driver/Src/stm32l4xx_hal_flash_ex.c ****   */
1190:../Resources/Drivers/STM32L4xx_HAL_Driver/Src/stm32l4xx_hal_flash_ex.c **** static uint32_t FLASH_OB_GetUser(void)
1191:../Resources/Drivers/STM32L4xx_HAL_Driver/Src/stm32l4xx_hal_flash_ex.c **** {
 242              		.loc 1 1191 1 is_stmt 1 view -0
 243              		.cfi_startproc
 244              		@ args = 0, pretend = 0, frame = 0
 245              		@ frame_needed = 0, uses_anonymous_args = 0
 246              		@ link register save eliminated.
1192:../Resources/Drivers/STM32L4xx_HAL_Driver/Src/stm32l4xx_hal_flash_ex.c ****   uint32_t user_config = READ_REG(FLASH->OPTR);
 247              		.loc 1 1192 3 view .LVU67
 248              		.loc 1 1192 12 is_stmt 0 view .LVU68
 249 0000 024B     		ldr	r3, .L23
 250 0002 186A     		ldr	r0, [r3, #32]
 251              	.LVL13:
1193:../Resources/Drivers/STM32L4xx_HAL_Driver/Src/stm32l4xx_hal_flash_ex.c ****   CLEAR_BIT(user_config, FLASH_OPTR_RDP);
 252              		.loc 1 1193 3 is_stmt 1 view .LVU69
1194:../Resources/Drivers/STM32L4xx_HAL_Driver/Src/stm32l4xx_hal_flash_ex.c **** 
1195:../Resources/Drivers/STM32L4xx_HAL_Driver/Src/stm32l4xx_hal_flash_ex.c ****   return user_config;
 253              		.loc 1 1195 3 view .LVU70
1196:../Resources/Drivers/STM32L4xx_HAL_Driver/Src/stm32l4xx_hal_flash_ex.c **** }
 254              		.loc 1 1196 1 is_stmt 0 view .LVU71
 255 0004 20F0FF00 		bic	r0, r0, #255
 256              	.LVL14:
 257              		.loc 1 1196 1 view .LVU72
 258 0008 7047     		bx	lr
 259              	.L24:
 260 000a 00BF     		.align	2
 261              	.L23:
 262 000c 00200240 		.word	1073881088
 263              		.cfi_endproc
 264              	.LFE145:
 266              		.section	.text.FLASH_OB_GetPCROP,"ax",%progbits
ARM GAS  /tmp/cchkkQtC.s 			page 27


 267              		.align	1
 268              		.syntax unified
 269              		.thumb
 270              		.thumb_func
 272              	FLASH_OB_GetPCROP:
 273              	.LVL15:
 274              	.LFB146:
1197:../Resources/Drivers/STM32L4xx_HAL_Driver/Src/stm32l4xx_hal_flash_ex.c **** 
1198:../Resources/Drivers/STM32L4xx_HAL_Driver/Src/stm32l4xx_hal_flash_ex.c **** /**
1199:../Resources/Drivers/STM32L4xx_HAL_Driver/Src/stm32l4xx_hal_flash_ex.c ****   * @brief  Return the FLASH Write Protection Option Bytes value.
1200:../Resources/Drivers/STM32L4xx_HAL_Driver/Src/stm32l4xx_hal_flash_ex.c ****   *
1201:../Resources/Drivers/STM32L4xx_HAL_Driver/Src/stm32l4xx_hal_flash_ex.c ****   * @param PCROPConfig [inout]: specifies the configuration (Bank to be configured and PCROP_RDP op
1202:../Resources/Drivers/STM32L4xx_HAL_Driver/Src/stm32l4xx_hal_flash_ex.c ****   *          This parameter must be a combination of FLASH_BANK_1 or FLASH_BANK_2
1203:../Resources/Drivers/STM32L4xx_HAL_Driver/Src/stm32l4xx_hal_flash_ex.c ****   *          with OB_PCROP_RDP_NOT_ERASE or OB_PCROP_RDP_ERASE
1204:../Resources/Drivers/STM32L4xx_HAL_Driver/Src/stm32l4xx_hal_flash_ex.c ****   *
1205:../Resources/Drivers/STM32L4xx_HAL_Driver/Src/stm32l4xx_hal_flash_ex.c ****   * @param PCROPStartAddr [out]: specifies the address where to copied the start address
1206:../Resources/Drivers/STM32L4xx_HAL_Driver/Src/stm32l4xx_hal_flash_ex.c ****   *                         of the Proprietary code readout protection
1207:../Resources/Drivers/STM32L4xx_HAL_Driver/Src/stm32l4xx_hal_flash_ex.c ****   *
1208:../Resources/Drivers/STM32L4xx_HAL_Driver/Src/stm32l4xx_hal_flash_ex.c ****   * @param PCROPEndAddr [out]: specifies the address where to copied the end address of
1209:../Resources/Drivers/STM32L4xx_HAL_Driver/Src/stm32l4xx_hal_flash_ex.c ****   *                       the Proprietary code readout protection
1210:../Resources/Drivers/STM32L4xx_HAL_Driver/Src/stm32l4xx_hal_flash_ex.c ****   *
1211:../Resources/Drivers/STM32L4xx_HAL_Driver/Src/stm32l4xx_hal_flash_ex.c ****   * @retval None
1212:../Resources/Drivers/STM32L4xx_HAL_Driver/Src/stm32l4xx_hal_flash_ex.c ****   */
1213:../Resources/Drivers/STM32L4xx_HAL_Driver/Src/stm32l4xx_hal_flash_ex.c **** static void FLASH_OB_GetPCROP(uint32_t * PCROPConfig, uint32_t * PCROPStartAddr, uint32_t * PCROPEn
1214:../Resources/Drivers/STM32L4xx_HAL_Driver/Src/stm32l4xx_hal_flash_ex.c **** {
 275              		.loc 1 1214 1 is_stmt 1 view -0
 276              		.cfi_startproc
 277              		@ args = 0, pretend = 0, frame = 0
 278              		@ frame_needed = 0, uses_anonymous_args = 0
 279              		@ link register save eliminated.
 280              		.loc 1 1214 1 is_stmt 0 view .LVU74
 281 0000 70B4     		push	{r4, r5, r6}
 282              	.LCFI0:
 283              		.cfi_def_cfa_offset 12
 284              		.cfi_offset 4, -12
 285              		.cfi_offset 5, -8
 286              		.cfi_offset 6, -4
1215:../Resources/Drivers/STM32L4xx_HAL_Driver/Src/stm32l4xx_hal_flash_ex.c ****   uint32_t reg_value;
 287              		.loc 1 1215 3 is_stmt 1 view .LVU75
1216:../Resources/Drivers/STM32L4xx_HAL_Driver/Src/stm32l4xx_hal_flash_ex.c ****   uint32_t bank1_addr;
 288              		.loc 1 1216 3 view .LVU76
1217:../Resources/Drivers/STM32L4xx_HAL_Driver/Src/stm32l4xx_hal_flash_ex.c **** #if defined (STM32L471xx) || defined (STM32L475xx) || defined (STM32L476xx) || defined (STM32L485xx
1218:../Resources/Drivers/STM32L4xx_HAL_Driver/Src/stm32l4xx_hal_flash_ex.c ****     defined (STM32L496xx) || defined (STM32L4A6xx) || \
1219:../Resources/Drivers/STM32L4xx_HAL_Driver/Src/stm32l4xx_hal_flash_ex.c ****     defined (STM32L4P5xx) || defined (STM32L4Q5xx) || \
1220:../Resources/Drivers/STM32L4xx_HAL_Driver/Src/stm32l4xx_hal_flash_ex.c ****     defined (STM32L4R5xx) || defined (STM32L4R7xx) || defined (STM32L4R9xx) || defined (STM32L4S5xx
1221:../Resources/Drivers/STM32L4xx_HAL_Driver/Src/stm32l4xx_hal_flash_ex.c ****   uint32_t bank2_addr;
 289              		.loc 1 1221 3 view .LVU77
1222:../Resources/Drivers/STM32L4xx_HAL_Driver/Src/stm32l4xx_hal_flash_ex.c **** #endif
1223:../Resources/Drivers/STM32L4xx_HAL_Driver/Src/stm32l4xx_hal_flash_ex.c **** 
1224:../Resources/Drivers/STM32L4xx_HAL_Driver/Src/stm32l4xx_hal_flash_ex.c **** #if defined (STM32L471xx) || defined (STM32L475xx) || defined (STM32L476xx) || defined (STM32L485xx
1225:../Resources/Drivers/STM32L4xx_HAL_Driver/Src/stm32l4xx_hal_flash_ex.c ****     defined (STM32L496xx) || defined (STM32L4A6xx) || \
1226:../Resources/Drivers/STM32L4xx_HAL_Driver/Src/stm32l4xx_hal_flash_ex.c ****     defined (STM32L4P5xx) || defined (STM32L4Q5xx) || \
1227:../Resources/Drivers/STM32L4xx_HAL_Driver/Src/stm32l4xx_hal_flash_ex.c ****     defined (STM32L4R5xx) || defined (STM32L4R7xx) || defined (STM32L4R9xx) || defined (STM32L4S5xx
1228:../Resources/Drivers/STM32L4xx_HAL_Driver/Src/stm32l4xx_hal_flash_ex.c ****   /* Get the information about the bank swapping */
1229:../Resources/Drivers/STM32L4xx_HAL_Driver/Src/stm32l4xx_hal_flash_ex.c ****   if (READ_BIT(SYSCFG->MEMRMP, SYSCFG_MEMRMP_FB_MODE) == 0U)
 290              		.loc 1 1229 3 view .LVU78
 291              		.loc 1 1229 7 is_stmt 0 view .LVU79
ARM GAS  /tmp/cchkkQtC.s 			page 28


 292 0002 2C4B     		ldr	r3, .L35
 293 0004 1B68     		ldr	r3, [r3]
 294              		.loc 1 1229 6 view .LVU80
 295 0006 13F4807F 		tst	r3, #256
 296 000a 1ED1     		bne	.L26
1230:../Resources/Drivers/STM32L4xx_HAL_Driver/Src/stm32l4xx_hal_flash_ex.c ****   {
1231:../Resources/Drivers/STM32L4xx_HAL_Driver/Src/stm32l4xx_hal_flash_ex.c ****     bank1_addr = FLASH_BASE;
 297              		.loc 1 1231 5 is_stmt 1 view .LVU81
 298              	.LVL16:
1232:../Resources/Drivers/STM32L4xx_HAL_Driver/Src/stm32l4xx_hal_flash_ex.c ****     bank2_addr = FLASH_BASE + FLASH_BANK_SIZE;
 299              		.loc 1 1232 5 view .LVU82
 300              		.loc 1 1232 31 is_stmt 0 view .LVU83
 301 000c 2A4B     		ldr	r3, .L35+4
 302 000e D3F8E035 		ldr	r3, [r3, #1504]
 303 0012 9DB2     		uxth	r5, r3
 304              		.loc 1 1232 29 view .LVU84
 305 0014 4FF6FF74 		movw	r4, #65535
 306 0018 A542     		cmp	r5, r4
 307 001a 26D0     		beq	.L30
 308              		.loc 1 1232 31 discriminator 1 view .LVU85
 309 001c 274D     		ldr	r5, .L35+8
 310 001e 05EA4325 		and	r5, r5, r3, lsl #9
 311              		.loc 1 1232 29 discriminator 1 view .LVU86
 312 0022 05F10065 		add	r5, r5, #134217728
1231:../Resources/Drivers/STM32L4xx_HAL_Driver/Src/stm32l4xx_hal_flash_ex.c ****     bank2_addr = FLASH_BASE + FLASH_BANK_SIZE;
 313              		.loc 1 1231 16 discriminator 1 view .LVU87
 314 0026 4FF00064 		mov	r4, #134217728
 315              	.LVL17:
 316              	.L27:
1233:../Resources/Drivers/STM32L4xx_HAL_Driver/Src/stm32l4xx_hal_flash_ex.c ****   }
1234:../Resources/Drivers/STM32L4xx_HAL_Driver/Src/stm32l4xx_hal_flash_ex.c ****   else
1235:../Resources/Drivers/STM32L4xx_HAL_Driver/Src/stm32l4xx_hal_flash_ex.c ****   {
1236:../Resources/Drivers/STM32L4xx_HAL_Driver/Src/stm32l4xx_hal_flash_ex.c ****     bank1_addr = FLASH_BASE + FLASH_BANK_SIZE;
1237:../Resources/Drivers/STM32L4xx_HAL_Driver/Src/stm32l4xx_hal_flash_ex.c ****     bank2_addr = FLASH_BASE;
1238:../Resources/Drivers/STM32L4xx_HAL_Driver/Src/stm32l4xx_hal_flash_ex.c ****   }
1239:../Resources/Drivers/STM32L4xx_HAL_Driver/Src/stm32l4xx_hal_flash_ex.c **** #else
1240:../Resources/Drivers/STM32L4xx_HAL_Driver/Src/stm32l4xx_hal_flash_ex.c ****   bank1_addr = FLASH_BASE;
1241:../Resources/Drivers/STM32L4xx_HAL_Driver/Src/stm32l4xx_hal_flash_ex.c **** #endif
1242:../Resources/Drivers/STM32L4xx_HAL_Driver/Src/stm32l4xx_hal_flash_ex.c **** 
1243:../Resources/Drivers/STM32L4xx_HAL_Driver/Src/stm32l4xx_hal_flash_ex.c **** #if defined (STM32L4P5xx) || defined (STM32L4Q5xx) || defined (STM32L4R5xx) || defined (STM32L4R7xx
1244:../Resources/Drivers/STM32L4xx_HAL_Driver/Src/stm32l4xx_hal_flash_ex.c ****   if (READ_BIT(FLASH->OPTR, FLASH_OPTR_DBANK) == 0U)
1245:../Resources/Drivers/STM32L4xx_HAL_Driver/Src/stm32l4xx_hal_flash_ex.c ****   {
1246:../Resources/Drivers/STM32L4xx_HAL_Driver/Src/stm32l4xx_hal_flash_ex.c ****     if(((*PCROPConfig) & FLASH_BANK_BOTH) == FLASH_BANK_1)
1247:../Resources/Drivers/STM32L4xx_HAL_Driver/Src/stm32l4xx_hal_flash_ex.c ****     {
1248:../Resources/Drivers/STM32L4xx_HAL_Driver/Src/stm32l4xx_hal_flash_ex.c ****       reg_value       = (READ_REG(FLASH->PCROP1SR) & FLASH_PCROP1SR_PCROP1_STRT);
1249:../Resources/Drivers/STM32L4xx_HAL_Driver/Src/stm32l4xx_hal_flash_ex.c ****       *PCROPStartAddr = (reg_value << 4) + FLASH_BASE;
1250:../Resources/Drivers/STM32L4xx_HAL_Driver/Src/stm32l4xx_hal_flash_ex.c **** 
1251:../Resources/Drivers/STM32L4xx_HAL_Driver/Src/stm32l4xx_hal_flash_ex.c ****       reg_value     = (READ_REG(FLASH->PCROP1ER) & FLASH_PCROP1ER_PCROP1_END);
1252:../Resources/Drivers/STM32L4xx_HAL_Driver/Src/stm32l4xx_hal_flash_ex.c ****       *PCROPEndAddr = (reg_value << 4) + FLASH_BASE + 0xFU;
1253:../Resources/Drivers/STM32L4xx_HAL_Driver/Src/stm32l4xx_hal_flash_ex.c ****     }
1254:../Resources/Drivers/STM32L4xx_HAL_Driver/Src/stm32l4xx_hal_flash_ex.c ****     else if(((*PCROPConfig) & FLASH_BANK_BOTH) == FLASH_BANK_2)
1255:../Resources/Drivers/STM32L4xx_HAL_Driver/Src/stm32l4xx_hal_flash_ex.c ****     {
1256:../Resources/Drivers/STM32L4xx_HAL_Driver/Src/stm32l4xx_hal_flash_ex.c ****       reg_value       = (READ_REG(FLASH->PCROP2SR) & FLASH_PCROP2SR_PCROP2_STRT);
1257:../Resources/Drivers/STM32L4xx_HAL_Driver/Src/stm32l4xx_hal_flash_ex.c ****       *PCROPStartAddr = (reg_value << 4) + FLASH_BASE;
1258:../Resources/Drivers/STM32L4xx_HAL_Driver/Src/stm32l4xx_hal_flash_ex.c **** 
1259:../Resources/Drivers/STM32L4xx_HAL_Driver/Src/stm32l4xx_hal_flash_ex.c ****       reg_value     = (READ_REG(FLASH->PCROP2ER) & FLASH_PCROP2ER_PCROP2_END);
1260:../Resources/Drivers/STM32L4xx_HAL_Driver/Src/stm32l4xx_hal_flash_ex.c ****       *PCROPEndAddr = (reg_value << 4) + FLASH_BASE + 0xFU;;
ARM GAS  /tmp/cchkkQtC.s 			page 29


1261:../Resources/Drivers/STM32L4xx_HAL_Driver/Src/stm32l4xx_hal_flash_ex.c ****     }
1262:../Resources/Drivers/STM32L4xx_HAL_Driver/Src/stm32l4xx_hal_flash_ex.c ****     else
1263:../Resources/Drivers/STM32L4xx_HAL_Driver/Src/stm32l4xx_hal_flash_ex.c ****     {
1264:../Resources/Drivers/STM32L4xx_HAL_Driver/Src/stm32l4xx_hal_flash_ex.c ****       /* Nothing to do */
1265:../Resources/Drivers/STM32L4xx_HAL_Driver/Src/stm32l4xx_hal_flash_ex.c ****     }
1266:../Resources/Drivers/STM32L4xx_HAL_Driver/Src/stm32l4xx_hal_flash_ex.c ****   }
1267:../Resources/Drivers/STM32L4xx_HAL_Driver/Src/stm32l4xx_hal_flash_ex.c ****   else
1268:../Resources/Drivers/STM32L4xx_HAL_Driver/Src/stm32l4xx_hal_flash_ex.c **** #endif
1269:../Resources/Drivers/STM32L4xx_HAL_Driver/Src/stm32l4xx_hal_flash_ex.c ****   {
1270:../Resources/Drivers/STM32L4xx_HAL_Driver/Src/stm32l4xx_hal_flash_ex.c ****     if(((*PCROPConfig) & FLASH_BANK_BOTH) == FLASH_BANK_1)
 317              		.loc 1 1270 5 is_stmt 1 view .LVU88
 318              		.loc 1 1270 10 is_stmt 0 view .LVU89
 319 002a 0368     		ldr	r3, [r0]
 320              		.loc 1 1270 24 view .LVU90
 321 002c 03F00303 		and	r3, r3, #3
 322              		.loc 1 1270 7 view .LVU91
 323 0030 012B     		cmp	r3, #1
 324 0032 22D0     		beq	.L33
1271:../Resources/Drivers/STM32L4xx_HAL_Driver/Src/stm32l4xx_hal_flash_ex.c ****     {
1272:../Resources/Drivers/STM32L4xx_HAL_Driver/Src/stm32l4xx_hal_flash_ex.c ****       reg_value       = (READ_REG(FLASH->PCROP1SR) & FLASH_PCROP1SR_PCROP1_STRT);
1273:../Resources/Drivers/STM32L4xx_HAL_Driver/Src/stm32l4xx_hal_flash_ex.c ****       *PCROPStartAddr = (reg_value << 3) + bank1_addr;
1274:../Resources/Drivers/STM32L4xx_HAL_Driver/Src/stm32l4xx_hal_flash_ex.c **** 
1275:../Resources/Drivers/STM32L4xx_HAL_Driver/Src/stm32l4xx_hal_flash_ex.c ****       reg_value     = (READ_REG(FLASH->PCROP1ER) & FLASH_PCROP1ER_PCROP1_END);
1276:../Resources/Drivers/STM32L4xx_HAL_Driver/Src/stm32l4xx_hal_flash_ex.c ****       *PCROPEndAddr = (reg_value << 3) + bank1_addr + 0x7U;
1277:../Resources/Drivers/STM32L4xx_HAL_Driver/Src/stm32l4xx_hal_flash_ex.c ****     }
1278:../Resources/Drivers/STM32L4xx_HAL_Driver/Src/stm32l4xx_hal_flash_ex.c **** #if defined (STM32L471xx) || defined (STM32L475xx) || defined (STM32L476xx) || defined (STM32L485xx
1279:../Resources/Drivers/STM32L4xx_HAL_Driver/Src/stm32l4xx_hal_flash_ex.c ****     defined (STM32L496xx) || defined (STM32L4A6xx) || \
1280:../Resources/Drivers/STM32L4xx_HAL_Driver/Src/stm32l4xx_hal_flash_ex.c ****     defined (STM32L4P5xx) || defined (STM32L4Q5xx) || \
1281:../Resources/Drivers/STM32L4xx_HAL_Driver/Src/stm32l4xx_hal_flash_ex.c ****     defined (STM32L4R5xx) || defined (STM32L4R7xx) || defined (STM32L4R9xx) || defined (STM32L4S5xx
1282:../Resources/Drivers/STM32L4xx_HAL_Driver/Src/stm32l4xx_hal_flash_ex.c ****     else if(((*PCROPConfig) & FLASH_BANK_BOTH) == FLASH_BANK_2)
 325              		.loc 1 1282 10 is_stmt 1 view .LVU92
 326              		.loc 1 1282 12 is_stmt 0 view .LVU93
 327 0034 022B     		cmp	r3, #2
 328 0036 2ED0     		beq	.L34
 329              	.LVL18:
 330              	.L29:
1283:../Resources/Drivers/STM32L4xx_HAL_Driver/Src/stm32l4xx_hal_flash_ex.c ****     {
1284:../Resources/Drivers/STM32L4xx_HAL_Driver/Src/stm32l4xx_hal_flash_ex.c ****       reg_value       = (READ_REG(FLASH->PCROP2SR) & FLASH_PCROP2SR_PCROP2_STRT);
1285:../Resources/Drivers/STM32L4xx_HAL_Driver/Src/stm32l4xx_hal_flash_ex.c ****       *PCROPStartAddr = (reg_value << 3) + bank2_addr;
1286:../Resources/Drivers/STM32L4xx_HAL_Driver/Src/stm32l4xx_hal_flash_ex.c **** 
1287:../Resources/Drivers/STM32L4xx_HAL_Driver/Src/stm32l4xx_hal_flash_ex.c ****       reg_value     = (READ_REG(FLASH->PCROP2ER) & FLASH_PCROP2ER_PCROP2_END);
1288:../Resources/Drivers/STM32L4xx_HAL_Driver/Src/stm32l4xx_hal_flash_ex.c ****       *PCROPEndAddr = (reg_value << 3) + bank2_addr + 0x7U;
1289:../Resources/Drivers/STM32L4xx_HAL_Driver/Src/stm32l4xx_hal_flash_ex.c ****     }
1290:../Resources/Drivers/STM32L4xx_HAL_Driver/Src/stm32l4xx_hal_flash_ex.c **** #endif
1291:../Resources/Drivers/STM32L4xx_HAL_Driver/Src/stm32l4xx_hal_flash_ex.c ****     else
1292:../Resources/Drivers/STM32L4xx_HAL_Driver/Src/stm32l4xx_hal_flash_ex.c ****     {
1293:../Resources/Drivers/STM32L4xx_HAL_Driver/Src/stm32l4xx_hal_flash_ex.c ****       /* Nothing to do */
1294:../Resources/Drivers/STM32L4xx_HAL_Driver/Src/stm32l4xx_hal_flash_ex.c ****     }
 331              		.loc 1 1294 5 is_stmt 1 view .LVU94
1295:../Resources/Drivers/STM32L4xx_HAL_Driver/Src/stm32l4xx_hal_flash_ex.c ****   }
1296:../Resources/Drivers/STM32L4xx_HAL_Driver/Src/stm32l4xx_hal_flash_ex.c **** 
1297:../Resources/Drivers/STM32L4xx_HAL_Driver/Src/stm32l4xx_hal_flash_ex.c ****   *PCROPConfig |= (READ_REG(FLASH->PCROP1ER) & FLASH_PCROP1ER_PCROP_RDP);
 332              		.loc 1 1297 3 view .LVU95
 333              		.loc 1 1297 20 is_stmt 0 view .LVU96
 334 0038 214B     		ldr	r3, .L35+12
 335 003a 9A6A     		ldr	r2, [r3, #40]
 336              	.LVL19:
ARM GAS  /tmp/cchkkQtC.s 			page 30


 337              		.loc 1 1297 46 view .LVU97
 338 003c 02F00042 		and	r2, r2, #-2147483648
 339              		.loc 1 1297 16 view .LVU98
 340 0040 0368     		ldr	r3, [r0]
 341 0042 1343     		orrs	r3, r3, r2
 342 0044 0360     		str	r3, [r0]
1298:../Resources/Drivers/STM32L4xx_HAL_Driver/Src/stm32l4xx_hal_flash_ex.c **** }
 343              		.loc 1 1298 1 view .LVU99
 344 0046 70BC     		pop	{r4, r5, r6}
 345              	.LCFI1:
 346              		.cfi_remember_state
 347              		.cfi_restore 6
 348              		.cfi_restore 5
 349              		.cfi_restore 4
 350              		.cfi_def_cfa_offset 0
 351 0048 7047     		bx	lr
 352              	.LVL20:
 353              	.L26:
 354              	.LCFI2:
 355              		.cfi_restore_state
1236:../Resources/Drivers/STM32L4xx_HAL_Driver/Src/stm32l4xx_hal_flash_ex.c ****     bank2_addr = FLASH_BASE;
 356              		.loc 1 1236 5 is_stmt 1 view .LVU100
1236:../Resources/Drivers/STM32L4xx_HAL_Driver/Src/stm32l4xx_hal_flash_ex.c ****     bank2_addr = FLASH_BASE;
 357              		.loc 1 1236 31 is_stmt 0 view .LVU101
 358 004a 1B4B     		ldr	r3, .L35+4
 359 004c D3F8E045 		ldr	r4, [r3, #1504]
 360 0050 A5B2     		uxth	r5, r4
1236:../Resources/Drivers/STM32L4xx_HAL_Driver/Src/stm32l4xx_hal_flash_ex.c ****     bank2_addr = FLASH_BASE;
 361              		.loc 1 1236 29 view .LVU102
 362 0052 4FF6FF73 		movw	r3, #65535
 363 0056 9D42     		cmp	r5, r3
 364 0058 0BD0     		beq	.L31
1236:../Resources/Drivers/STM32L4xx_HAL_Driver/Src/stm32l4xx_hal_flash_ex.c ****     bank2_addr = FLASH_BASE;
 365              		.loc 1 1236 31 discriminator 1 view .LVU103
 366 005a 184B     		ldr	r3, .L35+8
 367 005c 03EA4423 		and	r3, r3, r4, lsl #9
1236:../Resources/Drivers/STM32L4xx_HAL_Driver/Src/stm32l4xx_hal_flash_ex.c ****     bank2_addr = FLASH_BASE;
 368              		.loc 1 1236 29 discriminator 1 view .LVU104
 369 0060 03F10064 		add	r4, r3, #134217728
1237:../Resources/Drivers/STM32L4xx_HAL_Driver/Src/stm32l4xx_hal_flash_ex.c ****   }
 370              		.loc 1 1237 16 discriminator 1 view .LVU105
 371 0064 4FF00065 		mov	r5, #134217728
 372 0068 DFE7     		b	.L27
 373              	.LVL21:
 374              	.L30:
1232:../Resources/Drivers/STM32L4xx_HAL_Driver/Src/stm32l4xx_hal_flash_ex.c ****   }
 375              		.loc 1 1232 29 view .LVU106
 376 006a 164D     		ldr	r5, .L35+16
1231:../Resources/Drivers/STM32L4xx_HAL_Driver/Src/stm32l4xx_hal_flash_ex.c ****     bank2_addr = FLASH_BASE + FLASH_BANK_SIZE;
 377              		.loc 1 1231 16 view .LVU107
 378 006c 4FF00064 		mov	r4, #134217728
 379 0070 DBE7     		b	.L27
 380              	.LVL22:
 381              	.L31:
1237:../Resources/Drivers/STM32L4xx_HAL_Driver/Src/stm32l4xx_hal_flash_ex.c ****   }
 382              		.loc 1 1237 16 view .LVU108
 383 0072 4FF00065 		mov	r5, #134217728
ARM GAS  /tmp/cchkkQtC.s 			page 31


1236:../Resources/Drivers/STM32L4xx_HAL_Driver/Src/stm32l4xx_hal_flash_ex.c ****     bank2_addr = FLASH_BASE;
 384              		.loc 1 1236 29 view .LVU109
 385 0076 134C     		ldr	r4, .L35+16
 386 0078 D7E7     		b	.L27
 387              	.LVL23:
 388              	.L33:
1272:../Resources/Drivers/STM32L4xx_HAL_Driver/Src/stm32l4xx_hal_flash_ex.c ****       *PCROPStartAddr = (reg_value << 3) + bank1_addr;
 389              		.loc 1 1272 7 is_stmt 1 view .LVU110
1272:../Resources/Drivers/STM32L4xx_HAL_Driver/Src/stm32l4xx_hal_flash_ex.c ****       *PCROPStartAddr = (reg_value << 3) + bank1_addr;
 390              		.loc 1 1272 26 is_stmt 0 view .LVU111
 391 007a 114E     		ldr	r6, .L35+12
 392 007c 756A     		ldr	r5, [r6, #36]
 393              	.LVL24:
1273:../Resources/Drivers/STM32L4xx_HAL_Driver/Src/stm32l4xx_hal_flash_ex.c **** 
 394              		.loc 1 1273 7 is_stmt 1 view .LVU112
1273:../Resources/Drivers/STM32L4xx_HAL_Driver/Src/stm32l4xx_hal_flash_ex.c **** 
 395              		.loc 1 1273 36 is_stmt 0 view .LVU113
 396 007e 124B     		ldr	r3, .L35+20
 397 0080 03EAC505 		and	r5, r3, r5, lsl #3
 398              	.LVL25:
1273:../Resources/Drivers/STM32L4xx_HAL_Driver/Src/stm32l4xx_hal_flash_ex.c **** 
 399              		.loc 1 1273 42 view .LVU114
 400 0084 2544     		add	r5, r5, r4
1273:../Resources/Drivers/STM32L4xx_HAL_Driver/Src/stm32l4xx_hal_flash_ex.c **** 
 401              		.loc 1 1273 23 view .LVU115
 402 0086 0D60     		str	r5, [r1]
1275:../Resources/Drivers/STM32L4xx_HAL_Driver/Src/stm32l4xx_hal_flash_ex.c ****       *PCROPEndAddr = (reg_value << 3) + bank1_addr + 0x7U;
 403              		.loc 1 1275 7 is_stmt 1 view .LVU116
1275:../Resources/Drivers/STM32L4xx_HAL_Driver/Src/stm32l4xx_hal_flash_ex.c ****       *PCROPEndAddr = (reg_value << 3) + bank1_addr + 0x7U;
 404              		.loc 1 1275 24 is_stmt 0 view .LVU117
 405 0088 B16A     		ldr	r1, [r6, #40]
 406              	.LVL26:
1276:../Resources/Drivers/STM32L4xx_HAL_Driver/Src/stm32l4xx_hal_flash_ex.c ****     }
 407              		.loc 1 1276 7 is_stmt 1 view .LVU118
1276:../Resources/Drivers/STM32L4xx_HAL_Driver/Src/stm32l4xx_hal_flash_ex.c ****     }
 408              		.loc 1 1276 34 is_stmt 0 view .LVU119
 409 008a 03EAC103 		and	r3, r3, r1, lsl #3
1276:../Resources/Drivers/STM32L4xx_HAL_Driver/Src/stm32l4xx_hal_flash_ex.c ****     }
 410              		.loc 1 1276 40 view .LVU120
 411 008e 2344     		add	r3, r3, r4
1276:../Resources/Drivers/STM32L4xx_HAL_Driver/Src/stm32l4xx_hal_flash_ex.c ****     }
 412              		.loc 1 1276 53 view .LVU121
 413 0090 0733     		adds	r3, r3, #7
1276:../Resources/Drivers/STM32L4xx_HAL_Driver/Src/stm32l4xx_hal_flash_ex.c ****     }
 414              		.loc 1 1276 21 view .LVU122
 415 0092 1360     		str	r3, [r2]
 416 0094 D0E7     		b	.L29
 417              	.LVL27:
 418              	.L34:
1284:../Resources/Drivers/STM32L4xx_HAL_Driver/Src/stm32l4xx_hal_flash_ex.c ****       *PCROPStartAddr = (reg_value << 3) + bank2_addr;
 419              		.loc 1 1284 7 is_stmt 1 view .LVU123
1284:../Resources/Drivers/STM32L4xx_HAL_Driver/Src/stm32l4xx_hal_flash_ex.c ****       *PCROPStartAddr = (reg_value << 3) + bank2_addr;
 420              		.loc 1 1284 26 is_stmt 0 view .LVU124
 421 0096 0A4E     		ldr	r6, .L35+12
 422 0098 746C     		ldr	r4, [r6, #68]
 423              	.LVL28:
1285:../Resources/Drivers/STM32L4xx_HAL_Driver/Src/stm32l4xx_hal_flash_ex.c **** 
ARM GAS  /tmp/cchkkQtC.s 			page 32


 424              		.loc 1 1285 7 is_stmt 1 view .LVU125
1285:../Resources/Drivers/STM32L4xx_HAL_Driver/Src/stm32l4xx_hal_flash_ex.c **** 
 425              		.loc 1 1285 36 is_stmt 0 view .LVU126
 426 009a 0B4B     		ldr	r3, .L35+20
 427 009c 03EAC404 		and	r4, r3, r4, lsl #3
 428              	.LVL29:
1285:../Resources/Drivers/STM32L4xx_HAL_Driver/Src/stm32l4xx_hal_flash_ex.c **** 
 429              		.loc 1 1285 42 view .LVU127
 430 00a0 2C44     		add	r4, r4, r5
1285:../Resources/Drivers/STM32L4xx_HAL_Driver/Src/stm32l4xx_hal_flash_ex.c **** 
 431              		.loc 1 1285 23 view .LVU128
 432 00a2 0C60     		str	r4, [r1]
1287:../Resources/Drivers/STM32L4xx_HAL_Driver/Src/stm32l4xx_hal_flash_ex.c ****       *PCROPEndAddr = (reg_value << 3) + bank2_addr + 0x7U;
 433              		.loc 1 1287 7 is_stmt 1 view .LVU129
1287:../Resources/Drivers/STM32L4xx_HAL_Driver/Src/stm32l4xx_hal_flash_ex.c ****       *PCROPEndAddr = (reg_value << 3) + bank2_addr + 0x7U;
 434              		.loc 1 1287 24 is_stmt 0 view .LVU130
 435 00a4 B16C     		ldr	r1, [r6, #72]
 436              	.LVL30:
1288:../Resources/Drivers/STM32L4xx_HAL_Driver/Src/stm32l4xx_hal_flash_ex.c ****     }
 437              		.loc 1 1288 7 is_stmt 1 view .LVU131
1288:../Resources/Drivers/STM32L4xx_HAL_Driver/Src/stm32l4xx_hal_flash_ex.c ****     }
 438              		.loc 1 1288 34 is_stmt 0 view .LVU132
 439 00a6 03EAC103 		and	r3, r3, r1, lsl #3
1288:../Resources/Drivers/STM32L4xx_HAL_Driver/Src/stm32l4xx_hal_flash_ex.c ****     }
 440              		.loc 1 1288 40 view .LVU133
 441 00aa 1D44     		add	r5, r5, r3
 442              	.LVL31:
1288:../Resources/Drivers/STM32L4xx_HAL_Driver/Src/stm32l4xx_hal_flash_ex.c ****     }
 443              		.loc 1 1288 53 view .LVU134
 444 00ac 0735     		adds	r5, r5, #7
1288:../Resources/Drivers/STM32L4xx_HAL_Driver/Src/stm32l4xx_hal_flash_ex.c ****     }
 445              		.loc 1 1288 21 view .LVU135
 446 00ae 1560     		str	r5, [r2]
 447 00b0 C2E7     		b	.L29
 448              	.L36:
 449 00b2 00BF     		.align	2
 450              	.L35:
 451 00b4 00000140 		.word	1073807360
 452 00b8 0070FF1F 		.word	536834048
 453 00bc 00FEFF01 		.word	33553920
 454 00c0 00200240 		.word	1073881088
 455 00c4 00000808 		.word	134742016
 456 00c8 F8FF0700 		.word	524280
 457              		.cfi_endproc
 458              	.LFE146:
 460              		.section	.text.FLASH_OB_WRPConfig,"ax",%progbits
 461              		.align	1
 462              		.syntax unified
 463              		.thumb
 464              		.thumb_func
 466              	FLASH_OB_WRPConfig:
 467              	.LVL32:
 468              	.LFB139:
 652:../Resources/Drivers/STM32L4xx_HAL_Driver/Src/stm32l4xx_hal_flash_ex.c ****   HAL_StatusTypeDef status;
 469              		.loc 1 652 1 is_stmt 1 view -0
 470              		.cfi_startproc
 471              		@ args = 0, pretend = 0, frame = 0
ARM GAS  /tmp/cchkkQtC.s 			page 33


 472              		@ frame_needed = 0, uses_anonymous_args = 0
 652:../Resources/Drivers/STM32L4xx_HAL_Driver/Src/stm32l4xx_hal_flash_ex.c ****   HAL_StatusTypeDef status;
 473              		.loc 1 652 1 is_stmt 0 view .LVU137
 474 0000 70B5     		push	{r4, r5, r6, lr}
 475              	.LCFI3:
 476              		.cfi_def_cfa_offset 16
 477              		.cfi_offset 4, -16
 478              		.cfi_offset 5, -12
 479              		.cfi_offset 6, -8
 480              		.cfi_offset 14, -4
 481 0002 0446     		mov	r4, r0
 482 0004 0E46     		mov	r6, r1
 483 0006 1546     		mov	r5, r2
 653:../Resources/Drivers/STM32L4xx_HAL_Driver/Src/stm32l4xx_hal_flash_ex.c **** 
 484              		.loc 1 653 3 is_stmt 1 view .LVU138
 656:../Resources/Drivers/STM32L4xx_HAL_Driver/Src/stm32l4xx_hal_flash_ex.c ****   assert_param(IS_FLASH_PAGE(WRPStartOffset));
 485              		.loc 1 656 3 view .LVU139
 657:../Resources/Drivers/STM32L4xx_HAL_Driver/Src/stm32l4xx_hal_flash_ex.c ****   assert_param(IS_FLASH_PAGE(WRDPEndOffset));
 486              		.loc 1 657 3 view .LVU140
 658:../Resources/Drivers/STM32L4xx_HAL_Driver/Src/stm32l4xx_hal_flash_ex.c **** 
 487              		.loc 1 658 3 view .LVU141
 661:../Resources/Drivers/STM32L4xx_HAL_Driver/Src/stm32l4xx_hal_flash_ex.c **** 
 488              		.loc 1 661 3 view .LVU142
 661:../Resources/Drivers/STM32L4xx_HAL_Driver/Src/stm32l4xx_hal_flash_ex.c **** 
 489              		.loc 1 661 12 is_stmt 0 view .LVU143
 490 0008 4CF25030 		movw	r0, #50000
 491              	.LVL33:
 661:../Resources/Drivers/STM32L4xx_HAL_Driver/Src/stm32l4xx_hal_flash_ex.c **** 
 492              		.loc 1 661 12 view .LVU144
 493 000c FFF7FEFF 		bl	FLASH_WaitForLastOperation
 494              	.LVL34:
 663:../Resources/Drivers/STM32L4xx_HAL_Driver/Src/stm32l4xx_hal_flash_ex.c ****   {
 495              		.loc 1 663 3 is_stmt 1 view .LVU145
 663:../Resources/Drivers/STM32L4xx_HAL_Driver/Src/stm32l4xx_hal_flash_ex.c ****   {
 496              		.loc 1 663 5 is_stmt 0 view .LVU146
 497 0010 A8B9     		cbnz	r0, .L38
 666:../Resources/Drivers/STM32L4xx_HAL_Driver/Src/stm32l4xx_hal_flash_ex.c ****     {
 498              		.loc 1 666 5 is_stmt 1 view .LVU147
 666:../Resources/Drivers/STM32L4xx_HAL_Driver/Src/stm32l4xx_hal_flash_ex.c ****     {
 499              		.loc 1 666 7 is_stmt 0 view .LVU148
 500 0012 ACB9     		cbnz	r4, .L39
 668:../Resources/Drivers/STM32L4xx_HAL_Driver/Src/stm32l4xx_hal_flash_ex.c ****                  (WRPStartOffset | (WRDPEndOffset << 16)));
 501              		.loc 1 668 7 is_stmt 1 view .LVU149
 502 0014 1B48     		ldr	r0, .L46
 503 0016 C36A     		ldr	r3, [r0, #44]
 504 0018 03F0FF23 		and	r3, r3, #-16711936
 505 001c 46EA0542 		orr	r2, r6, r5, lsl #16
 506 0020 1A43     		orrs	r2, r2, r3
 507 0022 C262     		str	r2, [r0, #44]
 508              	.L40:
 694:../Resources/Drivers/STM32L4xx_HAL_Driver/Src/stm32l4xx_hal_flash_ex.c **** 
 509              		.loc 1 694 5 view .LVU150
 697:../Resources/Drivers/STM32L4xx_HAL_Driver/Src/stm32l4xx_hal_flash_ex.c **** 
 510              		.loc 1 697 5 view .LVU151
 511 0024 174C     		ldr	r4, .L46
 512              	.LVL35:
 697:../Resources/Drivers/STM32L4xx_HAL_Driver/Src/stm32l4xx_hal_flash_ex.c **** 
ARM GAS  /tmp/cchkkQtC.s 			page 34


 513              		.loc 1 697 5 is_stmt 0 view .LVU152
 514 0026 6369     		ldr	r3, [r4, #20]
 515 0028 43F40033 		orr	r3, r3, #131072
 516 002c 6361     		str	r3, [r4, #20]
 700:../Resources/Drivers/STM32L4xx_HAL_Driver/Src/stm32l4xx_hal_flash_ex.c **** 
 517              		.loc 1 700 5 is_stmt 1 view .LVU153
 700:../Resources/Drivers/STM32L4xx_HAL_Driver/Src/stm32l4xx_hal_flash_ex.c **** 
 518              		.loc 1 700 14 is_stmt 0 view .LVU154
 519 002e 4CF25030 		movw	r0, #50000
 520 0032 FFF7FEFF 		bl	FLASH_WaitForLastOperation
 521              	.LVL36:
 703:../Resources/Drivers/STM32L4xx_HAL_Driver/Src/stm32l4xx_hal_flash_ex.c ****   }
 522              		.loc 1 703 5 is_stmt 1 view .LVU155
 523 0036 6369     		ldr	r3, [r4, #20]
 524 0038 23F40033 		bic	r3, r3, #131072
 525 003c 6361     		str	r3, [r4, #20]
 526              	.LVL37:
 527              	.L38:
 706:../Resources/Drivers/STM32L4xx_HAL_Driver/Src/stm32l4xx_hal_flash_ex.c **** }
 528              		.loc 1 706 3 view .LVU156
 707:../Resources/Drivers/STM32L4xx_HAL_Driver/Src/stm32l4xx_hal_flash_ex.c **** 
 529              		.loc 1 707 1 is_stmt 0 view .LVU157
 530 003e 70BD     		pop	{r4, r5, r6, pc}
 531              	.LVL38:
 532              	.L39:
 671:../Resources/Drivers/STM32L4xx_HAL_Driver/Src/stm32l4xx_hal_flash_ex.c ****     {
 533              		.loc 1 671 10 is_stmt 1 view .LVU158
 671:../Resources/Drivers/STM32L4xx_HAL_Driver/Src/stm32l4xx_hal_flash_ex.c ****     {
 534              		.loc 1 671 12 is_stmt 0 view .LVU159
 535 0040 012C     		cmp	r4, #1
 536 0042 0CD0     		beq	.L44
 680:../Resources/Drivers/STM32L4xx_HAL_Driver/Src/stm32l4xx_hal_flash_ex.c ****     {
 537              		.loc 1 680 10 is_stmt 1 view .LVU160
 680:../Resources/Drivers/STM32L4xx_HAL_Driver/Src/stm32l4xx_hal_flash_ex.c ****     {
 538              		.loc 1 680 12 is_stmt 0 view .LVU161
 539 0044 022C     		cmp	r4, #2
 540 0046 13D0     		beq	.L45
 685:../Resources/Drivers/STM32L4xx_HAL_Driver/Src/stm32l4xx_hal_flash_ex.c ****     {
 541              		.loc 1 685 10 is_stmt 1 view .LVU162
 685:../Resources/Drivers/STM32L4xx_HAL_Driver/Src/stm32l4xx_hal_flash_ex.c ****     {
 542              		.loc 1 685 12 is_stmt 0 view .LVU163
 543 0048 042C     		cmp	r4, #4
 544 004a EBD1     		bne	.L40
 687:../Resources/Drivers/STM32L4xx_HAL_Driver/Src/stm32l4xx_hal_flash_ex.c ****                  (WRPStartOffset | (WRDPEndOffset << 16)));
 545              		.loc 1 687 7 is_stmt 1 view .LVU164
 546 004c 0D49     		ldr	r1, .L46
 547 004e 0B6D     		ldr	r3, [r1, #80]
 548 0050 03F0FF23 		and	r3, r3, #-16711936
 549 0054 46EA0542 		orr	r2, r6, r5, lsl #16
 550 0058 1A43     		orrs	r2, r2, r3
 551 005a 0A65     		str	r2, [r1, #80]
 552 005c E2E7     		b	.L40
 553              	.L44:
 673:../Resources/Drivers/STM32L4xx_HAL_Driver/Src/stm32l4xx_hal_flash_ex.c ****                  (WRPStartOffset | (WRDPEndOffset << 16)));
 554              		.loc 1 673 7 view .LVU165
 555 005e 0948     		ldr	r0, .L46
 556 0060 036B     		ldr	r3, [r0, #48]
ARM GAS  /tmp/cchkkQtC.s 			page 35


 557 0062 03F0FF23 		and	r3, r3, #-16711936
 558 0066 46EA0542 		orr	r2, r6, r5, lsl #16
 559 006a 1A43     		orrs	r2, r2, r3
 560 006c 0263     		str	r2, [r0, #48]
 561 006e D9E7     		b	.L40
 562              	.L45:
 682:../Resources/Drivers/STM32L4xx_HAL_Driver/Src/stm32l4xx_hal_flash_ex.c ****                  (WRPStartOffset | (WRDPEndOffset << 16)));
 563              		.loc 1 682 7 view .LVU166
 564 0070 0448     		ldr	r0, .L46
 565 0072 C36C     		ldr	r3, [r0, #76]
 566 0074 03F0FF23 		and	r3, r3, #-16711936
 567 0078 46EA0542 		orr	r2, r6, r5, lsl #16
 568 007c 1A43     		orrs	r2, r2, r3
 569 007e C264     		str	r2, [r0, #76]
 570 0080 D0E7     		b	.L40
 571              	.L47:
 572 0082 00BF     		.align	2
 573              	.L46:
 574 0084 00200240 		.word	1073881088
 575              		.cfi_endproc
 576              	.LFE139:
 578              		.section	.text.FLASH_OB_RDPConfig,"ax",%progbits
 579              		.align	1
 580              		.syntax unified
 581              		.thumb
 582              		.thumb_func
 584              	FLASH_OB_RDPConfig:
 585              	.LVL39:
 586              	.LFB140:
 728:../Resources/Drivers/STM32L4xx_HAL_Driver/Src/stm32l4xx_hal_flash_ex.c ****   HAL_StatusTypeDef status;
 587              		.loc 1 728 1 view -0
 588              		.cfi_startproc
 589              		@ args = 0, pretend = 0, frame = 0
 590              		@ frame_needed = 0, uses_anonymous_args = 0
 728:../Resources/Drivers/STM32L4xx_HAL_Driver/Src/stm32l4xx_hal_flash_ex.c ****   HAL_StatusTypeDef status;
 591              		.loc 1 728 1 is_stmt 0 view .LVU168
 592 0000 38B5     		push	{r3, r4, r5, lr}
 593              	.LCFI4:
 594              		.cfi_def_cfa_offset 16
 595              		.cfi_offset 3, -16
 596              		.cfi_offset 4, -12
 597              		.cfi_offset 5, -8
 598              		.cfi_offset 14, -4
 599 0002 0446     		mov	r4, r0
 729:../Resources/Drivers/STM32L4xx_HAL_Driver/Src/stm32l4xx_hal_flash_ex.c **** 
 600              		.loc 1 729 3 is_stmt 1 view .LVU169
 732:../Resources/Drivers/STM32L4xx_HAL_Driver/Src/stm32l4xx_hal_flash_ex.c **** 
 601              		.loc 1 732 3 view .LVU170
 735:../Resources/Drivers/STM32L4xx_HAL_Driver/Src/stm32l4xx_hal_flash_ex.c **** 
 602              		.loc 1 735 3 view .LVU171
 735:../Resources/Drivers/STM32L4xx_HAL_Driver/Src/stm32l4xx_hal_flash_ex.c **** 
 603              		.loc 1 735 12 is_stmt 0 view .LVU172
 604 0004 4CF25030 		movw	r0, #50000
 605              	.LVL40:
 735:../Resources/Drivers/STM32L4xx_HAL_Driver/Src/stm32l4xx_hal_flash_ex.c **** 
 606              		.loc 1 735 12 view .LVU173
 607 0008 FFF7FEFF 		bl	FLASH_WaitForLastOperation
ARM GAS  /tmp/cchkkQtC.s 			page 36


 608              	.LVL41:
 737:../Resources/Drivers/STM32L4xx_HAL_Driver/Src/stm32l4xx_hal_flash_ex.c ****   {
 609              		.loc 1 737 3 is_stmt 1 view .LVU174
 737:../Resources/Drivers/STM32L4xx_HAL_Driver/Src/stm32l4xx_hal_flash_ex.c ****   {
 610              		.loc 1 737 5 is_stmt 0 view .LVU175
 611 000c 00B1     		cbz	r0, .L51
 612              	.L49:
 613              	.LVL42:
 752:../Resources/Drivers/STM32L4xx_HAL_Driver/Src/stm32l4xx_hal_flash_ex.c **** }
 614              		.loc 1 752 3 is_stmt 1 view .LVU176
 753:../Resources/Drivers/STM32L4xx_HAL_Driver/Src/stm32l4xx_hal_flash_ex.c **** 
 615              		.loc 1 753 1 is_stmt 0 view .LVU177
 616 000e 38BD     		pop	{r3, r4, r5, pc}
 617              	.LVL43:
 618              	.L51:
 740:../Resources/Drivers/STM32L4xx_HAL_Driver/Src/stm32l4xx_hal_flash_ex.c **** 
 619              		.loc 1 740 5 is_stmt 1 view .LVU178
 620 0010 094D     		ldr	r5, .L52
 621 0012 286A     		ldr	r0, [r5, #32]
 622 0014 20F0FF00 		bic	r0, r0, #255
 623 0018 2043     		orrs	r0, r0, r4
 624 001a 2862     		str	r0, [r5, #32]
 743:../Resources/Drivers/STM32L4xx_HAL_Driver/Src/stm32l4xx_hal_flash_ex.c **** 
 625              		.loc 1 743 5 view .LVU179
 626 001c 6B69     		ldr	r3, [r5, #20]
 627 001e 43F40033 		orr	r3, r3, #131072
 628 0022 6B61     		str	r3, [r5, #20]
 746:../Resources/Drivers/STM32L4xx_HAL_Driver/Src/stm32l4xx_hal_flash_ex.c **** 
 629              		.loc 1 746 5 view .LVU180
 746:../Resources/Drivers/STM32L4xx_HAL_Driver/Src/stm32l4xx_hal_flash_ex.c **** 
 630              		.loc 1 746 14 is_stmt 0 view .LVU181
 631 0024 4CF25030 		movw	r0, #50000
 632 0028 FFF7FEFF 		bl	FLASH_WaitForLastOperation
 633              	.LVL44:
 749:../Resources/Drivers/STM32L4xx_HAL_Driver/Src/stm32l4xx_hal_flash_ex.c ****   }
 634              		.loc 1 749 5 is_stmt 1 view .LVU182
 635 002c 6B69     		ldr	r3, [r5, #20]
 636 002e 23F40033 		bic	r3, r3, #131072
 637 0032 6B61     		str	r3, [r5, #20]
 638 0034 EBE7     		b	.L49
 639              	.L53:
 640 0036 00BF     		.align	2
 641              	.L52:
 642 0038 00200240 		.word	1073881088
 643              		.cfi_endproc
 644              	.LFE140:
 646              		.section	.text.FLASH_OB_UserConfig,"ax",%progbits
 647              		.align	1
 648              		.syntax unified
 649              		.thumb
 650              		.thumb_func
 652              	FLASH_OB_UserConfig:
 653              	.LVL45:
 654              	.LFB141:
 772:../Resources/Drivers/STM32L4xx_HAL_Driver/Src/stm32l4xx_hal_flash_ex.c ****   uint32_t optr_reg_val = 0;
 655              		.loc 1 772 1 view -0
 656              		.cfi_startproc
ARM GAS  /tmp/cchkkQtC.s 			page 37


 657              		@ args = 0, pretend = 0, frame = 0
 658              		@ frame_needed = 0, uses_anonymous_args = 0
 772:../Resources/Drivers/STM32L4xx_HAL_Driver/Src/stm32l4xx_hal_flash_ex.c ****   uint32_t optr_reg_val = 0;
 659              		.loc 1 772 1 is_stmt 0 view .LVU184
 660 0000 38B5     		push	{r3, r4, r5, lr}
 661              	.LCFI5:
 662              		.cfi_def_cfa_offset 16
 663              		.cfi_offset 3, -16
 664              		.cfi_offset 4, -12
 665              		.cfi_offset 5, -8
 666              		.cfi_offset 14, -4
 667 0002 0446     		mov	r4, r0
 668 0004 0D46     		mov	r5, r1
 773:../Resources/Drivers/STM32L4xx_HAL_Driver/Src/stm32l4xx_hal_flash_ex.c ****   uint32_t optr_reg_mask = 0;
 669              		.loc 1 773 3 is_stmt 1 view .LVU185
 670              	.LVL46:
 774:../Resources/Drivers/STM32L4xx_HAL_Driver/Src/stm32l4xx_hal_flash_ex.c ****   HAL_StatusTypeDef status;
 671              		.loc 1 774 3 view .LVU186
 775:../Resources/Drivers/STM32L4xx_HAL_Driver/Src/stm32l4xx_hal_flash_ex.c **** 
 672              		.loc 1 775 3 view .LVU187
 778:../Resources/Drivers/STM32L4xx_HAL_Driver/Src/stm32l4xx_hal_flash_ex.c **** 
 673              		.loc 1 778 3 view .LVU188
 781:../Resources/Drivers/STM32L4xx_HAL_Driver/Src/stm32l4xx_hal_flash_ex.c **** 
 674              		.loc 1 781 3 view .LVU189
 781:../Resources/Drivers/STM32L4xx_HAL_Driver/Src/stm32l4xx_hal_flash_ex.c **** 
 675              		.loc 1 781 12 is_stmt 0 view .LVU190
 676 0006 4CF25030 		movw	r0, #50000
 677              	.LVL47:
 781:../Resources/Drivers/STM32L4xx_HAL_Driver/Src/stm32l4xx_hal_flash_ex.c **** 
 678              		.loc 1 781 12 view .LVU191
 679 000a FFF7FEFF 		bl	FLASH_WaitForLastOperation
 680              	.LVL48:
 783:../Resources/Drivers/STM32L4xx_HAL_Driver/Src/stm32l4xx_hal_flash_ex.c ****   {
 681              		.loc 1 783 3 is_stmt 1 view .LVU192
 783:../Resources/Drivers/STM32L4xx_HAL_Driver/Src/stm32l4xx_hal_flash_ex.c ****   {
 682              		.loc 1 783 5 is_stmt 0 view .LVU193
 683 000e 0028     		cmp	r0, #0
 684 0010 7AD1     		bne	.L55
 785:../Resources/Drivers/STM32L4xx_HAL_Driver/Src/stm32l4xx_hal_flash_ex.c ****     {
 685              		.loc 1 785 5 is_stmt 1 view .LVU194
 785:../Resources/Drivers/STM32L4xx_HAL_Driver/Src/stm32l4xx_hal_flash_ex.c ****     {
 686              		.loc 1 785 7 is_stmt 0 view .LVU195
 687 0012 14F00103 		ands	r3, r4, #1
 688 0016 04D0     		beq	.L69
 788:../Resources/Drivers/STM32L4xx_HAL_Driver/Src/stm32l4xx_hal_flash_ex.c **** 
 689              		.loc 1 788 7 is_stmt 1 view .LVU196
 791:../Resources/Drivers/STM32L4xx_HAL_Driver/Src/stm32l4xx_hal_flash_ex.c ****       optr_reg_mask |= FLASH_OPTR_BOR_LEV;
 690              		.loc 1 791 7 view .LVU197
 791:../Resources/Drivers/STM32L4xx_HAL_Driver/Src/stm32l4xx_hal_flash_ex.c ****       optr_reg_mask |= FLASH_OPTR_BOR_LEV;
 691              		.loc 1 791 35 is_stmt 0 view .LVU198
 692 0018 05F4E063 		and	r3, r5, #1792
 693              	.LVL49:
 792:../Resources/Drivers/STM32L4xx_HAL_Driver/Src/stm32l4xx_hal_flash_ex.c ****     }
 694              		.loc 1 792 7 is_stmt 1 view .LVU199
 792:../Resources/Drivers/STM32L4xx_HAL_Driver/Src/stm32l4xx_hal_flash_ex.c ****     }
 695              		.loc 1 792 21 is_stmt 0 view .LVU200
 696 001c 4FF4E062 		mov	r2, #1792
ARM GAS  /tmp/cchkkQtC.s 			page 38


 697 0020 00E0     		b	.L56
 698              	.LVL50:
 699              	.L69:
 774:../Resources/Drivers/STM32L4xx_HAL_Driver/Src/stm32l4xx_hal_flash_ex.c ****   HAL_StatusTypeDef status;
 700              		.loc 1 774 12 view .LVU201
 701 0022 1A46     		mov	r2, r3
 702              	.LVL51:
 703              	.L56:
 795:../Resources/Drivers/STM32L4xx_HAL_Driver/Src/stm32l4xx_hal_flash_ex.c ****     {
 704              		.loc 1 795 5 is_stmt 1 view .LVU202
 795:../Resources/Drivers/STM32L4xx_HAL_Driver/Src/stm32l4xx_hal_flash_ex.c ****     {
 705              		.loc 1 795 7 is_stmt 0 view .LVU203
 706 0024 14F0020F 		tst	r4, #2
 707 0028 04D0     		beq	.L57
 798:../Resources/Drivers/STM32L4xx_HAL_Driver/Src/stm32l4xx_hal_flash_ex.c **** 
 708              		.loc 1 798 7 is_stmt 1 view .LVU204
 801:../Resources/Drivers/STM32L4xx_HAL_Driver/Src/stm32l4xx_hal_flash_ex.c ****       optr_reg_mask |= FLASH_OPTR_nRST_STOP;
 709              		.loc 1 801 7 view .LVU205
 801:../Resources/Drivers/STM32L4xx_HAL_Driver/Src/stm32l4xx_hal_flash_ex.c ****       optr_reg_mask |= FLASH_OPTR_nRST_STOP;
 710              		.loc 1 801 35 is_stmt 0 view .LVU206
 711 002a 05F48051 		and	r1, r5, #4096
 801:../Resources/Drivers/STM32L4xx_HAL_Driver/Src/stm32l4xx_hal_flash_ex.c ****       optr_reg_mask |= FLASH_OPTR_nRST_STOP;
 712              		.loc 1 801 20 view .LVU207
 713 002e 0B43     		orrs	r3, r3, r1
 714              	.LVL52:
 802:../Resources/Drivers/STM32L4xx_HAL_Driver/Src/stm32l4xx_hal_flash_ex.c ****     }
 715              		.loc 1 802 7 is_stmt 1 view .LVU208
 802:../Resources/Drivers/STM32L4xx_HAL_Driver/Src/stm32l4xx_hal_flash_ex.c ****     }
 716              		.loc 1 802 21 is_stmt 0 view .LVU209
 717 0030 42F48052 		orr	r2, r2, #4096
 718              	.LVL53:
 719              	.L57:
 805:../Resources/Drivers/STM32L4xx_HAL_Driver/Src/stm32l4xx_hal_flash_ex.c ****     {
 720              		.loc 1 805 5 is_stmt 1 view .LVU210
 805:../Resources/Drivers/STM32L4xx_HAL_Driver/Src/stm32l4xx_hal_flash_ex.c ****     {
 721              		.loc 1 805 7 is_stmt 0 view .LVU211
 722 0034 14F0040F 		tst	r4, #4
 723 0038 04D0     		beq	.L58
 808:../Resources/Drivers/STM32L4xx_HAL_Driver/Src/stm32l4xx_hal_flash_ex.c **** 
 724              		.loc 1 808 7 is_stmt 1 view .LVU212
 811:../Resources/Drivers/STM32L4xx_HAL_Driver/Src/stm32l4xx_hal_flash_ex.c ****       optr_reg_mask |= FLASH_OPTR_nRST_STDBY;
 725              		.loc 1 811 7 view .LVU213
 811:../Resources/Drivers/STM32L4xx_HAL_Driver/Src/stm32l4xx_hal_flash_ex.c ****       optr_reg_mask |= FLASH_OPTR_nRST_STDBY;
 726              		.loc 1 811 35 is_stmt 0 view .LVU214
 727 003a 05F40051 		and	r1, r5, #8192
 811:../Resources/Drivers/STM32L4xx_HAL_Driver/Src/stm32l4xx_hal_flash_ex.c ****       optr_reg_mask |= FLASH_OPTR_nRST_STDBY;
 728              		.loc 1 811 20 view .LVU215
 729 003e 0B43     		orrs	r3, r3, r1
 730              	.LVL54:
 812:../Resources/Drivers/STM32L4xx_HAL_Driver/Src/stm32l4xx_hal_flash_ex.c ****     }
 731              		.loc 1 812 7 is_stmt 1 view .LVU216
 812:../Resources/Drivers/STM32L4xx_HAL_Driver/Src/stm32l4xx_hal_flash_ex.c ****     }
 732              		.loc 1 812 21 is_stmt 0 view .LVU217
 733 0040 42F40052 		orr	r2, r2, #8192
 734              	.LVL55:
 735              	.L58:
 815:../Resources/Drivers/STM32L4xx_HAL_Driver/Src/stm32l4xx_hal_flash_ex.c ****     {
ARM GAS  /tmp/cchkkQtC.s 			page 39


 736              		.loc 1 815 5 is_stmt 1 view .LVU218
 815:../Resources/Drivers/STM32L4xx_HAL_Driver/Src/stm32l4xx_hal_flash_ex.c ****     {
 737              		.loc 1 815 7 is_stmt 0 view .LVU219
 738 0044 14F4805F 		tst	r4, #4096
 739 0048 04D0     		beq	.L59
 818:../Resources/Drivers/STM32L4xx_HAL_Driver/Src/stm32l4xx_hal_flash_ex.c **** 
 740              		.loc 1 818 7 is_stmt 1 view .LVU220
 821:../Resources/Drivers/STM32L4xx_HAL_Driver/Src/stm32l4xx_hal_flash_ex.c ****       optr_reg_mask |= FLASH_OPTR_nRST_SHDW;
 741              		.loc 1 821 7 view .LVU221
 821:../Resources/Drivers/STM32L4xx_HAL_Driver/Src/stm32l4xx_hal_flash_ex.c ****       optr_reg_mask |= FLASH_OPTR_nRST_SHDW;
 742              		.loc 1 821 35 is_stmt 0 view .LVU222
 743 004a 05F48041 		and	r1, r5, #16384
 821:../Resources/Drivers/STM32L4xx_HAL_Driver/Src/stm32l4xx_hal_flash_ex.c ****       optr_reg_mask |= FLASH_OPTR_nRST_SHDW;
 744              		.loc 1 821 20 view .LVU223
 745 004e 0B43     		orrs	r3, r3, r1
 746              	.LVL56:
 822:../Resources/Drivers/STM32L4xx_HAL_Driver/Src/stm32l4xx_hal_flash_ex.c ****     }
 747              		.loc 1 822 7 is_stmt 1 view .LVU224
 822:../Resources/Drivers/STM32L4xx_HAL_Driver/Src/stm32l4xx_hal_flash_ex.c ****     }
 748              		.loc 1 822 21 is_stmt 0 view .LVU225
 749 0050 42F48042 		orr	r2, r2, #16384
 750              	.LVL57:
 751              	.L59:
 825:../Resources/Drivers/STM32L4xx_HAL_Driver/Src/stm32l4xx_hal_flash_ex.c ****     {
 752              		.loc 1 825 5 is_stmt 1 view .LVU226
 825:../Resources/Drivers/STM32L4xx_HAL_Driver/Src/stm32l4xx_hal_flash_ex.c ****     {
 753              		.loc 1 825 7 is_stmt 0 view .LVU227
 754 0054 14F0080F 		tst	r4, #8
 755 0058 04D0     		beq	.L60
 828:../Resources/Drivers/STM32L4xx_HAL_Driver/Src/stm32l4xx_hal_flash_ex.c **** 
 756              		.loc 1 828 7 is_stmt 1 view .LVU228
 831:../Resources/Drivers/STM32L4xx_HAL_Driver/Src/stm32l4xx_hal_flash_ex.c ****       optr_reg_mask |= FLASH_OPTR_IWDG_SW;
 757              		.loc 1 831 7 view .LVU229
 831:../Resources/Drivers/STM32L4xx_HAL_Driver/Src/stm32l4xx_hal_flash_ex.c ****       optr_reg_mask |= FLASH_OPTR_IWDG_SW;
 758              		.loc 1 831 35 is_stmt 0 view .LVU230
 759 005a 05F48031 		and	r1, r5, #65536
 831:../Resources/Drivers/STM32L4xx_HAL_Driver/Src/stm32l4xx_hal_flash_ex.c ****       optr_reg_mask |= FLASH_OPTR_IWDG_SW;
 760              		.loc 1 831 20 view .LVU231
 761 005e 0B43     		orrs	r3, r3, r1
 762              	.LVL58:
 832:../Resources/Drivers/STM32L4xx_HAL_Driver/Src/stm32l4xx_hal_flash_ex.c ****     }
 763              		.loc 1 832 7 is_stmt 1 view .LVU232
 832:../Resources/Drivers/STM32L4xx_HAL_Driver/Src/stm32l4xx_hal_flash_ex.c ****     }
 764              		.loc 1 832 21 is_stmt 0 view .LVU233
 765 0060 42F48032 		orr	r2, r2, #65536
 766              	.LVL59:
 767              	.L60:
 835:../Resources/Drivers/STM32L4xx_HAL_Driver/Src/stm32l4xx_hal_flash_ex.c ****     {
 768              		.loc 1 835 5 is_stmt 1 view .LVU234
 835:../Resources/Drivers/STM32L4xx_HAL_Driver/Src/stm32l4xx_hal_flash_ex.c ****     {
 769              		.loc 1 835 7 is_stmt 0 view .LVU235
 770 0064 14F0100F 		tst	r4, #16
 771 0068 04D0     		beq	.L61
 838:../Resources/Drivers/STM32L4xx_HAL_Driver/Src/stm32l4xx_hal_flash_ex.c **** 
 772              		.loc 1 838 7 is_stmt 1 view .LVU236
 841:../Resources/Drivers/STM32L4xx_HAL_Driver/Src/stm32l4xx_hal_flash_ex.c ****       optr_reg_mask |= FLASH_OPTR_IWDG_STOP;
 773              		.loc 1 841 7 view .LVU237
ARM GAS  /tmp/cchkkQtC.s 			page 40


 841:../Resources/Drivers/STM32L4xx_HAL_Driver/Src/stm32l4xx_hal_flash_ex.c ****       optr_reg_mask |= FLASH_OPTR_IWDG_STOP;
 774              		.loc 1 841 35 is_stmt 0 view .LVU238
 775 006a 05F40031 		and	r1, r5, #131072
 841:../Resources/Drivers/STM32L4xx_HAL_Driver/Src/stm32l4xx_hal_flash_ex.c ****       optr_reg_mask |= FLASH_OPTR_IWDG_STOP;
 776              		.loc 1 841 20 view .LVU239
 777 006e 0B43     		orrs	r3, r3, r1
 778              	.LVL60:
 842:../Resources/Drivers/STM32L4xx_HAL_Driver/Src/stm32l4xx_hal_flash_ex.c ****     }
 779              		.loc 1 842 7 is_stmt 1 view .LVU240
 842:../Resources/Drivers/STM32L4xx_HAL_Driver/Src/stm32l4xx_hal_flash_ex.c ****     }
 780              		.loc 1 842 21 is_stmt 0 view .LVU241
 781 0070 42F40032 		orr	r2, r2, #131072
 782              	.LVL61:
 783              	.L61:
 845:../Resources/Drivers/STM32L4xx_HAL_Driver/Src/stm32l4xx_hal_flash_ex.c ****     {
 784              		.loc 1 845 5 is_stmt 1 view .LVU242
 845:../Resources/Drivers/STM32L4xx_HAL_Driver/Src/stm32l4xx_hal_flash_ex.c ****     {
 785              		.loc 1 845 7 is_stmt 0 view .LVU243
 786 0074 14F0200F 		tst	r4, #32
 787 0078 04D0     		beq	.L62
 848:../Resources/Drivers/STM32L4xx_HAL_Driver/Src/stm32l4xx_hal_flash_ex.c **** 
 788              		.loc 1 848 7 is_stmt 1 view .LVU244
 851:../Resources/Drivers/STM32L4xx_HAL_Driver/Src/stm32l4xx_hal_flash_ex.c ****       optr_reg_mask |= FLASH_OPTR_IWDG_STDBY;
 789              		.loc 1 851 7 view .LVU245
 851:../Resources/Drivers/STM32L4xx_HAL_Driver/Src/stm32l4xx_hal_flash_ex.c ****       optr_reg_mask |= FLASH_OPTR_IWDG_STDBY;
 790              		.loc 1 851 35 is_stmt 0 view .LVU246
 791 007a 05F48021 		and	r1, r5, #262144
 851:../Resources/Drivers/STM32L4xx_HAL_Driver/Src/stm32l4xx_hal_flash_ex.c ****       optr_reg_mask |= FLASH_OPTR_IWDG_STDBY;
 792              		.loc 1 851 20 view .LVU247
 793 007e 0B43     		orrs	r3, r3, r1
 794              	.LVL62:
 852:../Resources/Drivers/STM32L4xx_HAL_Driver/Src/stm32l4xx_hal_flash_ex.c ****     }
 795              		.loc 1 852 7 is_stmt 1 view .LVU248
 852:../Resources/Drivers/STM32L4xx_HAL_Driver/Src/stm32l4xx_hal_flash_ex.c ****     }
 796              		.loc 1 852 21 is_stmt 0 view .LVU249
 797 0080 42F48022 		orr	r2, r2, #262144
 798              	.LVL63:
 799              	.L62:
 855:../Resources/Drivers/STM32L4xx_HAL_Driver/Src/stm32l4xx_hal_flash_ex.c ****     {
 800              		.loc 1 855 5 is_stmt 1 view .LVU250
 855:../Resources/Drivers/STM32L4xx_HAL_Driver/Src/stm32l4xx_hal_flash_ex.c ****     {
 801              		.loc 1 855 7 is_stmt 0 view .LVU251
 802 0084 14F0400F 		tst	r4, #64
 803 0088 04D0     		beq	.L63
 858:../Resources/Drivers/STM32L4xx_HAL_Driver/Src/stm32l4xx_hal_flash_ex.c **** 
 804              		.loc 1 858 7 is_stmt 1 view .LVU252
 861:../Resources/Drivers/STM32L4xx_HAL_Driver/Src/stm32l4xx_hal_flash_ex.c ****       optr_reg_mask |= FLASH_OPTR_WWDG_SW;
 805              		.loc 1 861 7 view .LVU253
 861:../Resources/Drivers/STM32L4xx_HAL_Driver/Src/stm32l4xx_hal_flash_ex.c ****       optr_reg_mask |= FLASH_OPTR_WWDG_SW;
 806              		.loc 1 861 35 is_stmt 0 view .LVU254
 807 008a 05F40021 		and	r1, r5, #524288
 861:../Resources/Drivers/STM32L4xx_HAL_Driver/Src/stm32l4xx_hal_flash_ex.c ****       optr_reg_mask |= FLASH_OPTR_WWDG_SW;
 808              		.loc 1 861 20 view .LVU255
 809 008e 0B43     		orrs	r3, r3, r1
 810              	.LVL64:
 862:../Resources/Drivers/STM32L4xx_HAL_Driver/Src/stm32l4xx_hal_flash_ex.c ****     }
 811              		.loc 1 862 7 is_stmt 1 view .LVU256
ARM GAS  /tmp/cchkkQtC.s 			page 41


 862:../Resources/Drivers/STM32L4xx_HAL_Driver/Src/stm32l4xx_hal_flash_ex.c ****     }
 812              		.loc 1 862 21 is_stmt 0 view .LVU257
 813 0090 42F40022 		orr	r2, r2, #524288
 814              	.LVL65:
 815              	.L63:
 869:../Resources/Drivers/STM32L4xx_HAL_Driver/Src/stm32l4xx_hal_flash_ex.c ****     {
 816              		.loc 1 869 5 is_stmt 1 view .LVU258
 869:../Resources/Drivers/STM32L4xx_HAL_Driver/Src/stm32l4xx_hal_flash_ex.c ****     {
 817              		.loc 1 869 7 is_stmt 0 view .LVU259
 818 0094 14F0800F 		tst	r4, #128
 819 0098 04D0     		beq	.L64
 872:../Resources/Drivers/STM32L4xx_HAL_Driver/Src/stm32l4xx_hal_flash_ex.c **** 
 820              		.loc 1 872 7 is_stmt 1 view .LVU260
 875:../Resources/Drivers/STM32L4xx_HAL_Driver/Src/stm32l4xx_hal_flash_ex.c ****       optr_reg_mask |= FLASH_OPTR_BFB2;
 821              		.loc 1 875 7 view .LVU261
 875:../Resources/Drivers/STM32L4xx_HAL_Driver/Src/stm32l4xx_hal_flash_ex.c ****       optr_reg_mask |= FLASH_OPTR_BFB2;
 822              		.loc 1 875 35 is_stmt 0 view .LVU262
 823 009a 05F48011 		and	r1, r5, #1048576
 875:../Resources/Drivers/STM32L4xx_HAL_Driver/Src/stm32l4xx_hal_flash_ex.c ****       optr_reg_mask |= FLASH_OPTR_BFB2;
 824              		.loc 1 875 20 view .LVU263
 825 009e 0B43     		orrs	r3, r3, r1
 826              	.LVL66:
 876:../Resources/Drivers/STM32L4xx_HAL_Driver/Src/stm32l4xx_hal_flash_ex.c ****     }
 827              		.loc 1 876 7 is_stmt 1 view .LVU264
 876:../Resources/Drivers/STM32L4xx_HAL_Driver/Src/stm32l4xx_hal_flash_ex.c ****     }
 828              		.loc 1 876 21 is_stmt 0 view .LVU265
 829 00a0 42F48012 		orr	r2, r2, #1048576
 830              	.LVL67:
 831              	.L64:
 879:../Resources/Drivers/STM32L4xx_HAL_Driver/Src/stm32l4xx_hal_flash_ex.c ****     {
 832              		.loc 1 879 5 is_stmt 1 view .LVU266
 879:../Resources/Drivers/STM32L4xx_HAL_Driver/Src/stm32l4xx_hal_flash_ex.c ****     {
 833              		.loc 1 879 7 is_stmt 0 view .LVU267
 834 00a4 14F4807F 		tst	r4, #256
 835 00a8 04D0     		beq	.L65
 890:../Resources/Drivers/STM32L4xx_HAL_Driver/Src/stm32l4xx_hal_flash_ex.c **** 
 836              		.loc 1 890 7 is_stmt 1 view .LVU268
 893:../Resources/Drivers/STM32L4xx_HAL_Driver/Src/stm32l4xx_hal_flash_ex.c ****       optr_reg_mask |= FLASH_OPTR_DUALBANK;
 837              		.loc 1 893 7 view .LVU269
 893:../Resources/Drivers/STM32L4xx_HAL_Driver/Src/stm32l4xx_hal_flash_ex.c ****       optr_reg_mask |= FLASH_OPTR_DUALBANK;
 838              		.loc 1 893 35 is_stmt 0 view .LVU270
 839 00aa 05F40011 		and	r1, r5, #2097152
 893:../Resources/Drivers/STM32L4xx_HAL_Driver/Src/stm32l4xx_hal_flash_ex.c ****       optr_reg_mask |= FLASH_OPTR_DUALBANK;
 840              		.loc 1 893 20 view .LVU271
 841 00ae 0B43     		orrs	r3, r3, r1
 842              	.LVL68:
 894:../Resources/Drivers/STM32L4xx_HAL_Driver/Src/stm32l4xx_hal_flash_ex.c **** #endif
 843              		.loc 1 894 7 is_stmt 1 view .LVU272
 894:../Resources/Drivers/STM32L4xx_HAL_Driver/Src/stm32l4xx_hal_flash_ex.c **** #endif
 844              		.loc 1 894 21 is_stmt 0 view .LVU273
 845 00b0 42F40012 		orr	r2, r2, #2097152
 846              	.LVL69:
 847              	.L65:
 899:../Resources/Drivers/STM32L4xx_HAL_Driver/Src/stm32l4xx_hal_flash_ex.c ****     {
 848              		.loc 1 899 5 is_stmt 1 view .LVU274
 899:../Resources/Drivers/STM32L4xx_HAL_Driver/Src/stm32l4xx_hal_flash_ex.c ****     {
 849              		.loc 1 899 7 is_stmt 0 view .LVU275
ARM GAS  /tmp/cchkkQtC.s 			page 42


 850 00b4 14F4007F 		tst	r4, #512
 851 00b8 04D0     		beq	.L66
 902:../Resources/Drivers/STM32L4xx_HAL_Driver/Src/stm32l4xx_hal_flash_ex.c **** 
 852              		.loc 1 902 7 is_stmt 1 view .LVU276
 905:../Resources/Drivers/STM32L4xx_HAL_Driver/Src/stm32l4xx_hal_flash_ex.c ****       optr_reg_mask |= FLASH_OPTR_nBOOT1;
 853              		.loc 1 905 7 view .LVU277
 905:../Resources/Drivers/STM32L4xx_HAL_Driver/Src/stm32l4xx_hal_flash_ex.c ****       optr_reg_mask |= FLASH_OPTR_nBOOT1;
 854              		.loc 1 905 35 is_stmt 0 view .LVU278
 855 00ba 05F40001 		and	r1, r5, #8388608
 905:../Resources/Drivers/STM32L4xx_HAL_Driver/Src/stm32l4xx_hal_flash_ex.c ****       optr_reg_mask |= FLASH_OPTR_nBOOT1;
 856              		.loc 1 905 20 view .LVU279
 857 00be 0B43     		orrs	r3, r3, r1
 858              	.LVL70:
 906:../Resources/Drivers/STM32L4xx_HAL_Driver/Src/stm32l4xx_hal_flash_ex.c ****     }
 859              		.loc 1 906 7 is_stmt 1 view .LVU280
 906:../Resources/Drivers/STM32L4xx_HAL_Driver/Src/stm32l4xx_hal_flash_ex.c ****     }
 860              		.loc 1 906 21 is_stmt 0 view .LVU281
 861 00c0 42F40002 		orr	r2, r2, #8388608
 862              	.LVL71:
 863              	.L66:
 909:../Resources/Drivers/STM32L4xx_HAL_Driver/Src/stm32l4xx_hal_flash_ex.c ****     {
 864              		.loc 1 909 5 is_stmt 1 view .LVU282
 909:../Resources/Drivers/STM32L4xx_HAL_Driver/Src/stm32l4xx_hal_flash_ex.c ****     {
 865              		.loc 1 909 7 is_stmt 0 view .LVU283
 866 00c4 14F4806F 		tst	r4, #1024
 867 00c8 04D0     		beq	.L67
 912:../Resources/Drivers/STM32L4xx_HAL_Driver/Src/stm32l4xx_hal_flash_ex.c **** 
 868              		.loc 1 912 7 is_stmt 1 view .LVU284
 915:../Resources/Drivers/STM32L4xx_HAL_Driver/Src/stm32l4xx_hal_flash_ex.c ****       optr_reg_mask |= FLASH_OPTR_SRAM2_PE;
 869              		.loc 1 915 7 view .LVU285
 915:../Resources/Drivers/STM32L4xx_HAL_Driver/Src/stm32l4xx_hal_flash_ex.c ****       optr_reg_mask |= FLASH_OPTR_SRAM2_PE;
 870              		.loc 1 915 35 is_stmt 0 view .LVU286
 871 00ca 05F08071 		and	r1, r5, #16777216
 915:../Resources/Drivers/STM32L4xx_HAL_Driver/Src/stm32l4xx_hal_flash_ex.c ****       optr_reg_mask |= FLASH_OPTR_SRAM2_PE;
 872              		.loc 1 915 20 view .LVU287
 873 00ce 0B43     		orrs	r3, r3, r1
 874              	.LVL72:
 916:../Resources/Drivers/STM32L4xx_HAL_Driver/Src/stm32l4xx_hal_flash_ex.c ****     }
 875              		.loc 1 916 7 is_stmt 1 view .LVU288
 916:../Resources/Drivers/STM32L4xx_HAL_Driver/Src/stm32l4xx_hal_flash_ex.c ****     }
 876              		.loc 1 916 21 is_stmt 0 view .LVU289
 877 00d0 42F08072 		orr	r2, r2, #16777216
 878              	.LVL73:
 879              	.L67:
 919:../Resources/Drivers/STM32L4xx_HAL_Driver/Src/stm32l4xx_hal_flash_ex.c ****     {
 880              		.loc 1 919 5 is_stmt 1 view .LVU290
 919:../Resources/Drivers/STM32L4xx_HAL_Driver/Src/stm32l4xx_hal_flash_ex.c ****     {
 881              		.loc 1 919 7 is_stmt 0 view .LVU291
 882 00d4 14F4006F 		tst	r4, #2048
 883 00d8 04D0     		beq	.L68
 922:../Resources/Drivers/STM32L4xx_HAL_Driver/Src/stm32l4xx_hal_flash_ex.c **** 
 884              		.loc 1 922 7 is_stmt 1 view .LVU292
 925:../Resources/Drivers/STM32L4xx_HAL_Driver/Src/stm32l4xx_hal_flash_ex.c ****       optr_reg_mask |= FLASH_OPTR_SRAM2_RST;
 885              		.loc 1 925 7 view .LVU293
 925:../Resources/Drivers/STM32L4xx_HAL_Driver/Src/stm32l4xx_hal_flash_ex.c ****       optr_reg_mask |= FLASH_OPTR_SRAM2_RST;
 886              		.loc 1 925 35 is_stmt 0 view .LVU294
 887 00da 05F00075 		and	r5, r5, #33554432
ARM GAS  /tmp/cchkkQtC.s 			page 43


 888              	.LVL74:
 925:../Resources/Drivers/STM32L4xx_HAL_Driver/Src/stm32l4xx_hal_flash_ex.c ****       optr_reg_mask |= FLASH_OPTR_SRAM2_RST;
 889              		.loc 1 925 20 view .LVU295
 890 00de 2B43     		orrs	r3, r3, r5
 891              	.LVL75:
 926:../Resources/Drivers/STM32L4xx_HAL_Driver/Src/stm32l4xx_hal_flash_ex.c ****     }
 892              		.loc 1 926 7 is_stmt 1 view .LVU296
 926:../Resources/Drivers/STM32L4xx_HAL_Driver/Src/stm32l4xx_hal_flash_ex.c ****     }
 893              		.loc 1 926 21 is_stmt 0 view .LVU297
 894 00e0 42F00072 		orr	r2, r2, #33554432
 895              	.LVL76:
 896              	.L68:
 956:../Resources/Drivers/STM32L4xx_HAL_Driver/Src/stm32l4xx_hal_flash_ex.c **** 
 897              		.loc 1 956 5 is_stmt 1 view .LVU298
 898 00e4 094C     		ldr	r4, .L71
 899              	.LVL77:
 956:../Resources/Drivers/STM32L4xx_HAL_Driver/Src/stm32l4xx_hal_flash_ex.c **** 
 900              		.loc 1 956 5 is_stmt 0 view .LVU299
 901 00e6 216A     		ldr	r1, [r4, #32]
 902 00e8 21EA0202 		bic	r2, r1, r2
 903              	.LVL78:
 956:../Resources/Drivers/STM32L4xx_HAL_Driver/Src/stm32l4xx_hal_flash_ex.c **** 
 904              		.loc 1 956 5 view .LVU300
 905 00ec 1343     		orrs	r3, r3, r2
 906              	.LVL79:
 956:../Resources/Drivers/STM32L4xx_HAL_Driver/Src/stm32l4xx_hal_flash_ex.c **** 
 907              		.loc 1 956 5 view .LVU301
 908 00ee 2362     		str	r3, [r4, #32]
 959:../Resources/Drivers/STM32L4xx_HAL_Driver/Src/stm32l4xx_hal_flash_ex.c **** 
 909              		.loc 1 959 5 is_stmt 1 view .LVU302
 910 00f0 6369     		ldr	r3, [r4, #20]
 911 00f2 43F40033 		orr	r3, r3, #131072
 912 00f6 6361     		str	r3, [r4, #20]
 962:../Resources/Drivers/STM32L4xx_HAL_Driver/Src/stm32l4xx_hal_flash_ex.c **** 
 913              		.loc 1 962 5 view .LVU303
 962:../Resources/Drivers/STM32L4xx_HAL_Driver/Src/stm32l4xx_hal_flash_ex.c **** 
 914              		.loc 1 962 14 is_stmt 0 view .LVU304
 915 00f8 4CF25030 		movw	r0, #50000
 916 00fc FFF7FEFF 		bl	FLASH_WaitForLastOperation
 917              	.LVL80:
 965:../Resources/Drivers/STM32L4xx_HAL_Driver/Src/stm32l4xx_hal_flash_ex.c ****   }
 918              		.loc 1 965 5 is_stmt 1 view .LVU305
 919 0100 6369     		ldr	r3, [r4, #20]
 920 0102 23F40033 		bic	r3, r3, #131072
 921 0106 6361     		str	r3, [r4, #20]
 922              	.LVL81:
 923              	.L55:
 968:../Resources/Drivers/STM32L4xx_HAL_Driver/Src/stm32l4xx_hal_flash_ex.c **** }
 924              		.loc 1 968 3 view .LVU306
 969:../Resources/Drivers/STM32L4xx_HAL_Driver/Src/stm32l4xx_hal_flash_ex.c **** 
 925              		.loc 1 969 1 is_stmt 0 view .LVU307
 926 0108 38BD     		pop	{r3, r4, r5, pc}
 927              	.L72:
 928 010a 00BF     		.align	2
 929              	.L71:
 930 010c 00200240 		.word	1073881088
 931              		.cfi_endproc
ARM GAS  /tmp/cchkkQtC.s 			page 44


 932              	.LFE141:
 934              		.section	.text.FLASH_OB_PCROPConfig,"ax",%progbits
 935              		.align	1
 936              		.syntax unified
 937              		.thumb
 938              		.thumb_func
 940              	FLASH_OB_PCROPConfig:
 941              	.LVL82:
 942              	.LFB142:
 992:../Resources/Drivers/STM32L4xx_HAL_Driver/Src/stm32l4xx_hal_flash_ex.c ****   HAL_StatusTypeDef status;
 943              		.loc 1 992 1 is_stmt 1 view -0
 944              		.cfi_startproc
 945              		@ args = 0, pretend = 0, frame = 0
 946              		@ frame_needed = 0, uses_anonymous_args = 0
 992:../Resources/Drivers/STM32L4xx_HAL_Driver/Src/stm32l4xx_hal_flash_ex.c ****   HAL_StatusTypeDef status;
 947              		.loc 1 992 1 is_stmt 0 view .LVU309
 948 0000 70B5     		push	{r4, r5, r6, lr}
 949              	.LCFI6:
 950              		.cfi_def_cfa_offset 16
 951              		.cfi_offset 4, -16
 952              		.cfi_offset 5, -12
 953              		.cfi_offset 6, -8
 954              		.cfi_offset 14, -4
 955 0002 0446     		mov	r4, r0
 956 0004 0E46     		mov	r6, r1
 957 0006 1546     		mov	r5, r2
 993:../Resources/Drivers/STM32L4xx_HAL_Driver/Src/stm32l4xx_hal_flash_ex.c ****   uint32_t reg_value;
 958              		.loc 1 993 3 is_stmt 1 view .LVU310
 994:../Resources/Drivers/STM32L4xx_HAL_Driver/Src/stm32l4xx_hal_flash_ex.c ****   uint32_t bank1_addr;
 959              		.loc 1 994 3 view .LVU311
 995:../Resources/Drivers/STM32L4xx_HAL_Driver/Src/stm32l4xx_hal_flash_ex.c **** #if defined (STM32L471xx) || defined (STM32L475xx) || defined (STM32L476xx) || defined (STM32L485xx
 960              		.loc 1 995 3 view .LVU312
1000:../Resources/Drivers/STM32L4xx_HAL_Driver/Src/stm32l4xx_hal_flash_ex.c **** #endif
 961              		.loc 1 1000 3 view .LVU313
1004:../Resources/Drivers/STM32L4xx_HAL_Driver/Src/stm32l4xx_hal_flash_ex.c ****   assert_param(IS_OB_PCROP_RDP(PCROPConfig & FLASH_PCROP1ER_PCROP_RDP));
 962              		.loc 1 1004 3 view .LVU314
1005:../Resources/Drivers/STM32L4xx_HAL_Driver/Src/stm32l4xx_hal_flash_ex.c ****   assert_param(IS_FLASH_MAIN_MEM_ADDRESS(PCROPStartAddr));
 963              		.loc 1 1005 3 view .LVU315
1006:../Resources/Drivers/STM32L4xx_HAL_Driver/Src/stm32l4xx_hal_flash_ex.c ****   assert_param(IS_FLASH_MAIN_MEM_ADDRESS(PCROPEndAddr));
 964              		.loc 1 1006 3 view .LVU316
1007:../Resources/Drivers/STM32L4xx_HAL_Driver/Src/stm32l4xx_hal_flash_ex.c **** 
 965              		.loc 1 1007 3 view .LVU317
1010:../Resources/Drivers/STM32L4xx_HAL_Driver/Src/stm32l4xx_hal_flash_ex.c **** 
 966              		.loc 1 1010 3 view .LVU318
1010:../Resources/Drivers/STM32L4xx_HAL_Driver/Src/stm32l4xx_hal_flash_ex.c **** 
 967              		.loc 1 1010 12 is_stmt 0 view .LVU319
 968 0008 4CF25030 		movw	r0, #50000
 969              	.LVL83:
1010:../Resources/Drivers/STM32L4xx_HAL_Driver/Src/stm32l4xx_hal_flash_ex.c **** 
 970              		.loc 1 1010 12 view .LVU320
 971 000c FFF7FEFF 		bl	FLASH_WaitForLastOperation
 972              	.LVL84:
1012:../Resources/Drivers/STM32L4xx_HAL_Driver/Src/stm32l4xx_hal_flash_ex.c ****   {
 973              		.loc 1 1012 3 is_stmt 1 view .LVU321
1012:../Resources/Drivers/STM32L4xx_HAL_Driver/Src/stm32l4xx_hal_flash_ex.c ****   {
 974              		.loc 1 1012 5 is_stmt 0 view .LVU322
 975 0010 68BB     		cbnz	r0, .L74
ARM GAS  /tmp/cchkkQtC.s 			page 45


1019:../Resources/Drivers/STM32L4xx_HAL_Driver/Src/stm32l4xx_hal_flash_ex.c ****     {
 976              		.loc 1 1019 5 is_stmt 1 view .LVU323
1019:../Resources/Drivers/STM32L4xx_HAL_Driver/Src/stm32l4xx_hal_flash_ex.c ****     {
 977              		.loc 1 1019 9 is_stmt 0 view .LVU324
 978 0012 334B     		ldr	r3, .L84
 979 0014 1B68     		ldr	r3, [r3]
1019:../Resources/Drivers/STM32L4xx_HAL_Driver/Src/stm32l4xx_hal_flash_ex.c ****     {
 980              		.loc 1 1019 8 view .LVU325
 981 0016 13F4807F 		tst	r3, #256
 982 001a 29D1     		bne	.L75
1021:../Resources/Drivers/STM32L4xx_HAL_Driver/Src/stm32l4xx_hal_flash_ex.c ****       bank2_addr = FLASH_BASE + FLASH_BANK_SIZE;
 983              		.loc 1 1021 7 is_stmt 1 view .LVU326
 984              	.LVL85:
1022:../Resources/Drivers/STM32L4xx_HAL_Driver/Src/stm32l4xx_hal_flash_ex.c ****     }
 985              		.loc 1 1022 7 view .LVU327
1022:../Resources/Drivers/STM32L4xx_HAL_Driver/Src/stm32l4xx_hal_flash_ex.c ****     }
 986              		.loc 1 1022 33 is_stmt 0 view .LVU328
 987 001c 314B     		ldr	r3, .L84+4
 988 001e D3F8E035 		ldr	r3, [r3, #1504]
 989 0022 99B2     		uxth	r1, r3
1022:../Resources/Drivers/STM32L4xx_HAL_Driver/Src/stm32l4xx_hal_flash_ex.c ****     }
 990              		.loc 1 1022 31 view .LVU329
 991 0024 4FF6FF72 		movw	r2, #65535
 992 0028 9142     		cmp	r1, r2
 993 002a 31D0     		beq	.L79
1022:../Resources/Drivers/STM32L4xx_HAL_Driver/Src/stm32l4xx_hal_flash_ex.c ****     }
 994              		.loc 1 1022 33 discriminator 1 view .LVU330
 995 002c 2E4A     		ldr	r2, .L84+8
 996 002e 02EA4322 		and	r2, r2, r3, lsl #9
1022:../Resources/Drivers/STM32L4xx_HAL_Driver/Src/stm32l4xx_hal_flash_ex.c ****     }
 997              		.loc 1 1022 31 discriminator 1 view .LVU331
 998 0032 02F10063 		add	r3, r2, #134217728
1021:../Resources/Drivers/STM32L4xx_HAL_Driver/Src/stm32l4xx_hal_flash_ex.c ****       bank2_addr = FLASH_BASE + FLASH_BANK_SIZE;
 999              		.loc 1 1021 18 discriminator 1 view .LVU332
 1000 0036 4FF00062 		mov	r2, #134217728
 1001              	.LVL86:
 1002              	.L76:
1062:../Resources/Drivers/STM32L4xx_HAL_Driver/Src/stm32l4xx_hal_flash_ex.c ****       {
 1003              		.loc 1 1062 7 is_stmt 1 view .LVU333
1062:../Resources/Drivers/STM32L4xx_HAL_Driver/Src/stm32l4xx_hal_flash_ex.c ****       {
 1004              		.loc 1 1062 23 is_stmt 0 view .LVU334
 1005 003a 04F00301 		and	r1, r4, #3
1062:../Resources/Drivers/STM32L4xx_HAL_Driver/Src/stm32l4xx_hal_flash_ex.c ****       {
 1006              		.loc 1 1062 9 view .LVU335
 1007 003e 0129     		cmp	r1, #1
 1008 0040 2ED0     		beq	.L82
1074:../Resources/Drivers/STM32L4xx_HAL_Driver/Src/stm32l4xx_hal_flash_ex.c ****       {
 1009              		.loc 1 1074 12 is_stmt 1 view .LVU336
1074:../Resources/Drivers/STM32L4xx_HAL_Driver/Src/stm32l4xx_hal_flash_ex.c ****       {
 1010              		.loc 1 1074 14 is_stmt 0 view .LVU337
 1011 0042 0229     		cmp	r1, #2
 1012 0044 3CD0     		beq	.L83
 1013              	.LVL87:
 1014              	.L78:
1086:../Resources/Drivers/STM32L4xx_HAL_Driver/Src/stm32l4xx_hal_flash_ex.c ****     }
 1015              		.loc 1 1086 7 is_stmt 1 view .LVU338
1089:../Resources/Drivers/STM32L4xx_HAL_Driver/Src/stm32l4xx_hal_flash_ex.c **** 
ARM GAS  /tmp/cchkkQtC.s 			page 46


 1016              		.loc 1 1089 5 view .LVU339
 1017 0046 294D     		ldr	r5, .L84+12
 1018 0048 AB6A     		ldr	r3, [r5, #40]
 1019 004a 23F00043 		bic	r3, r3, #-2147483648
 1020 004e 04F00044 		and	r4, r4, #-2147483648
 1021              	.LVL88:
1089:../Resources/Drivers/STM32L4xx_HAL_Driver/Src/stm32l4xx_hal_flash_ex.c **** 
 1022              		.loc 1 1089 5 is_stmt 0 view .LVU340
 1023 0052 1C43     		orrs	r4, r4, r3
 1024 0054 AC62     		str	r4, [r5, #40]
1092:../Resources/Drivers/STM32L4xx_HAL_Driver/Src/stm32l4xx_hal_flash_ex.c **** 
 1025              		.loc 1 1092 5 is_stmt 1 view .LVU341
 1026 0056 6B69     		ldr	r3, [r5, #20]
 1027 0058 43F40033 		orr	r3, r3, #131072
 1028 005c 6B61     		str	r3, [r5, #20]
1095:../Resources/Drivers/STM32L4xx_HAL_Driver/Src/stm32l4xx_hal_flash_ex.c **** 
 1029              		.loc 1 1095 5 view .LVU342
1095:../Resources/Drivers/STM32L4xx_HAL_Driver/Src/stm32l4xx_hal_flash_ex.c **** 
 1030              		.loc 1 1095 14 is_stmt 0 view .LVU343
 1031 005e 4CF25030 		movw	r0, #50000
 1032 0062 FFF7FEFF 		bl	FLASH_WaitForLastOperation
 1033              	.LVL89:
1098:../Resources/Drivers/STM32L4xx_HAL_Driver/Src/stm32l4xx_hal_flash_ex.c ****   }
 1034              		.loc 1 1098 5 is_stmt 1 view .LVU344
 1035 0066 6B69     		ldr	r3, [r5, #20]
 1036 0068 23F40033 		bic	r3, r3, #131072
 1037 006c 6B61     		str	r3, [r5, #20]
 1038              	.LVL90:
 1039              	.L74:
1101:../Resources/Drivers/STM32L4xx_HAL_Driver/Src/stm32l4xx_hal_flash_ex.c **** }
 1040              		.loc 1 1101 3 view .LVU345
1102:../Resources/Drivers/STM32L4xx_HAL_Driver/Src/stm32l4xx_hal_flash_ex.c **** 
 1041              		.loc 1 1102 1 is_stmt 0 view .LVU346
 1042 006e 70BD     		pop	{r4, r5, r6, pc}
 1043              	.LVL91:
 1044              	.L75:
1026:../Resources/Drivers/STM32L4xx_HAL_Driver/Src/stm32l4xx_hal_flash_ex.c ****       bank2_addr = FLASH_BASE;
 1045              		.loc 1 1026 7 is_stmt 1 view .LVU347
1026:../Resources/Drivers/STM32L4xx_HAL_Driver/Src/stm32l4xx_hal_flash_ex.c ****       bank2_addr = FLASH_BASE;
 1046              		.loc 1 1026 33 is_stmt 0 view .LVU348
 1047 0070 1C4B     		ldr	r3, .L84+4
 1048 0072 D3F8E035 		ldr	r3, [r3, #1504]
 1049 0076 99B2     		uxth	r1, r3
1026:../Resources/Drivers/STM32L4xx_HAL_Driver/Src/stm32l4xx_hal_flash_ex.c ****       bank2_addr = FLASH_BASE;
 1050              		.loc 1 1026 31 view .LVU349
 1051 0078 4FF6FF72 		movw	r2, #65535
 1052 007c 9142     		cmp	r1, r2
 1053 007e 0BD0     		beq	.L80
1026:../Resources/Drivers/STM32L4xx_HAL_Driver/Src/stm32l4xx_hal_flash_ex.c ****       bank2_addr = FLASH_BASE;
 1054              		.loc 1 1026 33 discriminator 1 view .LVU350
 1055 0080 194A     		ldr	r2, .L84+8
 1056 0082 02EA4322 		and	r2, r2, r3, lsl #9
1026:../Resources/Drivers/STM32L4xx_HAL_Driver/Src/stm32l4xx_hal_flash_ex.c ****       bank2_addr = FLASH_BASE;
 1057              		.loc 1 1026 31 discriminator 1 view .LVU351
 1058 0086 02F10062 		add	r2, r2, #134217728
1027:../Resources/Drivers/STM32L4xx_HAL_Driver/Src/stm32l4xx_hal_flash_ex.c ****     }
 1059              		.loc 1 1027 18 discriminator 1 view .LVU352
ARM GAS  /tmp/cchkkQtC.s 			page 47


 1060 008a 4FF00063 		mov	r3, #134217728
 1061 008e D4E7     		b	.L76
 1062              	.LVL92:
 1063              	.L79:
1022:../Resources/Drivers/STM32L4xx_HAL_Driver/Src/stm32l4xx_hal_flash_ex.c ****     }
 1064              		.loc 1 1022 31 view .LVU353
 1065 0090 174B     		ldr	r3, .L84+16
1021:../Resources/Drivers/STM32L4xx_HAL_Driver/Src/stm32l4xx_hal_flash_ex.c ****       bank2_addr = FLASH_BASE + FLASH_BANK_SIZE;
 1066              		.loc 1 1021 18 view .LVU354
 1067 0092 4FF00062 		mov	r2, #134217728
 1068 0096 D0E7     		b	.L76
 1069              	.LVL93:
 1070              	.L80:
1027:../Resources/Drivers/STM32L4xx_HAL_Driver/Src/stm32l4xx_hal_flash_ex.c ****     }
 1071              		.loc 1 1027 18 view .LVU355
 1072 0098 4FF00063 		mov	r3, #134217728
1026:../Resources/Drivers/STM32L4xx_HAL_Driver/Src/stm32l4xx_hal_flash_ex.c ****       bank2_addr = FLASH_BASE;
 1073              		.loc 1 1026 31 view .LVU356
 1074 009c 144A     		ldr	r2, .L84+16
 1075 009e CCE7     		b	.L76
 1076              	.LVL94:
 1077              	.L82:
1064:../Resources/Drivers/STM32L4xx_HAL_Driver/Src/stm32l4xx_hal_flash_ex.c ****         MODIFY_REG(FLASH->PCROP1SR, FLASH_PCROP1SR_PCROP1_STRT, reg_value);
 1078              		.loc 1 1064 9 is_stmt 1 view .LVU357
1064:../Resources/Drivers/STM32L4xx_HAL_Driver/Src/stm32l4xx_hal_flash_ex.c ****         MODIFY_REG(FLASH->PCROP1SR, FLASH_PCROP1SR_PCROP1_STRT, reg_value);
 1079              		.loc 1 1064 38 is_stmt 0 view .LVU358
 1080 00a0 B11A     		subs	r1, r6, r2
 1081              	.LVL95:
1065:../Resources/Drivers/STM32L4xx_HAL_Driver/Src/stm32l4xx_hal_flash_ex.c **** 
 1082              		.loc 1 1065 9 is_stmt 1 view .LVU359
 1083 00a2 1248     		ldr	r0, .L84+12
 1084 00a4 436A     		ldr	r3, [r0, #36]
 1085              	.LVL96:
1065:../Resources/Drivers/STM32L4xx_HAL_Driver/Src/stm32l4xx_hal_flash_ex.c **** 
 1086              		.loc 1 1065 9 is_stmt 0 view .LVU360
 1087 00a6 1B0C     		lsrs	r3, r3, #16
 1088 00a8 1B04     		lsls	r3, r3, #16
 1089 00aa 43EAD103 		orr	r3, r3, r1, lsr #3
 1090 00ae 4362     		str	r3, [r0, #36]
1067:../Resources/Drivers/STM32L4xx_HAL_Driver/Src/stm32l4xx_hal_flash_ex.c ****         MODIFY_REG(FLASH->PCROP1ER, FLASH_PCROP1ER_PCROP1_END, reg_value);
 1091              		.loc 1 1067 9 is_stmt 1 view .LVU361
1067:../Resources/Drivers/STM32L4xx_HAL_Driver/Src/stm32l4xx_hal_flash_ex.c ****         MODIFY_REG(FLASH->PCROP1ER, FLASH_PCROP1ER_PCROP1_END, reg_value);
 1092              		.loc 1 1067 36 is_stmt 0 view .LVU362
 1093 00b0 AA1A     		subs	r2, r5, r2
 1094              	.LVL97:
1068:../Resources/Drivers/STM32L4xx_HAL_Driver/Src/stm32l4xx_hal_flash_ex.c ****       }
 1095              		.loc 1 1068 9 is_stmt 1 view .LVU363
 1096 00b2 856A     		ldr	r5, [r0, #40]
 1097              	.LVL98:
1068:../Resources/Drivers/STM32L4xx_HAL_Driver/Src/stm32l4xx_hal_flash_ex.c ****       }
 1098              		.loc 1 1068 9 is_stmt 0 view .LVU364
 1099 00b4 2D0C     		lsrs	r5, r5, #16
 1100 00b6 2D04     		lsls	r5, r5, #16
 1101 00b8 45EAD202 		orr	r2, r5, r2, lsr #3
 1102              	.LVL99:
1068:../Resources/Drivers/STM32L4xx_HAL_Driver/Src/stm32l4xx_hal_flash_ex.c ****       }
 1103              		.loc 1 1068 9 view .LVU365
ARM GAS  /tmp/cchkkQtC.s 			page 48


 1104 00bc 8262     		str	r2, [r0, #40]
 1105 00be C2E7     		b	.L78
 1106              	.LVL100:
 1107              	.L83:
1076:../Resources/Drivers/STM32L4xx_HAL_Driver/Src/stm32l4xx_hal_flash_ex.c ****         MODIFY_REG(FLASH->PCROP2SR, FLASH_PCROP2SR_PCROP2_STRT, reg_value);
 1108              		.loc 1 1076 9 is_stmt 1 view .LVU366
1076:../Resources/Drivers/STM32L4xx_HAL_Driver/Src/stm32l4xx_hal_flash_ex.c ****         MODIFY_REG(FLASH->PCROP2SR, FLASH_PCROP2SR_PCROP2_STRT, reg_value);
 1109              		.loc 1 1076 38 is_stmt 0 view .LVU367
 1110 00c0 F11A     		subs	r1, r6, r3
 1111              	.LVL101:
1077:../Resources/Drivers/STM32L4xx_HAL_Driver/Src/stm32l4xx_hal_flash_ex.c **** 
 1112              		.loc 1 1077 9 is_stmt 1 view .LVU368
 1113 00c2 0A48     		ldr	r0, .L84+12
 1114 00c4 466C     		ldr	r6, [r0, #68]
 1115              	.LVL102:
1077:../Resources/Drivers/STM32L4xx_HAL_Driver/Src/stm32l4xx_hal_flash_ex.c **** 
 1116              		.loc 1 1077 9 is_stmt 0 view .LVU369
 1117 00c6 360C     		lsrs	r6, r6, #16
 1118 00c8 3604     		lsls	r6, r6, #16
 1119 00ca 46EAD106 		orr	r6, r6, r1, lsr #3
 1120 00ce 4664     		str	r6, [r0, #68]
1079:../Resources/Drivers/STM32L4xx_HAL_Driver/Src/stm32l4xx_hal_flash_ex.c ****         MODIFY_REG(FLASH->PCROP2ER, FLASH_PCROP2ER_PCROP2_END, reg_value);
 1121              		.loc 1 1079 9 is_stmt 1 view .LVU370
1079:../Resources/Drivers/STM32L4xx_HAL_Driver/Src/stm32l4xx_hal_flash_ex.c ****         MODIFY_REG(FLASH->PCROP2ER, FLASH_PCROP2ER_PCROP2_END, reg_value);
 1122              		.loc 1 1079 36 is_stmt 0 view .LVU371
 1123 00d0 EA1A     		subs	r2, r5, r3
 1124              	.LVL103:
1080:../Resources/Drivers/STM32L4xx_HAL_Driver/Src/stm32l4xx_hal_flash_ex.c ****       }
 1125              		.loc 1 1080 9 is_stmt 1 view .LVU372
 1126 00d2 856C     		ldr	r5, [r0, #72]
 1127              	.LVL104:
1080:../Resources/Drivers/STM32L4xx_HAL_Driver/Src/stm32l4xx_hal_flash_ex.c ****       }
 1128              		.loc 1 1080 9 is_stmt 0 view .LVU373
 1129 00d4 2D0C     		lsrs	r5, r5, #16
 1130 00d6 2D04     		lsls	r5, r5, #16
 1131 00d8 45EAD205 		orr	r5, r5, r2, lsr #3
 1132 00dc 8564     		str	r5, [r0, #72]
 1133 00de B2E7     		b	.L78
 1134              	.L85:
 1135              		.align	2
 1136              	.L84:
 1137 00e0 00000140 		.word	1073807360
 1138 00e4 0070FF1F 		.word	536834048
 1139 00e8 00FEFF01 		.word	33553920
 1140 00ec 00200240 		.word	1073881088
 1141 00f0 00000808 		.word	134742016
 1142              		.cfi_endproc
 1143              	.LFE142:
 1145              		.section	.text.HAL_FLASHEx_OBProgram,"ax",%progbits
 1146              		.align	1
 1147              		.global	HAL_FLASHEx_OBProgram
 1148              		.syntax unified
 1149              		.thumb
 1150              		.thumb_func
 1152              	HAL_FLASHEx_OBProgram:
 1153              	.LVL105:
 1154              	.LFB134:
ARM GAS  /tmp/cchkkQtC.s 			page 49


 298:../Resources/Drivers/STM32L4xx_HAL_Driver/Src/stm32l4xx_hal_flash_ex.c ****   HAL_StatusTypeDef status = HAL_OK;
 1155              		.loc 1 298 1 is_stmt 1 view -0
 1156              		.cfi_startproc
 1157              		@ args = 0, pretend = 0, frame = 0
 1158              		@ frame_needed = 0, uses_anonymous_args = 0
 298:../Resources/Drivers/STM32L4xx_HAL_Driver/Src/stm32l4xx_hal_flash_ex.c ****   HAL_StatusTypeDef status = HAL_OK;
 1159              		.loc 1 298 1 is_stmt 0 view .LVU375
 1160 0000 38B5     		push	{r3, r4, r5, lr}
 1161              	.LCFI7:
 1162              		.cfi_def_cfa_offset 16
 1163              		.cfi_offset 3, -16
 1164              		.cfi_offset 4, -12
 1165              		.cfi_offset 5, -8
 1166              		.cfi_offset 14, -4
 299:../Resources/Drivers/STM32L4xx_HAL_Driver/Src/stm32l4xx_hal_flash_ex.c **** 
 1167              		.loc 1 299 3 is_stmt 1 view .LVU376
 1168              	.LVL106:
 302:../Resources/Drivers/STM32L4xx_HAL_Driver/Src/stm32l4xx_hal_flash_ex.c **** 
 1169              		.loc 1 302 3 view .LVU377
 302:../Resources/Drivers/STM32L4xx_HAL_Driver/Src/stm32l4xx_hal_flash_ex.c **** 
 1170              		.loc 1 302 3 view .LVU378
 1171 0002 234B     		ldr	r3, .L103
 1172 0004 1B78     		ldrb	r3, [r3]	@ zero_extendqisi2
 1173 0006 012B     		cmp	r3, #1
 1174 0008 3FD0     		beq	.L92
 1175 000a 0446     		mov	r4, r0
 302:../Resources/Drivers/STM32L4xx_HAL_Driver/Src/stm32l4xx_hal_flash_ex.c **** 
 1176              		.loc 1 302 3 discriminator 2 view .LVU379
 1177 000c 204B     		ldr	r3, .L103
 1178 000e 0122     		movs	r2, #1
 1179 0010 1A70     		strb	r2, [r3]
 302:../Resources/Drivers/STM32L4xx_HAL_Driver/Src/stm32l4xx_hal_flash_ex.c **** 
 1180              		.loc 1 302 3 discriminator 2 view .LVU380
 305:../Resources/Drivers/STM32L4xx_HAL_Driver/Src/stm32l4xx_hal_flash_ex.c **** 
 1181              		.loc 1 305 3 discriminator 2 view .LVU381
 307:../Resources/Drivers/STM32L4xx_HAL_Driver/Src/stm32l4xx_hal_flash_ex.c **** 
 1182              		.loc 1 307 3 discriminator 2 view .LVU382
 307:../Resources/Drivers/STM32L4xx_HAL_Driver/Src/stm32l4xx_hal_flash_ex.c **** 
 1183              		.loc 1 307 20 is_stmt 0 discriminator 2 view .LVU383
 1184 0012 0022     		movs	r2, #0
 1185 0014 5A60     		str	r2, [r3, #4]
 310:../Resources/Drivers/STM32L4xx_HAL_Driver/Src/stm32l4xx_hal_flash_ex.c ****   {
 1186              		.loc 1 310 3 is_stmt 1 discriminator 2 view .LVU384
 310:../Resources/Drivers/STM32L4xx_HAL_Driver/Src/stm32l4xx_hal_flash_ex.c ****   {
 1187              		.loc 1 310 14 is_stmt 0 discriminator 2 view .LVU385
 1188 0016 0368     		ldr	r3, [r0]
 310:../Resources/Drivers/STM32L4xx_HAL_Driver/Src/stm32l4xx_hal_flash_ex.c ****   {
 1189              		.loc 1 310 5 discriminator 2 view .LVU386
 1190 0018 13F0010F 		tst	r3, #1
 1191 001c 15D1     		bne	.L99
 299:../Resources/Drivers/STM32L4xx_HAL_Driver/Src/stm32l4xx_hal_flash_ex.c **** 
 1192              		.loc 1 299 21 view .LVU387
 1193 001e 0025     		movs	r5, #0
 1194              	.LVL107:
 1195              	.L88:
 321:../Resources/Drivers/STM32L4xx_HAL_Driver/Src/stm32l4xx_hal_flash_ex.c ****   {
 1196              		.loc 1 321 3 is_stmt 1 view .LVU388
ARM GAS  /tmp/cchkkQtC.s 			page 50


 321:../Resources/Drivers/STM32L4xx_HAL_Driver/Src/stm32l4xx_hal_flash_ex.c ****   {
 1197              		.loc 1 321 14 is_stmt 0 view .LVU389
 1198 0020 2368     		ldr	r3, [r4]
 321:../Resources/Drivers/STM32L4xx_HAL_Driver/Src/stm32l4xx_hal_flash_ex.c ****   {
 1199              		.loc 1 321 5 view .LVU390
 1200 0022 13F0020F 		tst	r3, #2
 1201 0026 1AD1     		bne	.L100
 1202              	.LVL108:
 1203              	.L89:
 331:../Resources/Drivers/STM32L4xx_HAL_Driver/Src/stm32l4xx_hal_flash_ex.c ****   {
 1204              		.loc 1 331 3 is_stmt 1 view .LVU391
 331:../Resources/Drivers/STM32L4xx_HAL_Driver/Src/stm32l4xx_hal_flash_ex.c ****   {
 1205              		.loc 1 331 14 is_stmt 0 view .LVU392
 1206 0028 2368     		ldr	r3, [r4]
 331:../Resources/Drivers/STM32L4xx_HAL_Driver/Src/stm32l4xx_hal_flash_ex.c ****   {
 1207              		.loc 1 331 5 view .LVU393
 1208 002a 13F0040F 		tst	r3, #4
 1209 002e 1DD1     		bne	.L101
 1210              	.LVL109:
 1211              	.L90:
 341:../Resources/Drivers/STM32L4xx_HAL_Driver/Src/stm32l4xx_hal_flash_ex.c ****   {
 1212              		.loc 1 341 3 is_stmt 1 view .LVU394
 341:../Resources/Drivers/STM32L4xx_HAL_Driver/Src/stm32l4xx_hal_flash_ex.c ****   {
 1213              		.loc 1 341 14 is_stmt 0 view .LVU395
 1214 0030 2368     		ldr	r3, [r4]
 341:../Resources/Drivers/STM32L4xx_HAL_Driver/Src/stm32l4xx_hal_flash_ex.c ****   {
 1215              		.loc 1 341 5 view .LVU396
 1216 0032 13F0080F 		tst	r3, #8
 1217 0036 03D0     		beq	.L91
 343:../Resources/Drivers/STM32L4xx_HAL_Driver/Src/stm32l4xx_hal_flash_ex.c ****     {
 1218              		.loc 1 343 5 is_stmt 1 view .LVU397
 343:../Resources/Drivers/STM32L4xx_HAL_Driver/Src/stm32l4xx_hal_flash_ex.c ****     {
 1219              		.loc 1 343 16 is_stmt 0 view .LVU398
 1220 0038 216A     		ldr	r1, [r4, #32]
 343:../Resources/Drivers/STM32L4xx_HAL_Driver/Src/stm32l4xx_hal_flash_ex.c ****     {
 1221              		.loc 1 343 43 view .LVU399
 1222 003a 626A     		ldr	r2, [r4, #36]
 343:../Resources/Drivers/STM32L4xx_HAL_Driver/Src/stm32l4xx_hal_flash_ex.c ****     {
 1223              		.loc 1 343 8 view .LVU400
 1224 003c 9142     		cmp	r1, r2
 1225 003e 1DD1     		bne	.L102
 1226              	.LVL110:
 1227              	.L91:
 354:../Resources/Drivers/STM32L4xx_HAL_Driver/Src/stm32l4xx_hal_flash_ex.c **** 
 1228              		.loc 1 354 3 is_stmt 1 view .LVU401
 354:../Resources/Drivers/STM32L4xx_HAL_Driver/Src/stm32l4xx_hal_flash_ex.c **** 
 1229              		.loc 1 354 3 view .LVU402
 1230 0040 134B     		ldr	r3, .L103
 1231 0042 0022     		movs	r2, #0
 1232 0044 1A70     		strb	r2, [r3]
 354:../Resources/Drivers/STM32L4xx_HAL_Driver/Src/stm32l4xx_hal_flash_ex.c **** 
 1233              		.loc 1 354 3 view .LVU403
 356:../Resources/Drivers/STM32L4xx_HAL_Driver/Src/stm32l4xx_hal_flash_ex.c **** }
 1234              		.loc 1 356 3 view .LVU404
 1235              	.LVL111:
 1236              	.L87:
 357:../Resources/Drivers/STM32L4xx_HAL_Driver/Src/stm32l4xx_hal_flash_ex.c **** 
ARM GAS  /tmp/cchkkQtC.s 			page 51


 1237              		.loc 1 357 1 is_stmt 0 view .LVU405
 1238 0046 2846     		mov	r0, r5
 1239 0048 38BD     		pop	{r3, r4, r5, pc}
 1240              	.LVL112:
 1241              	.L99:
 313:../Resources/Drivers/STM32L4xx_HAL_Driver/Src/stm32l4xx_hal_flash_ex.c ****     {
 1242              		.loc 1 313 5 is_stmt 1 view .LVU406
 313:../Resources/Drivers/STM32L4xx_HAL_Driver/Src/stm32l4xx_hal_flash_ex.c ****     {
 1243              		.loc 1 313 8 is_stmt 0 view .LVU407
 1244 004a C268     		ldr	r2, [r0, #12]
 1245 004c 8168     		ldr	r1, [r0, #8]
 1246 004e 4068     		ldr	r0, [r0, #4]
 1247              	.LVL113:
 313:../Resources/Drivers/STM32L4xx_HAL_Driver/Src/stm32l4xx_hal_flash_ex.c ****     {
 1248              		.loc 1 313 8 view .LVU408
 1249 0050 FFF7FEFF 		bl	FLASH_OB_WRPConfig
 1250              	.LVL114:
 313:../Resources/Drivers/STM32L4xx_HAL_Driver/Src/stm32l4xx_hal_flash_ex.c ****     {
 1251              		.loc 1 313 7 view .LVU409
 1252 0054 0546     		mov	r5, r0
 1253 0056 0028     		cmp	r0, #0
 1254 0058 E2D0     		beq	.L88
 315:../Resources/Drivers/STM32L4xx_HAL_Driver/Src/stm32l4xx_hal_flash_ex.c ****     }
 1255              		.loc 1 315 14 view .LVU410
 1256 005a 0125     		movs	r5, #1
 1257 005c E0E7     		b	.L88
 1258              	.LVL115:
 1259              	.L100:
 324:../Resources/Drivers/STM32L4xx_HAL_Driver/Src/stm32l4xx_hal_flash_ex.c ****     {
 1260              		.loc 1 324 5 is_stmt 1 view .LVU411
 324:../Resources/Drivers/STM32L4xx_HAL_Driver/Src/stm32l4xx_hal_flash_ex.c ****     {
 1261              		.loc 1 324 8 is_stmt 0 view .LVU412
 1262 005e 2069     		ldr	r0, [r4, #16]
 1263 0060 FFF7FEFF 		bl	FLASH_OB_RDPConfig
 1264              	.LVL116:
 324:../Resources/Drivers/STM32L4xx_HAL_Driver/Src/stm32l4xx_hal_flash_ex.c ****     {
 1265              		.loc 1 324 7 view .LVU413
 1266 0064 0028     		cmp	r0, #0
 1267 0066 DFD0     		beq	.L89
 326:../Resources/Drivers/STM32L4xx_HAL_Driver/Src/stm32l4xx_hal_flash_ex.c ****     }
 1268              		.loc 1 326 14 view .LVU414
 1269 0068 0125     		movs	r5, #1
 1270              	.LVL117:
 326:../Resources/Drivers/STM32L4xx_HAL_Driver/Src/stm32l4xx_hal_flash_ex.c ****     }
 1271              		.loc 1 326 14 view .LVU415
 1272 006a DDE7     		b	.L89
 1273              	.LVL118:
 1274              	.L101:
 334:../Resources/Drivers/STM32L4xx_HAL_Driver/Src/stm32l4xx_hal_flash_ex.c ****     {
 1275              		.loc 1 334 5 is_stmt 1 view .LVU416
 334:../Resources/Drivers/STM32L4xx_HAL_Driver/Src/stm32l4xx_hal_flash_ex.c ****     {
 1276              		.loc 1 334 8 is_stmt 0 view .LVU417
 1277 006c A169     		ldr	r1, [r4, #24]
 1278 006e 6069     		ldr	r0, [r4, #20]
 1279 0070 FFF7FEFF 		bl	FLASH_OB_UserConfig
 1280              	.LVL119:
 334:../Resources/Drivers/STM32L4xx_HAL_Driver/Src/stm32l4xx_hal_flash_ex.c ****     {
ARM GAS  /tmp/cchkkQtC.s 			page 52


 1281              		.loc 1 334 7 view .LVU418
 1282 0074 0028     		cmp	r0, #0
 1283 0076 DBD0     		beq	.L90
 336:../Resources/Drivers/STM32L4xx_HAL_Driver/Src/stm32l4xx_hal_flash_ex.c ****     }
 1284              		.loc 1 336 14 view .LVU419
 1285 0078 0125     		movs	r5, #1
 1286              	.LVL120:
 336:../Resources/Drivers/STM32L4xx_HAL_Driver/Src/stm32l4xx_hal_flash_ex.c ****     }
 1287              		.loc 1 336 14 view .LVU420
 1288 007a D9E7     		b	.L90
 1289              	.LVL121:
 1290              	.L102:
 346:../Resources/Drivers/STM32L4xx_HAL_Driver/Src/stm32l4xx_hal_flash_ex.c ****       {
 1291              		.loc 1 346 7 is_stmt 1 view .LVU421
 346:../Resources/Drivers/STM32L4xx_HAL_Driver/Src/stm32l4xx_hal_flash_ex.c ****       {
 1292              		.loc 1 346 10 is_stmt 0 view .LVU422
 1293 007c E069     		ldr	r0, [r4, #28]
 1294 007e FFF7FEFF 		bl	FLASH_OB_PCROPConfig
 1295              	.LVL122:
 346:../Resources/Drivers/STM32L4xx_HAL_Driver/Src/stm32l4xx_hal_flash_ex.c ****       {
 1296              		.loc 1 346 9 view .LVU423
 1297 0082 0028     		cmp	r0, #0
 1298 0084 DCD0     		beq	.L91
 348:../Resources/Drivers/STM32L4xx_HAL_Driver/Src/stm32l4xx_hal_flash_ex.c ****       }
 1299              		.loc 1 348 16 view .LVU424
 1300 0086 0125     		movs	r5, #1
 1301              	.LVL123:
 348:../Resources/Drivers/STM32L4xx_HAL_Driver/Src/stm32l4xx_hal_flash_ex.c ****       }
 1302              		.loc 1 348 16 view .LVU425
 1303 0088 DAE7     		b	.L91
 1304              	.LVL124:
 1305              	.L92:
 302:../Resources/Drivers/STM32L4xx_HAL_Driver/Src/stm32l4xx_hal_flash_ex.c **** 
 1306              		.loc 1 302 3 view .LVU426
 1307 008a 0225     		movs	r5, #2
 1308 008c DBE7     		b	.L87
 1309              	.L104:
 1310 008e 00BF     		.align	2
 1311              	.L103:
 1312 0090 00000000 		.word	pFlash
 1313              		.cfi_endproc
 1314              	.LFE134:
 1316              		.section	.text.HAL_FLASHEx_OBGetConfig,"ax",%progbits
 1317              		.align	1
 1318              		.global	HAL_FLASHEx_OBGetConfig
 1319              		.syntax unified
 1320              		.thumb
 1321              		.thumb_func
 1323              	HAL_FLASHEx_OBGetConfig:
 1324              	.LVL125:
 1325              	.LFB135:
 369:../Resources/Drivers/STM32L4xx_HAL_Driver/Src/stm32l4xx_hal_flash_ex.c ****   pOBInit->OptionType = (OPTIONBYTE_RDP | OPTIONBYTE_USER);
 1326              		.loc 1 369 1 is_stmt 1 view -0
 1327              		.cfi_startproc
 1328              		@ args = 0, pretend = 0, frame = 0
 1329              		@ frame_needed = 0, uses_anonymous_args = 0
 369:../Resources/Drivers/STM32L4xx_HAL_Driver/Src/stm32l4xx_hal_flash_ex.c ****   pOBInit->OptionType = (OPTIONBYTE_RDP | OPTIONBYTE_USER);
ARM GAS  /tmp/cchkkQtC.s 			page 53


 1330              		.loc 1 369 1 is_stmt 0 view .LVU428
 1331 0000 10B5     		push	{r4, lr}
 1332              	.LCFI8:
 1333              		.cfi_def_cfa_offset 8
 1334              		.cfi_offset 4, -8
 1335              		.cfi_offset 14, -4
 1336 0002 0446     		mov	r4, r0
 370:../Resources/Drivers/STM32L4xx_HAL_Driver/Src/stm32l4xx_hal_flash_ex.c **** 
 1337              		.loc 1 370 3 is_stmt 1 view .LVU429
 370:../Resources/Drivers/STM32L4xx_HAL_Driver/Src/stm32l4xx_hal_flash_ex.c **** 
 1338              		.loc 1 370 23 is_stmt 0 view .LVU430
 1339 0004 0623     		movs	r3, #6
 1340 0006 0360     		str	r3, [r0]
 376:../Resources/Drivers/STM32L4xx_HAL_Driver/Src/stm32l4xx_hal_flash_ex.c ****      (pOBInit->WRPArea == OB_WRPAREA_BANK2_AREAA) || (pOBInit->WRPArea == OB_WRPAREA_BANK2_AREAB))
 1341              		.loc 1 376 3 is_stmt 1 view .LVU431
 376:../Resources/Drivers/STM32L4xx_HAL_Driver/Src/stm32l4xx_hal_flash_ex.c ****      (pOBInit->WRPArea == OB_WRPAREA_BANK2_AREAA) || (pOBInit->WRPArea == OB_WRPAREA_BANK2_AREAB))
 1342              		.loc 1 376 14 is_stmt 0 view .LVU432
 1343 0008 4068     		ldr	r0, [r0, #4]
 1344              	.LVL126:
 376:../Resources/Drivers/STM32L4xx_HAL_Driver/Src/stm32l4xx_hal_flash_ex.c ****      (pOBInit->WRPArea == OB_WRPAREA_BANK2_AREAA) || (pOBInit->WRPArea == OB_WRPAREA_BANK2_AREAB))
 1345              		.loc 1 376 5 view .LVU433
 1346 000a 0228     		cmp	r0, #2
 1347 000c 01D9     		bls	.L106
 377:../Resources/Drivers/STM32L4xx_HAL_Driver/Src/stm32l4xx_hal_flash_ex.c **** #else
 1348              		.loc 1 377 51 view .LVU434
 1349 000e 0428     		cmp	r0, #4
 1350 0010 07D1     		bne	.L107
 1351              	.L106:
 382:../Resources/Drivers/STM32L4xx_HAL_Driver/Src/stm32l4xx_hal_flash_ex.c ****     /* Get write protection on the selected area */
 1352              		.loc 1 382 5 is_stmt 1 view .LVU435
 382:../Resources/Drivers/STM32L4xx_HAL_Driver/Src/stm32l4xx_hal_flash_ex.c ****     /* Get write protection on the selected area */
 1353              		.loc 1 382 25 is_stmt 0 view .LVU436
 1354 0012 2246     		mov	r2, r4
 1355 0014 0723     		movs	r3, #7
 1356 0016 42F80C3B 		str	r3, [r2], #12
 384:../Resources/Drivers/STM32L4xx_HAL_Driver/Src/stm32l4xx_hal_flash_ex.c ****   }
 1357              		.loc 1 384 5 is_stmt 1 view .LVU437
 1358 001a 04F10801 		add	r1, r4, #8
 1359 001e FFF7FEFF 		bl	FLASH_OB_GetWRP
 1360              	.LVL127:
 1361              	.L107:
 388:../Resources/Drivers/STM32L4xx_HAL_Driver/Src/stm32l4xx_hal_flash_ex.c **** 
 1362              		.loc 1 388 3 view .LVU438
 388:../Resources/Drivers/STM32L4xx_HAL_Driver/Src/stm32l4xx_hal_flash_ex.c **** 
 1363              		.loc 1 388 23 is_stmt 0 view .LVU439
 1364 0022 FFF7FEFF 		bl	FLASH_OB_GetRDP
 1365              	.LVL128:
 388:../Resources/Drivers/STM32L4xx_HAL_Driver/Src/stm32l4xx_hal_flash_ex.c **** 
 1366              		.loc 1 388 21 view .LVU440
 1367 0026 2061     		str	r0, [r4, #16]
 391:../Resources/Drivers/STM32L4xx_HAL_Driver/Src/stm32l4xx_hal_flash_ex.c **** 
 1368              		.loc 1 391 3 is_stmt 1 view .LVU441
 391:../Resources/Drivers/STM32L4xx_HAL_Driver/Src/stm32l4xx_hal_flash_ex.c **** 
 1369              		.loc 1 391 25 is_stmt 0 view .LVU442
 1370 0028 FFF7FEFF 		bl	FLASH_OB_GetUser
 1371              	.LVL129:
 391:../Resources/Drivers/STM32L4xx_HAL_Driver/Src/stm32l4xx_hal_flash_ex.c **** 
ARM GAS  /tmp/cchkkQtC.s 			page 54


 1372              		.loc 1 391 23 view .LVU443
 1373 002c A061     		str	r0, [r4, #24]
 397:../Resources/Drivers/STM32L4xx_HAL_Driver/Src/stm32l4xx_hal_flash_ex.c **** #else
 1374              		.loc 1 397 3 is_stmt 1 view .LVU444
 397:../Resources/Drivers/STM32L4xx_HAL_Driver/Src/stm32l4xx_hal_flash_ex.c **** #else
 1375              		.loc 1 397 14 is_stmt 0 view .LVU445
 1376 002e E369     		ldr	r3, [r4, #28]
 397:../Resources/Drivers/STM32L4xx_HAL_Driver/Src/stm32l4xx_hal_flash_ex.c **** #else
 1377              		.loc 1 397 45 view .LVU446
 1378 0030 013B     		subs	r3, r3, #1
 397:../Resources/Drivers/STM32L4xx_HAL_Driver/Src/stm32l4xx_hal_flash_ex.c **** #else
 1379              		.loc 1 397 5 view .LVU447
 1380 0032 012B     		cmp	r3, #1
 1381 0034 00D9     		bls	.L110
 1382              	.L105:
 406:../Resources/Drivers/STM32L4xx_HAL_Driver/Src/stm32l4xx_hal_flash_ex.c **** 
 1383              		.loc 1 406 1 view .LVU448
 1384 0036 10BD     		pop	{r4, pc}
 1385              	.LVL130:
 1386              	.L110:
 402:../Resources/Drivers/STM32L4xx_HAL_Driver/Src/stm32l4xx_hal_flash_ex.c ****     /* Get the Proprietary code readout protection */
 1387              		.loc 1 402 5 is_stmt 1 view .LVU449
 402:../Resources/Drivers/STM32L4xx_HAL_Driver/Src/stm32l4xx_hal_flash_ex.c ****     /* Get the Proprietary code readout protection */
 1388              		.loc 1 402 25 is_stmt 0 view .LVU450
 1389 0038 2368     		ldr	r3, [r4]
 1390 003a 43F00803 		orr	r3, r3, #8
 1391 003e 2246     		mov	r2, r4
 1392 0040 42F8243B 		str	r3, [r2], #36
 404:../Resources/Drivers/STM32L4xx_HAL_Driver/Src/stm32l4xx_hal_flash_ex.c ****   }
 1393              		.loc 1 404 5 is_stmt 1 view .LVU451
 1394 0044 04F12001 		add	r1, r4, #32
 1395 0048 04F11C00 		add	r0, r4, #28
 1396 004c FFF7FEFF 		bl	FLASH_OB_GetPCROP
 1397              	.LVL131:
 406:../Resources/Drivers/STM32L4xx_HAL_Driver/Src/stm32l4xx_hal_flash_ex.c **** 
 1398              		.loc 1 406 1 is_stmt 0 view .LVU452
 1399 0050 F1E7     		b	.L105
 1400              		.cfi_endproc
 1401              	.LFE135:
 1403              		.section	.text.FLASH_PageErase,"ax",%progbits
 1404              		.align	1
 1405              		.global	FLASH_PageErase
 1406              		.syntax unified
 1407              		.thumb
 1408              		.thumb_func
 1410              	FLASH_PageErase:
 1411              	.LVL132:
 1412              	.LFB137:
 552:../Resources/Drivers/STM32L4xx_HAL_Driver/Src/stm32l4xx_hal_flash_ex.c ****   /* Check the parameters */
 1413              		.loc 1 552 1 is_stmt 1 view -0
 1414              		.cfi_startproc
 1415              		@ args = 0, pretend = 0, frame = 0
 1416              		@ frame_needed = 0, uses_anonymous_args = 0
 1417              		@ link register save eliminated.
 554:../Resources/Drivers/STM32L4xx_HAL_Driver/Src/stm32l4xx_hal_flash_ex.c **** 
 1418              		.loc 1 554 3 view .LVU454
 568:../Resources/Drivers/STM32L4xx_HAL_Driver/Src/stm32l4xx_hal_flash_ex.c **** 
ARM GAS  /tmp/cchkkQtC.s 			page 55


 1419              		.loc 1 568 5 view .LVU455
 570:../Resources/Drivers/STM32L4xx_HAL_Driver/Src/stm32l4xx_hal_flash_ex.c ****     {
 1420              		.loc 1 570 5 view .LVU456
 570:../Resources/Drivers/STM32L4xx_HAL_Driver/Src/stm32l4xx_hal_flash_ex.c ****     {
 1421              		.loc 1 570 7 is_stmt 0 view .LVU457
 1422 0000 11F0010F 		tst	r1, #1
 1423 0004 16D0     		beq	.L112
 572:../Resources/Drivers/STM32L4xx_HAL_Driver/Src/stm32l4xx_hal_flash_ex.c ****     }
 1424              		.loc 1 572 7 is_stmt 1 view .LVU458
 1425 0006 0E4A     		ldr	r2, .L114
 1426 0008 5369     		ldr	r3, [r2, #20]
 1427 000a 23F40063 		bic	r3, r3, #2048
 1428 000e 5361     		str	r3, [r2, #20]
 1429              	.L113:
 585:../Resources/Drivers/STM32L4xx_HAL_Driver/Src/stm32l4xx_hal_flash_ex.c ****   SET_BIT(FLASH->CR, FLASH_CR_PER);
 1430              		.loc 1 585 3 view .LVU459
 1431 0010 0B4B     		ldr	r3, .L114
 1432 0012 5A69     		ldr	r2, [r3, #20]
 1433 0014 22F4FF62 		bic	r2, r2, #2040
 1434 0018 C000     		lsls	r0, r0, #3
 1435              	.LVL133:
 585:../Resources/Drivers/STM32L4xx_HAL_Driver/Src/stm32l4xx_hal_flash_ex.c ****   SET_BIT(FLASH->CR, FLASH_CR_PER);
 1436              		.loc 1 585 3 is_stmt 0 view .LVU460
 1437 001a 00F4FF60 		and	r0, r0, #2040
 1438 001e 1043     		orrs	r0, r0, r2
 1439 0020 5861     		str	r0, [r3, #20]
 586:../Resources/Drivers/STM32L4xx_HAL_Driver/Src/stm32l4xx_hal_flash_ex.c ****   SET_BIT(FLASH->CR, FLASH_CR_STRT);
 1440              		.loc 1 586 3 is_stmt 1 view .LVU461
 1441 0022 5A69     		ldr	r2, [r3, #20]
 1442 0024 42F00202 		orr	r2, r2, #2
 1443 0028 5A61     		str	r2, [r3, #20]
 587:../Resources/Drivers/STM32L4xx_HAL_Driver/Src/stm32l4xx_hal_flash_ex.c **** }
 1444              		.loc 1 587 3 view .LVU462
 1445 002a 5A69     		ldr	r2, [r3, #20]
 1446 002c 42F48032 		orr	r2, r2, #65536
 1447 0030 5A61     		str	r2, [r3, #20]
 588:../Resources/Drivers/STM32L4xx_HAL_Driver/Src/stm32l4xx_hal_flash_ex.c **** 
 1448              		.loc 1 588 1 is_stmt 0 view .LVU463
 1449 0032 7047     		bx	lr
 1450              	.LVL134:
 1451              	.L112:
 576:../Resources/Drivers/STM32L4xx_HAL_Driver/Src/stm32l4xx_hal_flash_ex.c ****     }
 1452              		.loc 1 576 7 is_stmt 1 view .LVU464
 1453 0034 024A     		ldr	r2, .L114
 1454 0036 5369     		ldr	r3, [r2, #20]
 1455 0038 43F40063 		orr	r3, r3, #2048
 1456 003c 5361     		str	r3, [r2, #20]
 1457 003e E7E7     		b	.L113
 1458              	.L115:
 1459              		.align	2
 1460              	.L114:
 1461 0040 00200240 		.word	1073881088
 1462              		.cfi_endproc
 1463              	.LFE137:
 1465              		.section	.text.HAL_FLASHEx_Erase_IT,"ax",%progbits
 1466              		.align	1
 1467              		.global	HAL_FLASHEx_Erase_IT
ARM GAS  /tmp/cchkkQtC.s 			page 56


 1468              		.syntax unified
 1469              		.thumb
 1470              		.thumb_func
 1472              	HAL_FLASHEx_Erase_IT:
 1473              	.LVL135:
 1474              	.LFB133:
 229:../Resources/Drivers/STM32L4xx_HAL_Driver/Src/stm32l4xx_hal_flash_ex.c ****   HAL_StatusTypeDef status = HAL_OK;
 1475              		.loc 1 229 1 view -0
 1476              		.cfi_startproc
 1477              		@ args = 0, pretend = 0, frame = 0
 1478              		@ frame_needed = 0, uses_anonymous_args = 0
 230:../Resources/Drivers/STM32L4xx_HAL_Driver/Src/stm32l4xx_hal_flash_ex.c **** 
 1479              		.loc 1 230 3 view .LVU466
 233:../Resources/Drivers/STM32L4xx_HAL_Driver/Src/stm32l4xx_hal_flash_ex.c **** 
 1480              		.loc 1 233 3 view .LVU467
 233:../Resources/Drivers/STM32L4xx_HAL_Driver/Src/stm32l4xx_hal_flash_ex.c **** 
 1481              		.loc 1 233 3 view .LVU468
 1482 0000 294A     		ldr	r2, .L129
 1483 0002 1278     		ldrb	r2, [r2]	@ zero_extendqisi2
 1484 0004 012A     		cmp	r2, #1
 1485 0006 4DD0     		beq	.L123
 229:../Resources/Drivers/STM32L4xx_HAL_Driver/Src/stm32l4xx_hal_flash_ex.c ****   HAL_StatusTypeDef status = HAL_OK;
 1486              		.loc 1 229 1 is_stmt 0 discriminator 2 view .LVU469
 1487 0008 08B5     		push	{r3, lr}
 1488              	.LCFI9:
 1489              		.cfi_def_cfa_offset 8
 1490              		.cfi_offset 3, -8
 1491              		.cfi_offset 14, -4
 1492 000a 0346     		mov	r3, r0
 233:../Resources/Drivers/STM32L4xx_HAL_Driver/Src/stm32l4xx_hal_flash_ex.c **** 
 1493              		.loc 1 233 3 is_stmt 1 discriminator 2 view .LVU470
 1494 000c 264A     		ldr	r2, .L129
 1495 000e 0121     		movs	r1, #1
 1496 0010 1170     		strb	r1, [r2]
 233:../Resources/Drivers/STM32L4xx_HAL_Driver/Src/stm32l4xx_hal_flash_ex.c **** 
 1497              		.loc 1 233 3 discriminator 2 view .LVU471
 236:../Resources/Drivers/STM32L4xx_HAL_Driver/Src/stm32l4xx_hal_flash_ex.c **** 
 1498              		.loc 1 236 3 discriminator 2 view .LVU472
 238:../Resources/Drivers/STM32L4xx_HAL_Driver/Src/stm32l4xx_hal_flash_ex.c **** 
 1499              		.loc 1 238 3 discriminator 2 view .LVU473
 238:../Resources/Drivers/STM32L4xx_HAL_Driver/Src/stm32l4xx_hal_flash_ex.c **** 
 1500              		.loc 1 238 20 is_stmt 0 discriminator 2 view .LVU474
 1501 0012 0021     		movs	r1, #0
 1502 0014 5160     		str	r1, [r2, #4]
 241:../Resources/Drivers/STM32L4xx_HAL_Driver/Src/stm32l4xx_hal_flash_ex.c ****   {
 1503              		.loc 1 241 3 is_stmt 1 discriminator 2 view .LVU475
 241:../Resources/Drivers/STM32L4xx_HAL_Driver/Src/stm32l4xx_hal_flash_ex.c ****   {
 1504              		.loc 1 241 6 is_stmt 0 discriminator 2 view .LVU476
 1505 0016 254A     		ldr	r2, .L129+4
 1506 0018 1268     		ldr	r2, [r2]
 241:../Resources/Drivers/STM32L4xx_HAL_Driver/Src/stm32l4xx_hal_flash_ex.c ****   {
 1507              		.loc 1 241 5 discriminator 2 view .LVU477
 1508 001a 12F4007F 		tst	r2, #512
 1509 001e 27D0     		beq	.L118
 243:../Resources/Drivers/STM32L4xx_HAL_Driver/Src/stm32l4xx_hal_flash_ex.c ****     {
 1510              		.loc 1 243 5 is_stmt 1 view .LVU478
 243:../Resources/Drivers/STM32L4xx_HAL_Driver/Src/stm32l4xx_hal_flash_ex.c ****     {
ARM GAS  /tmp/cchkkQtC.s 			page 57


 1511              		.loc 1 243 8 is_stmt 0 view .LVU479
 1512 0020 224A     		ldr	r2, .L129+4
 1513 0022 1268     		ldr	r2, [r2]
 243:../Resources/Drivers/STM32L4xx_HAL_Driver/Src/stm32l4xx_hal_flash_ex.c ****     {
 1514              		.loc 1 243 7 view .LVU480
 1515 0024 12F4806F 		tst	r2, #1024
 1516 0028 1ED0     		beq	.L119
 246:../Resources/Drivers/STM32L4xx_HAL_Driver/Src/stm32l4xx_hal_flash_ex.c ****       pFlash.CacheToReactivate = FLASH_CACHE_ICACHE_DCACHE_ENABLED;
 1517              		.loc 1 246 7 is_stmt 1 view .LVU481
 1518 002a 2049     		ldr	r1, .L129+4
 1519 002c 0A68     		ldr	r2, [r1]
 1520 002e 22F48062 		bic	r2, r2, #1024
 1521 0032 0A60     		str	r2, [r1]
 247:../Resources/Drivers/STM32L4xx_HAL_Driver/Src/stm32l4xx_hal_flash_ex.c ****     }
 1522              		.loc 1 247 7 view .LVU482
 247:../Resources/Drivers/STM32L4xx_HAL_Driver/Src/stm32l4xx_hal_flash_ex.c ****     }
 1523              		.loc 1 247 32 is_stmt 0 view .LVU483
 1524 0034 1C4A     		ldr	r2, .L129
 1525 0036 0321     		movs	r1, #3
 1526 0038 1177     		strb	r1, [r2, #28]
 1527              	.L120:
 266:../Resources/Drivers/STM32L4xx_HAL_Driver/Src/stm32l4xx_hal_flash_ex.c **** 
 1528              		.loc 1 266 3 is_stmt 1 discriminator 4 view .LVU484
 266:../Resources/Drivers/STM32L4xx_HAL_Driver/Src/stm32l4xx_hal_flash_ex.c **** 
 1529              		.loc 1 266 3 discriminator 4 view .LVU485
 266:../Resources/Drivers/STM32L4xx_HAL_Driver/Src/stm32l4xx_hal_flash_ex.c **** 
 1530              		.loc 1 266 3 discriminator 4 view .LVU486
 266:../Resources/Drivers/STM32L4xx_HAL_Driver/Src/stm32l4xx_hal_flash_ex.c **** 
 1531              		.loc 1 266 3 discriminator 4 view .LVU487
 1532 003a 1C49     		ldr	r1, .L129+4
 1533 003c 4A69     		ldr	r2, [r1, #20]
 1534 003e 42F04072 		orr	r2, r2, #50331648
 1535 0042 4A61     		str	r2, [r1, #20]
 266:../Resources/Drivers/STM32L4xx_HAL_Driver/Src/stm32l4xx_hal_flash_ex.c **** 
 1536              		.loc 1 266 3 discriminator 4 view .LVU488
 268:../Resources/Drivers/STM32L4xx_HAL_Driver/Src/stm32l4xx_hal_flash_ex.c **** 
 1537              		.loc 1 268 3 discriminator 4 view .LVU489
 268:../Resources/Drivers/STM32L4xx_HAL_Driver/Src/stm32l4xx_hal_flash_ex.c **** 
 1538              		.loc 1 268 27 is_stmt 0 discriminator 4 view .LVU490
 1539 0044 5968     		ldr	r1, [r3, #4]
 268:../Resources/Drivers/STM32L4xx_HAL_Driver/Src/stm32l4xx_hal_flash_ex.c **** 
 1540              		.loc 1 268 15 discriminator 4 view .LVU491
 1541 0046 184A     		ldr	r2, .L129
 1542 0048 1161     		str	r1, [r2, #16]
 270:../Resources/Drivers/STM32L4xx_HAL_Driver/Src/stm32l4xx_hal_flash_ex.c ****   {
 1543              		.loc 1 270 3 is_stmt 1 discriminator 4 view .LVU492
 270:../Resources/Drivers/STM32L4xx_HAL_Driver/Src/stm32l4xx_hal_flash_ex.c ****   {
 1544              		.loc 1 270 17 is_stmt 0 discriminator 4 view .LVU493
 1545 004a 1A68     		ldr	r2, [r3]
 270:../Resources/Drivers/STM32L4xx_HAL_Driver/Src/stm32l4xx_hal_flash_ex.c ****   {
 1546              		.loc 1 270 6 discriminator 4 view .LVU494
 1547 004c 012A     		cmp	r2, #1
 1548 004e 21D0     		beq	.L128
 279:../Resources/Drivers/STM32L4xx_HAL_Driver/Src/stm32l4xx_hal_flash_ex.c ****     pFlash.NbPagesToErase = pEraseInit->NbPages;
 1549              		.loc 1 279 5 is_stmt 1 view .LVU495
 279:../Resources/Drivers/STM32L4xx_HAL_Driver/Src/stm32l4xx_hal_flash_ex.c ****     pFlash.NbPagesToErase = pEraseInit->NbPages;
 1550              		.loc 1 279 29 is_stmt 0 view .LVU496
ARM GAS  /tmp/cchkkQtC.s 			page 58


 1551 0050 154A     		ldr	r2, .L129
 1552 0052 0121     		movs	r1, #1
 1553 0054 1172     		strb	r1, [r2, #8]
 280:../Resources/Drivers/STM32L4xx_HAL_Driver/Src/stm32l4xx_hal_flash_ex.c ****     pFlash.Page = pEraseInit->Page;
 1554              		.loc 1 280 5 is_stmt 1 view .LVU497
 280:../Resources/Drivers/STM32L4xx_HAL_Driver/Src/stm32l4xx_hal_flash_ex.c ****     pFlash.Page = pEraseInit->Page;
 1555              		.loc 1 280 39 is_stmt 0 view .LVU498
 1556 0056 D968     		ldr	r1, [r3, #12]
 280:../Resources/Drivers/STM32L4xx_HAL_Driver/Src/stm32l4xx_hal_flash_ex.c ****     pFlash.Page = pEraseInit->Page;
 1557              		.loc 1 280 27 view .LVU499
 1558 0058 9161     		str	r1, [r2, #24]
 281:../Resources/Drivers/STM32L4xx_HAL_Driver/Src/stm32l4xx_hal_flash_ex.c **** 
 1559              		.loc 1 281 5 is_stmt 1 view .LVU500
 281:../Resources/Drivers/STM32L4xx_HAL_Driver/Src/stm32l4xx_hal_flash_ex.c **** 
 1560              		.loc 1 281 29 is_stmt 0 view .LVU501
 1561 005a 9868     		ldr	r0, [r3, #8]
 1562              	.LVL136:
 281:../Resources/Drivers/STM32L4xx_HAL_Driver/Src/stm32l4xx_hal_flash_ex.c **** 
 1563              		.loc 1 281 17 view .LVU502
 1564 005c 5061     		str	r0, [r2, #20]
 284:../Resources/Drivers/STM32L4xx_HAL_Driver/Src/stm32l4xx_hal_flash_ex.c ****   }
 1565              		.loc 1 284 5 is_stmt 1 view .LVU503
 1566 005e 5968     		ldr	r1, [r3, #4]
 1567 0060 FFF7FEFF 		bl	FLASH_PageErase
 1568              	.LVL137:
 287:../Resources/Drivers/STM32L4xx_HAL_Driver/Src/stm32l4xx_hal_flash_ex.c **** }
 1569              		.loc 1 287 10 is_stmt 0 view .LVU504
 1570 0064 0020     		movs	r0, #0
 1571              	.L117:
 288:../Resources/Drivers/STM32L4xx_HAL_Driver/Src/stm32l4xx_hal_flash_ex.c **** 
 1572              		.loc 1 288 1 view .LVU505
 1573 0066 08BD     		pop	{r3, pc}
 1574              	.LVL138:
 1575              	.L119:
 251:../Resources/Drivers/STM32L4xx_HAL_Driver/Src/stm32l4xx_hal_flash_ex.c ****     }
 1576              		.loc 1 251 7 is_stmt 1 view .LVU506
 251:../Resources/Drivers/STM32L4xx_HAL_Driver/Src/stm32l4xx_hal_flash_ex.c ****     }
 1577              		.loc 1 251 32 is_stmt 0 view .LVU507
 1578 0068 0F4A     		ldr	r2, .L129
 1579 006a 0121     		movs	r1, #1
 1580 006c 1177     		strb	r1, [r2, #28]
 1581 006e E4E7     		b	.L120
 1582              	.L118:
 254:../Resources/Drivers/STM32L4xx_HAL_Driver/Src/stm32l4xx_hal_flash_ex.c ****   {
 1583              		.loc 1 254 8 is_stmt 1 view .LVU508
 254:../Resources/Drivers/STM32L4xx_HAL_Driver/Src/stm32l4xx_hal_flash_ex.c ****   {
 1584              		.loc 1 254 11 is_stmt 0 view .LVU509
 1585 0070 0E4A     		ldr	r2, .L129+4
 1586 0072 1268     		ldr	r2, [r2]
 254:../Resources/Drivers/STM32L4xx_HAL_Driver/Src/stm32l4xx_hal_flash_ex.c ****   {
 1587              		.loc 1 254 10 view .LVU510
 1588 0074 12F4806F 		tst	r2, #1024
 1589 0078 08D0     		beq	.L121
 257:../Resources/Drivers/STM32L4xx_HAL_Driver/Src/stm32l4xx_hal_flash_ex.c ****     pFlash.CacheToReactivate = FLASH_CACHE_DCACHE_ENABLED;
 1590              		.loc 1 257 5 is_stmt 1 view .LVU511
 1591 007a 0C49     		ldr	r1, .L129+4
 1592 007c 0A68     		ldr	r2, [r1]
ARM GAS  /tmp/cchkkQtC.s 			page 59


 1593 007e 22F48062 		bic	r2, r2, #1024
 1594 0082 0A60     		str	r2, [r1]
 258:../Resources/Drivers/STM32L4xx_HAL_Driver/Src/stm32l4xx_hal_flash_ex.c ****   }
 1595              		.loc 1 258 5 view .LVU512
 258:../Resources/Drivers/STM32L4xx_HAL_Driver/Src/stm32l4xx_hal_flash_ex.c ****   }
 1596              		.loc 1 258 30 is_stmt 0 view .LVU513
 1597 0084 084A     		ldr	r2, .L129
 1598 0086 0221     		movs	r1, #2
 1599 0088 1177     		strb	r1, [r2, #28]
 1600 008a D6E7     		b	.L120
 1601              	.L121:
 262:../Resources/Drivers/STM32L4xx_HAL_Driver/Src/stm32l4xx_hal_flash_ex.c ****   }
 1602              		.loc 1 262 5 is_stmt 1 view .LVU514
 262:../Resources/Drivers/STM32L4xx_HAL_Driver/Src/stm32l4xx_hal_flash_ex.c ****   }
 1603              		.loc 1 262 30 is_stmt 0 view .LVU515
 1604 008c 064A     		ldr	r2, .L129
 1605 008e 0021     		movs	r1, #0
 1606 0090 1177     		strb	r1, [r2, #28]
 1607 0092 D2E7     		b	.L120
 1608              	.L128:
 273:../Resources/Drivers/STM32L4xx_HAL_Driver/Src/stm32l4xx_hal_flash_ex.c ****     FLASH_MassErase(pEraseInit->Banks);
 1609              		.loc 1 273 5 is_stmt 1 view .LVU516
 273:../Resources/Drivers/STM32L4xx_HAL_Driver/Src/stm32l4xx_hal_flash_ex.c ****     FLASH_MassErase(pEraseInit->Banks);
 1610              		.loc 1 273 29 is_stmt 0 view .LVU517
 1611 0094 044A     		ldr	r2, .L129
 1612 0096 0221     		movs	r1, #2
 1613 0098 1172     		strb	r1, [r2, #8]
 274:../Resources/Drivers/STM32L4xx_HAL_Driver/Src/stm32l4xx_hal_flash_ex.c ****   }
 1614              		.loc 1 274 5 is_stmt 1 view .LVU518
 1615 009a 5868     		ldr	r0, [r3, #4]
 1616              	.LVL139:
 274:../Resources/Drivers/STM32L4xx_HAL_Driver/Src/stm32l4xx_hal_flash_ex.c ****   }
 1617              		.loc 1 274 5 is_stmt 0 view .LVU519
 1618 009c FFF7FEFF 		bl	FLASH_MassErase
 1619              	.LVL140:
 287:../Resources/Drivers/STM32L4xx_HAL_Driver/Src/stm32l4xx_hal_flash_ex.c **** }
 1620              		.loc 1 287 10 view .LVU520
 1621 00a0 0020     		movs	r0, #0
 1622 00a2 E0E7     		b	.L117
 1623              	.LVL141:
 1624              	.L123:
 1625              	.LCFI10:
 1626              		.cfi_def_cfa_offset 0
 1627              		.cfi_restore 3
 1628              		.cfi_restore 14
 233:../Resources/Drivers/STM32L4xx_HAL_Driver/Src/stm32l4xx_hal_flash_ex.c **** 
 1629              		.loc 1 233 3 view .LVU521
 1630 00a4 0220     		movs	r0, #2
 1631              	.LVL142:
 288:../Resources/Drivers/STM32L4xx_HAL_Driver/Src/stm32l4xx_hal_flash_ex.c **** 
 1632              		.loc 1 288 1 view .LVU522
 1633 00a6 7047     		bx	lr
 1634              	.L130:
 1635              		.align	2
 1636              	.L129:
 1637 00a8 00000000 		.word	pFlash
 1638 00ac 00200240 		.word	1073881088
ARM GAS  /tmp/cchkkQtC.s 			page 60


 1639              		.cfi_endproc
 1640              	.LFE133:
 1642              		.section	.text.FLASH_FlushCaches,"ax",%progbits
 1643              		.align	1
 1644              		.global	FLASH_FlushCaches
 1645              		.syntax unified
 1646              		.thumb
 1647              		.thumb_func
 1649              	FLASH_FlushCaches:
 1650              	.LFB138:
 595:../Resources/Drivers/STM32L4xx_HAL_Driver/Src/stm32l4xx_hal_flash_ex.c ****   FLASH_CacheTypeDef cache = pFlash.CacheToReactivate;
 1651              		.loc 1 595 1 is_stmt 1 view -0
 1652              		.cfi_startproc
 1653              		@ args = 0, pretend = 0, frame = 0
 1654              		@ frame_needed = 0, uses_anonymous_args = 0
 1655              		@ link register save eliminated.
 596:../Resources/Drivers/STM32L4xx_HAL_Driver/Src/stm32l4xx_hal_flash_ex.c **** 
 1656              		.loc 1 596 3 view .LVU524
 596:../Resources/Drivers/STM32L4xx_HAL_Driver/Src/stm32l4xx_hal_flash_ex.c **** 
 1657              		.loc 1 596 22 is_stmt 0 view .LVU525
 1658 0000 164B     		ldr	r3, .L136
 1659 0002 1B7F     		ldrb	r3, [r3, #28]	@ zero_extendqisi2
 1660 0004 DBB2     		uxtb	r3, r3
 1661              	.LVL143:
 599:../Resources/Drivers/STM32L4xx_HAL_Driver/Src/stm32l4xx_hal_flash_ex.c ****      (cache == FLASH_CACHE_ICACHE_DCACHE_ENABLED))
 1662              		.loc 1 599 3 is_stmt 1 view .LVU526
 599:../Resources/Drivers/STM32L4xx_HAL_Driver/Src/stm32l4xx_hal_flash_ex.c ****      (cache == FLASH_CACHE_ICACHE_DCACHE_ENABLED))
 1663              		.loc 1 599 5 is_stmt 0 view .LVU527
 1664 0006 012B     		cmp	r3, #1
 1665 0008 01D0     		beq	.L132
 599:../Resources/Drivers/STM32L4xx_HAL_Driver/Src/stm32l4xx_hal_flash_ex.c ****      (cache == FLASH_CACHE_ICACHE_DCACHE_ENABLED))
 1666              		.loc 1 599 44 discriminator 1 view .LVU528
 1667 000a 032B     		cmp	r3, #3
 1668 000c 10D1     		bne	.L133
 1669              	.L132:
 603:../Resources/Drivers/STM32L4xx_HAL_Driver/Src/stm32l4xx_hal_flash_ex.c ****     /* Reset instruction cache */
 1670              		.loc 1 603 5 is_stmt 1 view .LVU529
 1671 000e 144A     		ldr	r2, .L136+4
 1672 0010 1168     		ldr	r1, [r2]
 1673 0012 21F40071 		bic	r1, r1, #512
 1674 0016 1160     		str	r1, [r2]
 605:../Resources/Drivers/STM32L4xx_HAL_Driver/Src/stm32l4xx_hal_flash_ex.c ****     /* Enable instruction cache */
 1675              		.loc 1 605 5 view .LVU530
 605:../Resources/Drivers/STM32L4xx_HAL_Driver/Src/stm32l4xx_hal_flash_ex.c ****     /* Enable instruction cache */
 1676              		.loc 1 605 5 view .LVU531
 1677 0018 1168     		ldr	r1, [r2]
 1678 001a 41F40061 		orr	r1, r1, #2048
 1679 001e 1160     		str	r1, [r2]
 605:../Resources/Drivers/STM32L4xx_HAL_Driver/Src/stm32l4xx_hal_flash_ex.c ****     /* Enable instruction cache */
 1680              		.loc 1 605 5 view .LVU532
 1681 0020 1168     		ldr	r1, [r2]
 1682 0022 21F40061 		bic	r1, r1, #2048
 1683 0026 1160     		str	r1, [r2]
 605:../Resources/Drivers/STM32L4xx_HAL_Driver/Src/stm32l4xx_hal_flash_ex.c ****     /* Enable instruction cache */
 1684              		.loc 1 605 5 view .LVU533
 607:../Resources/Drivers/STM32L4xx_HAL_Driver/Src/stm32l4xx_hal_flash_ex.c ****   }
 1685              		.loc 1 607 5 view .LVU534
ARM GAS  /tmp/cchkkQtC.s 			page 61


 1686 0028 1168     		ldr	r1, [r2]
 1687 002a 41F40071 		orr	r1, r1, #512
 1688 002e 1160     		str	r1, [r2]
 1689              	.L133:
 611:../Resources/Drivers/STM32L4xx_HAL_Driver/Src/stm32l4xx_hal_flash_ex.c ****      (cache == FLASH_CACHE_ICACHE_DCACHE_ENABLED))
 1690              		.loc 1 611 3 view .LVU535
 611:../Resources/Drivers/STM32L4xx_HAL_Driver/Src/stm32l4xx_hal_flash_ex.c ****      (cache == FLASH_CACHE_ICACHE_DCACHE_ENABLED))
 1691              		.loc 1 611 44 is_stmt 0 view .LVU536
 1692 0030 023B     		subs	r3, r3, #2
 1693              	.LVL144:
 611:../Resources/Drivers/STM32L4xx_HAL_Driver/Src/stm32l4xx_hal_flash_ex.c ****      (cache == FLASH_CACHE_ICACHE_DCACHE_ENABLED))
 1694              		.loc 1 611 44 view .LVU537
 1695 0032 DBB2     		uxtb	r3, r3
 1696              	.LVL145:
 611:../Resources/Drivers/STM32L4xx_HAL_Driver/Src/stm32l4xx_hal_flash_ex.c ****      (cache == FLASH_CACHE_ICACHE_DCACHE_ENABLED))
 1697              		.loc 1 611 5 view .LVU538
 1698 0034 012B     		cmp	r3, #1
 1699 0036 03D9     		bls	.L135
 1700              	.L134:
 621:../Resources/Drivers/STM32L4xx_HAL_Driver/Src/stm32l4xx_hal_flash_ex.c **** }
 1701              		.loc 1 621 3 is_stmt 1 view .LVU539
 621:../Resources/Drivers/STM32L4xx_HAL_Driver/Src/stm32l4xx_hal_flash_ex.c **** }
 1702              		.loc 1 621 28 is_stmt 0 view .LVU540
 1703 0038 084B     		ldr	r3, .L136
 1704 003a 0022     		movs	r2, #0
 1705 003c 1A77     		strb	r2, [r3, #28]
 622:../Resources/Drivers/STM32L4xx_HAL_Driver/Src/stm32l4xx_hal_flash_ex.c **** 
 1706              		.loc 1 622 1 view .LVU541
 1707 003e 7047     		bx	lr
 1708              	.L135:
 615:../Resources/Drivers/STM32L4xx_HAL_Driver/Src/stm32l4xx_hal_flash_ex.c ****     /* Enable data cache */
 1709              		.loc 1 615 5 is_stmt 1 view .LVU542
 615:../Resources/Drivers/STM32L4xx_HAL_Driver/Src/stm32l4xx_hal_flash_ex.c ****     /* Enable data cache */
 1710              		.loc 1 615 5 view .LVU543
 1711 0040 074B     		ldr	r3, .L136+4
 1712 0042 1A68     		ldr	r2, [r3]
 1713 0044 42F48052 		orr	r2, r2, #4096
 1714 0048 1A60     		str	r2, [r3]
 615:../Resources/Drivers/STM32L4xx_HAL_Driver/Src/stm32l4xx_hal_flash_ex.c ****     /* Enable data cache */
 1715              		.loc 1 615 5 view .LVU544
 1716 004a 1A68     		ldr	r2, [r3]
 1717 004c 22F48052 		bic	r2, r2, #4096
 1718 0050 1A60     		str	r2, [r3]
 615:../Resources/Drivers/STM32L4xx_HAL_Driver/Src/stm32l4xx_hal_flash_ex.c ****     /* Enable data cache */
 1719              		.loc 1 615 5 view .LVU545
 617:../Resources/Drivers/STM32L4xx_HAL_Driver/Src/stm32l4xx_hal_flash_ex.c ****   }
 1720              		.loc 1 617 5 view .LVU546
 1721 0052 1A68     		ldr	r2, [r3]
 1722 0054 42F48062 		orr	r2, r2, #1024
 1723 0058 1A60     		str	r2, [r3]
 1724 005a EDE7     		b	.L134
 1725              	.L137:
 1726              		.align	2
 1727              	.L136:
 1728 005c 00000000 		.word	pFlash
 1729 0060 00200240 		.word	1073881088
 1730              		.cfi_endproc
ARM GAS  /tmp/cchkkQtC.s 			page 62


 1731              	.LFE138:
 1733              		.section	.text.HAL_FLASHEx_Erase,"ax",%progbits
 1734              		.align	1
 1735              		.global	HAL_FLASHEx_Erase
 1736              		.syntax unified
 1737              		.thumb
 1738              		.thumb_func
 1740              	HAL_FLASHEx_Erase:
 1741              	.LVL146:
 1742              	.LFB132:
 126:../Resources/Drivers/STM32L4xx_HAL_Driver/Src/stm32l4xx_hal_flash_ex.c ****   HAL_StatusTypeDef status;
 1743              		.loc 1 126 1 view -0
 1744              		.cfi_startproc
 1745              		@ args = 0, pretend = 0, frame = 0
 1746              		@ frame_needed = 0, uses_anonymous_args = 0
 126:../Resources/Drivers/STM32L4xx_HAL_Driver/Src/stm32l4xx_hal_flash_ex.c ****   HAL_StatusTypeDef status;
 1747              		.loc 1 126 1 is_stmt 0 view .LVU548
 1748 0000 F8B5     		push	{r3, r4, r5, r6, r7, lr}
 1749              	.LCFI11:
 1750              		.cfi_def_cfa_offset 24
 1751              		.cfi_offset 3, -24
 1752              		.cfi_offset 4, -20
 1753              		.cfi_offset 5, -16
 1754              		.cfi_offset 6, -12
 1755              		.cfi_offset 7, -8
 1756              		.cfi_offset 14, -4
 127:../Resources/Drivers/STM32L4xx_HAL_Driver/Src/stm32l4xx_hal_flash_ex.c ****   uint32_t page_index;
 1757              		.loc 1 127 3 is_stmt 1 view .LVU549
 128:../Resources/Drivers/STM32L4xx_HAL_Driver/Src/stm32l4xx_hal_flash_ex.c **** 
 1758              		.loc 1 128 3 view .LVU550
 131:../Resources/Drivers/STM32L4xx_HAL_Driver/Src/stm32l4xx_hal_flash_ex.c **** 
 1759              		.loc 1 131 3 view .LVU551
 131:../Resources/Drivers/STM32L4xx_HAL_Driver/Src/stm32l4xx_hal_flash_ex.c **** 
 1760              		.loc 1 131 3 view .LVU552
 1761 0002 3A4B     		ldr	r3, .L154
 1762 0004 1B78     		ldrb	r3, [r3]	@ zero_extendqisi2
 1763 0006 012B     		cmp	r3, #1
 1764 0008 6DD0     		beq	.L150
 1765 000a 0446     		mov	r4, r0
 1766 000c 0E46     		mov	r6, r1
 131:../Resources/Drivers/STM32L4xx_HAL_Driver/Src/stm32l4xx_hal_flash_ex.c **** 
 1767              		.loc 1 131 3 discriminator 2 view .LVU553
 1768 000e 374B     		ldr	r3, .L154
 1769 0010 0122     		movs	r2, #1
 1770 0012 1A70     		strb	r2, [r3]
 131:../Resources/Drivers/STM32L4xx_HAL_Driver/Src/stm32l4xx_hal_flash_ex.c **** 
 1771              		.loc 1 131 3 discriminator 2 view .LVU554
 134:../Resources/Drivers/STM32L4xx_HAL_Driver/Src/stm32l4xx_hal_flash_ex.c **** 
 1772              		.loc 1 134 3 discriminator 2 view .LVU555
 137:../Resources/Drivers/STM32L4xx_HAL_Driver/Src/stm32l4xx_hal_flash_ex.c **** 
 1773              		.loc 1 137 3 discriminator 2 view .LVU556
 137:../Resources/Drivers/STM32L4xx_HAL_Driver/Src/stm32l4xx_hal_flash_ex.c **** 
 1774              		.loc 1 137 12 is_stmt 0 discriminator 2 view .LVU557
 1775 0014 4CF25030 		movw	r0, #50000
 1776              	.LVL147:
 137:../Resources/Drivers/STM32L4xx_HAL_Driver/Src/stm32l4xx_hal_flash_ex.c **** 
 1777              		.loc 1 137 12 discriminator 2 view .LVU558
ARM GAS  /tmp/cchkkQtC.s 			page 63


 1778 0018 FFF7FEFF 		bl	FLASH_WaitForLastOperation
 1779              	.LVL148:
 139:../Resources/Drivers/STM32L4xx_HAL_Driver/Src/stm32l4xx_hal_flash_ex.c ****   {
 1780              		.loc 1 139 3 is_stmt 1 discriminator 2 view .LVU559
 139:../Resources/Drivers/STM32L4xx_HAL_Driver/Src/stm32l4xx_hal_flash_ex.c ****   {
 1781              		.loc 1 139 6 is_stmt 0 discriminator 2 view .LVU560
 1782 001c 0746     		mov	r7, r0
 1783 001e 0028     		cmp	r0, #0
 1784 0020 5CD1     		bne	.L140
 141:../Resources/Drivers/STM32L4xx_HAL_Driver/Src/stm32l4xx_hal_flash_ex.c **** 
 1785              		.loc 1 141 5 is_stmt 1 view .LVU561
 141:../Resources/Drivers/STM32L4xx_HAL_Driver/Src/stm32l4xx_hal_flash_ex.c **** 
 1786              		.loc 1 141 22 is_stmt 0 view .LVU562
 1787 0022 324B     		ldr	r3, .L154
 1788 0024 0022     		movs	r2, #0
 1789 0026 5A60     		str	r2, [r3, #4]
 144:../Resources/Drivers/STM32L4xx_HAL_Driver/Src/stm32l4xx_hal_flash_ex.c ****     {
 1790              		.loc 1 144 5 is_stmt 1 view .LVU563
 144:../Resources/Drivers/STM32L4xx_HAL_Driver/Src/stm32l4xx_hal_flash_ex.c ****     {
 1791              		.loc 1 144 8 is_stmt 0 view .LVU564
 1792 0028 314B     		ldr	r3, .L154+4
 1793 002a 1B68     		ldr	r3, [r3]
 144:../Resources/Drivers/STM32L4xx_HAL_Driver/Src/stm32l4xx_hal_flash_ex.c ****     {
 1794              		.loc 1 144 7 view .LVU565
 1795 002c 13F4007F 		tst	r3, #512
 1796 0030 2FD0     		beq	.L141
 146:../Resources/Drivers/STM32L4xx_HAL_Driver/Src/stm32l4xx_hal_flash_ex.c ****       {
 1797              		.loc 1 146 7 is_stmt 1 view .LVU566
 146:../Resources/Drivers/STM32L4xx_HAL_Driver/Src/stm32l4xx_hal_flash_ex.c ****       {
 1798              		.loc 1 146 10 is_stmt 0 view .LVU567
 1799 0032 2F4B     		ldr	r3, .L154+4
 1800 0034 1B68     		ldr	r3, [r3]
 146:../Resources/Drivers/STM32L4xx_HAL_Driver/Src/stm32l4xx_hal_flash_ex.c ****       {
 1801              		.loc 1 146 9 view .LVU568
 1802 0036 13F4806F 		tst	r3, #1024
 1803 003a 26D0     		beq	.L142
 149:../Resources/Drivers/STM32L4xx_HAL_Driver/Src/stm32l4xx_hal_flash_ex.c ****         pFlash.CacheToReactivate = FLASH_CACHE_ICACHE_DCACHE_ENABLED;
 1804              		.loc 1 149 9 is_stmt 1 view .LVU569
 1805 003c 2C4A     		ldr	r2, .L154+4
 1806 003e 1368     		ldr	r3, [r2]
 1807 0040 23F48063 		bic	r3, r3, #1024
 1808 0044 1360     		str	r3, [r2]
 150:../Resources/Drivers/STM32L4xx_HAL_Driver/Src/stm32l4xx_hal_flash_ex.c ****       }
 1809              		.loc 1 150 9 view .LVU570
 150:../Resources/Drivers/STM32L4xx_HAL_Driver/Src/stm32l4xx_hal_flash_ex.c ****       }
 1810              		.loc 1 150 34 is_stmt 0 view .LVU571
 1811 0046 294B     		ldr	r3, .L154
 1812 0048 0322     		movs	r2, #3
 1813 004a 1A77     		strb	r2, [r3, #28]
 1814              	.L143:
 168:../Resources/Drivers/STM32L4xx_HAL_Driver/Src/stm32l4xx_hal_flash_ex.c ****     {
 1815              		.loc 1 168 5 is_stmt 1 view .LVU572
 168:../Resources/Drivers/STM32L4xx_HAL_Driver/Src/stm32l4xx_hal_flash_ex.c ****     {
 1816              		.loc 1 168 19 is_stmt 0 view .LVU573
 1817 004c 2368     		ldr	r3, [r4]
 168:../Resources/Drivers/STM32L4xx_HAL_Driver/Src/stm32l4xx_hal_flash_ex.c ****     {
 1818              		.loc 1 168 8 view .LVU574
ARM GAS  /tmp/cchkkQtC.s 			page 64


 1819 004e 012B     		cmp	r3, #1
 1820 0050 31D0     		beq	.L152
 190:../Resources/Drivers/STM32L4xx_HAL_Driver/Src/stm32l4xx_hal_flash_ex.c **** 
 1821              		.loc 1 190 7 is_stmt 1 view .LVU575
 190:../Resources/Drivers/STM32L4xx_HAL_Driver/Src/stm32l4xx_hal_flash_ex.c **** 
 1822              		.loc 1 190 18 is_stmt 0 view .LVU576
 1823 0052 4FF0FF33 		mov	r3, #-1
 1824 0056 3360     		str	r3, [r6]
 192:../Resources/Drivers/STM32L4xx_HAL_Driver/Src/stm32l4xx_hal_flash_ex.c ****       {
 1825              		.loc 1 192 7 is_stmt 1 view .LVU577
 192:../Resources/Drivers/STM32L4xx_HAL_Driver/Src/stm32l4xx_hal_flash_ex.c ****       {
 1826              		.loc 1 192 22 is_stmt 0 view .LVU578
 1827 0058 A568     		ldr	r5, [r4, #8]
 1828              	.LVL149:
 1829              	.L147:
 192:../Resources/Drivers/STM32L4xx_HAL_Driver/Src/stm32l4xx_hal_flash_ex.c ****       {
 1830              		.loc 1 192 42 is_stmt 1 discriminator 1 view .LVU579
 192:../Resources/Drivers/STM32L4xx_HAL_Driver/Src/stm32l4xx_hal_flash_ex.c ****       {
 1831              		.loc 1 192 66 is_stmt 0 discriminator 1 view .LVU580
 1832 005a A368     		ldr	r3, [r4, #8]
 192:../Resources/Drivers/STM32L4xx_HAL_Driver/Src/stm32l4xx_hal_flash_ex.c ****       {
 1833              		.loc 1 192 85 discriminator 1 view .LVU581
 1834 005c E268     		ldr	r2, [r4, #12]
 192:../Resources/Drivers/STM32L4xx_HAL_Driver/Src/stm32l4xx_hal_flash_ex.c ****       {
 1835              		.loc 1 192 73 discriminator 1 view .LVU582
 1836 005e 1344     		add	r3, r3, r2
 192:../Resources/Drivers/STM32L4xx_HAL_Driver/Src/stm32l4xx_hal_flash_ex.c ****       {
 1837              		.loc 1 192 7 discriminator 1 view .LVU583
 1838 0060 AB42     		cmp	r3, r5
 1839 0062 39D9     		bls	.L146
 194:../Resources/Drivers/STM32L4xx_HAL_Driver/Src/stm32l4xx_hal_flash_ex.c **** 
 1840              		.loc 1 194 9 is_stmt 1 view .LVU584
 1841 0064 6168     		ldr	r1, [r4, #4]
 1842 0066 2846     		mov	r0, r5
 1843 0068 FFF7FEFF 		bl	FLASH_PageErase
 1844              	.LVL150:
 197:../Resources/Drivers/STM32L4xx_HAL_Driver/Src/stm32l4xx_hal_flash_ex.c **** 
 1845              		.loc 1 197 9 view .LVU585
 197:../Resources/Drivers/STM32L4xx_HAL_Driver/Src/stm32l4xx_hal_flash_ex.c **** 
 1846              		.loc 1 197 18 is_stmt 0 view .LVU586
 1847 006c 4CF25030 		movw	r0, #50000
 1848 0070 FFF7FEFF 		bl	FLASH_WaitForLastOperation
 1849              	.LVL151:
 200:../Resources/Drivers/STM32L4xx_HAL_Driver/Src/stm32l4xx_hal_flash_ex.c **** 
 1850              		.loc 1 200 9 is_stmt 1 view .LVU587
 1851 0074 1E4A     		ldr	r2, .L154+4
 1852 0076 5369     		ldr	r3, [r2, #20]
 1853 0078 23F4FF63 		bic	r3, r3, #2040
 1854 007c 23F00203 		bic	r3, r3, #2
 1855 0080 5361     		str	r3, [r2, #20]
 202:../Resources/Drivers/STM32L4xx_HAL_Driver/Src/stm32l4xx_hal_flash_ex.c ****         {
 1856              		.loc 1 202 9 view .LVU588
 202:../Resources/Drivers/STM32L4xx_HAL_Driver/Src/stm32l4xx_hal_flash_ex.c ****         {
 1857              		.loc 1 202 12 is_stmt 0 view .LVU589
 1858 0082 0746     		mov	r7, r0
 1859 0084 38BB     		cbnz	r0, .L153
 192:../Resources/Drivers/STM32L4xx_HAL_Driver/Src/stm32l4xx_hal_flash_ex.c ****       {
ARM GAS  /tmp/cchkkQtC.s 			page 65


 1860              		.loc 1 192 97 is_stmt 1 discriminator 2 view .LVU590
 192:../Resources/Drivers/STM32L4xx_HAL_Driver/Src/stm32l4xx_hal_flash_ex.c ****       {
 1861              		.loc 1 192 107 is_stmt 0 discriminator 2 view .LVU591
 1862 0086 0135     		adds	r5, r5, #1
 1863              	.LVL152:
 192:../Resources/Drivers/STM32L4xx_HAL_Driver/Src/stm32l4xx_hal_flash_ex.c ****       {
 1864              		.loc 1 192 107 discriminator 2 view .LVU592
 1865 0088 E7E7     		b	.L147
 1866              	.LVL153:
 1867              	.L142:
 154:../Resources/Drivers/STM32L4xx_HAL_Driver/Src/stm32l4xx_hal_flash_ex.c ****       }
 1868              		.loc 1 154 9 is_stmt 1 view .LVU593
 154:../Resources/Drivers/STM32L4xx_HAL_Driver/Src/stm32l4xx_hal_flash_ex.c ****       }
 1869              		.loc 1 154 34 is_stmt 0 view .LVU594
 1870 008a 184B     		ldr	r3, .L154
 1871 008c 0122     		movs	r2, #1
 1872 008e 1A77     		strb	r2, [r3, #28]
 1873 0090 DCE7     		b	.L143
 1874              	.L141:
 157:../Resources/Drivers/STM32L4xx_HAL_Driver/Src/stm32l4xx_hal_flash_ex.c ****     {
 1875              		.loc 1 157 10 is_stmt 1 view .LVU595
 157:../Resources/Drivers/STM32L4xx_HAL_Driver/Src/stm32l4xx_hal_flash_ex.c ****     {
 1876              		.loc 1 157 13 is_stmt 0 view .LVU596
 1877 0092 174B     		ldr	r3, .L154+4
 1878 0094 1B68     		ldr	r3, [r3]
 157:../Resources/Drivers/STM32L4xx_HAL_Driver/Src/stm32l4xx_hal_flash_ex.c ****     {
 1879              		.loc 1 157 12 view .LVU597
 1880 0096 13F4806F 		tst	r3, #1024
 1881 009a 08D0     		beq	.L144
 160:../Resources/Drivers/STM32L4xx_HAL_Driver/Src/stm32l4xx_hal_flash_ex.c ****       pFlash.CacheToReactivate = FLASH_CACHE_DCACHE_ENABLED;
 1882              		.loc 1 160 7 is_stmt 1 view .LVU598
 1883 009c 144A     		ldr	r2, .L154+4
 1884 009e 1368     		ldr	r3, [r2]
 1885 00a0 23F48063 		bic	r3, r3, #1024
 1886 00a4 1360     		str	r3, [r2]
 161:../Resources/Drivers/STM32L4xx_HAL_Driver/Src/stm32l4xx_hal_flash_ex.c ****     }
 1887              		.loc 1 161 7 view .LVU599
 161:../Resources/Drivers/STM32L4xx_HAL_Driver/Src/stm32l4xx_hal_flash_ex.c ****     }
 1888              		.loc 1 161 32 is_stmt 0 view .LVU600
 1889 00a6 114B     		ldr	r3, .L154
 1890 00a8 0222     		movs	r2, #2
 1891 00aa 1A77     		strb	r2, [r3, #28]
 1892 00ac CEE7     		b	.L143
 1893              	.L144:
 165:../Resources/Drivers/STM32L4xx_HAL_Driver/Src/stm32l4xx_hal_flash_ex.c ****     }
 1894              		.loc 1 165 7 is_stmt 1 view .LVU601
 165:../Resources/Drivers/STM32L4xx_HAL_Driver/Src/stm32l4xx_hal_flash_ex.c ****     }
 1895              		.loc 1 165 32 is_stmt 0 view .LVU602
 1896 00ae 0F4B     		ldr	r3, .L154
 1897 00b0 0022     		movs	r2, #0
 1898 00b2 1A77     		strb	r2, [r3, #28]
 1899 00b4 CAE7     		b	.L143
 1900              	.L152:
 171:../Resources/Drivers/STM32L4xx_HAL_Driver/Src/stm32l4xx_hal_flash_ex.c **** 
 1901              		.loc 1 171 7 is_stmt 1 view .LVU603
 1902 00b6 6068     		ldr	r0, [r4, #4]
 1903              	.LVL154:
ARM GAS  /tmp/cchkkQtC.s 			page 66


 171:../Resources/Drivers/STM32L4xx_HAL_Driver/Src/stm32l4xx_hal_flash_ex.c **** 
 1904              		.loc 1 171 7 is_stmt 0 view .LVU604
 1905 00b8 FFF7FEFF 		bl	FLASH_MassErase
 1906              	.LVL155:
 174:../Resources/Drivers/STM32L4xx_HAL_Driver/Src/stm32l4xx_hal_flash_ex.c **** 
 1907              		.loc 1 174 7 is_stmt 1 view .LVU605
 174:../Resources/Drivers/STM32L4xx_HAL_Driver/Src/stm32l4xx_hal_flash_ex.c **** 
 1908              		.loc 1 174 16 is_stmt 0 view .LVU606
 1909 00bc 4CF25030 		movw	r0, #50000
 1910 00c0 FFF7FEFF 		bl	FLASH_WaitForLastOperation
 1911              	.LVL156:
 1912 00c4 0746     		mov	r7, r0
 1913              	.LVL157:
 181:../Resources/Drivers/STM32L4xx_HAL_Driver/Src/stm32l4xx_hal_flash_ex.c **** #else
 1914              		.loc 1 181 7 is_stmt 1 view .LVU607
 1915 00c6 0A4A     		ldr	r2, .L154+4
 1916 00c8 5369     		ldr	r3, [r2, #20]
 1917 00ca 23F40043 		bic	r3, r3, #32768
 1918 00ce 23F00403 		bic	r3, r3, #4
 1919 00d2 5361     		str	r3, [r2, #20]
 1920 00d4 00E0     		b	.L146
 1921              	.LVL158:
 1922              	.L153:
 205:../Resources/Drivers/STM32L4xx_HAL_Driver/Src/stm32l4xx_hal_flash_ex.c ****           break;
 1923              		.loc 1 205 11 view .LVU608
 205:../Resources/Drivers/STM32L4xx_HAL_Driver/Src/stm32l4xx_hal_flash_ex.c ****           break;
 1924              		.loc 1 205 22 is_stmt 0 view .LVU609
 1925 00d6 3560     		str	r5, [r6]
 206:../Resources/Drivers/STM32L4xx_HAL_Driver/Src/stm32l4xx_hal_flash_ex.c ****         }
 1926              		.loc 1 206 11 is_stmt 1 view .LVU610
 1927              	.LVL159:
 1928              	.L146:
 212:../Resources/Drivers/STM32L4xx_HAL_Driver/Src/stm32l4xx_hal_flash_ex.c ****   }
 1929              		.loc 1 212 5 view .LVU611
 1930 00d8 FFF7FEFF 		bl	FLASH_FlushCaches
 1931              	.LVL160:
 1932              	.L140:
 216:../Resources/Drivers/STM32L4xx_HAL_Driver/Src/stm32l4xx_hal_flash_ex.c **** 
 1933              		.loc 1 216 3 view .LVU612
 216:../Resources/Drivers/STM32L4xx_HAL_Driver/Src/stm32l4xx_hal_flash_ex.c **** 
 1934              		.loc 1 216 3 view .LVU613
 1935 00dc 034B     		ldr	r3, .L154
 1936 00de 0022     		movs	r2, #0
 1937 00e0 1A70     		strb	r2, [r3]
 216:../Resources/Drivers/STM32L4xx_HAL_Driver/Src/stm32l4xx_hal_flash_ex.c **** 
 1938              		.loc 1 216 3 view .LVU614
 218:../Resources/Drivers/STM32L4xx_HAL_Driver/Src/stm32l4xx_hal_flash_ex.c **** }
 1939              		.loc 1 218 3 view .LVU615
 1940              	.LVL161:
 1941              	.L139:
 219:../Resources/Drivers/STM32L4xx_HAL_Driver/Src/stm32l4xx_hal_flash_ex.c **** 
 1942              		.loc 1 219 1 is_stmt 0 view .LVU616
 1943 00e2 3846     		mov	r0, r7
 1944 00e4 F8BD     		pop	{r3, r4, r5, r6, r7, pc}
 1945              	.LVL162:
 1946              	.L150:
 131:../Resources/Drivers/STM32L4xx_HAL_Driver/Src/stm32l4xx_hal_flash_ex.c **** 
ARM GAS  /tmp/cchkkQtC.s 			page 67


 1947              		.loc 1 131 3 view .LVU617
 1948 00e6 0227     		movs	r7, #2
 1949 00e8 FBE7     		b	.L139
 1950              	.L155:
 1951 00ea 00BF     		.align	2
 1952              	.L154:
 1953 00ec 00000000 		.word	pFlash
 1954 00f0 00200240 		.word	1073881088
 1955              		.cfi_endproc
 1956              	.LFE132:
 1958              		.text
 1959              	.Letext0:
 1960              		.file 2 "/root/Linux-Dev/Car-IV-Firmware/Tools/gcc-arm-none-eabi-10.3-2021.10/arm-none-eabi/includ
 1961              		.file 3 "/root/Linux-Dev/Car-IV-Firmware/Tools/gcc-arm-none-eabi-10.3-2021.10/arm-none-eabi/includ
 1962              		.file 4 "../Resources/Drivers/CMSIS/Device/ST/STM32L4xx/Include/stm32l476xx.h"
 1963              		.file 5 "../Resources/Drivers/STM32L4xx_HAL_Driver/Inc/stm32l4xx_hal_def.h"
 1964              		.file 6 "../Resources/Drivers/STM32L4xx_HAL_Driver/Inc/stm32l4xx_hal_flash.h"
ARM GAS  /tmp/cchkkQtC.s 			page 68


DEFINED SYMBOLS
                            *ABS*:0000000000000000 stm32l4xx_hal_flash_ex.c
     /tmp/cchkkQtC.s:20     .text.FLASH_MassErase:0000000000000000 $t
     /tmp/cchkkQtC.s:25     .text.FLASH_MassErase:0000000000000000 FLASH_MassErase
     /tmp/cchkkQtC.s:65     .text.FLASH_MassErase:000000000000002c $d
     /tmp/cchkkQtC.s:70     .text.FLASH_OB_GetWRP:0000000000000000 $t
     /tmp/cchkkQtC.s:75     .text.FLASH_OB_GetWRP:0000000000000000 FLASH_OB_GetWRP
     /tmp/cchkkQtC.s:183    .text.FLASH_OB_GetWRP:0000000000000058 $d
     /tmp/cchkkQtC.s:188    .text.FLASH_OB_GetRDP:0000000000000000 $t
     /tmp/cchkkQtC.s:193    .text.FLASH_OB_GetRDP:0000000000000000 FLASH_OB_GetRDP
     /tmp/cchkkQtC.s:230    .text.FLASH_OB_GetRDP:000000000000001c $d
     /tmp/cchkkQtC.s:235    .text.FLASH_OB_GetUser:0000000000000000 $t
     /tmp/cchkkQtC.s:240    .text.FLASH_OB_GetUser:0000000000000000 FLASH_OB_GetUser
     /tmp/cchkkQtC.s:262    .text.FLASH_OB_GetUser:000000000000000c $d
     /tmp/cchkkQtC.s:267    .text.FLASH_OB_GetPCROP:0000000000000000 $t
     /tmp/cchkkQtC.s:272    .text.FLASH_OB_GetPCROP:0000000000000000 FLASH_OB_GetPCROP
     /tmp/cchkkQtC.s:451    .text.FLASH_OB_GetPCROP:00000000000000b4 $d
     /tmp/cchkkQtC.s:461    .text.FLASH_OB_WRPConfig:0000000000000000 $t
     /tmp/cchkkQtC.s:466    .text.FLASH_OB_WRPConfig:0000000000000000 FLASH_OB_WRPConfig
     /tmp/cchkkQtC.s:574    .text.FLASH_OB_WRPConfig:0000000000000084 $d
     /tmp/cchkkQtC.s:579    .text.FLASH_OB_RDPConfig:0000000000000000 $t
     /tmp/cchkkQtC.s:584    .text.FLASH_OB_RDPConfig:0000000000000000 FLASH_OB_RDPConfig
     /tmp/cchkkQtC.s:642    .text.FLASH_OB_RDPConfig:0000000000000038 $d
     /tmp/cchkkQtC.s:647    .text.FLASH_OB_UserConfig:0000000000000000 $t
     /tmp/cchkkQtC.s:652    .text.FLASH_OB_UserConfig:0000000000000000 FLASH_OB_UserConfig
     /tmp/cchkkQtC.s:930    .text.FLASH_OB_UserConfig:000000000000010c $d
     /tmp/cchkkQtC.s:935    .text.FLASH_OB_PCROPConfig:0000000000000000 $t
     /tmp/cchkkQtC.s:940    .text.FLASH_OB_PCROPConfig:0000000000000000 FLASH_OB_PCROPConfig
     /tmp/cchkkQtC.s:1137   .text.FLASH_OB_PCROPConfig:00000000000000e0 $d
     /tmp/cchkkQtC.s:1146   .text.HAL_FLASHEx_OBProgram:0000000000000000 $t
     /tmp/cchkkQtC.s:1152   .text.HAL_FLASHEx_OBProgram:0000000000000000 HAL_FLASHEx_OBProgram
     /tmp/cchkkQtC.s:1312   .text.HAL_FLASHEx_OBProgram:0000000000000090 $d
     /tmp/cchkkQtC.s:1317   .text.HAL_FLASHEx_OBGetConfig:0000000000000000 $t
     /tmp/cchkkQtC.s:1323   .text.HAL_FLASHEx_OBGetConfig:0000000000000000 HAL_FLASHEx_OBGetConfig
     /tmp/cchkkQtC.s:1404   .text.FLASH_PageErase:0000000000000000 $t
     /tmp/cchkkQtC.s:1410   .text.FLASH_PageErase:0000000000000000 FLASH_PageErase
     /tmp/cchkkQtC.s:1461   .text.FLASH_PageErase:0000000000000040 $d
     /tmp/cchkkQtC.s:1466   .text.HAL_FLASHEx_Erase_IT:0000000000000000 $t
     /tmp/cchkkQtC.s:1472   .text.HAL_FLASHEx_Erase_IT:0000000000000000 HAL_FLASHEx_Erase_IT
     /tmp/cchkkQtC.s:1637   .text.HAL_FLASHEx_Erase_IT:00000000000000a8 $d
     /tmp/cchkkQtC.s:1643   .text.FLASH_FlushCaches:0000000000000000 $t
     /tmp/cchkkQtC.s:1649   .text.FLASH_FlushCaches:0000000000000000 FLASH_FlushCaches
     /tmp/cchkkQtC.s:1728   .text.FLASH_FlushCaches:000000000000005c $d
     /tmp/cchkkQtC.s:1734   .text.HAL_FLASHEx_Erase:0000000000000000 $t
     /tmp/cchkkQtC.s:1740   .text.HAL_FLASHEx_Erase:0000000000000000 HAL_FLASHEx_Erase
     /tmp/cchkkQtC.s:1953   .text.HAL_FLASHEx_Erase:00000000000000ec $d

UNDEFINED SYMBOLS
FLASH_WaitForLastOperation
pFlash
