ARM GAS  /tmp/ccCbeSgG.s 			page 1


   1              		.cpu cortex-m4
   2              		.arch armv7e-m
   3              		.fpu fpv4-sp-d16
   4              		.eabi_attribute 27, 1
   5              		.eabi_attribute 28, 1
   6              		.eabi_attribute 20, 1
   7              		.eabi_attribute 21, 1
   8              		.eabi_attribute 23, 3
   9              		.eabi_attribute 24, 1
  10              		.eabi_attribute 25, 1
  11              		.eabi_attribute 26, 1
  12              		.eabi_attribute 30, 1
  13              		.eabi_attribute 34, 1
  14              		.eabi_attribute 18, 4
  15              		.file	"stm32l4xx_hal.c"
  16              		.text
  17              	.Ltext0:
  18              		.cfi_sections	.debug_frame
  19              		.section	.text.HAL_MspInit,"ax",%progbits
  20              		.align	1
  21              		.weak	HAL_MspInit
  22              		.syntax unified
  23              		.thumb
  24              		.thumb_func
  26              	HAL_MspInit:
  27              	.LFB134:
  28              		.file 1 "../Resources/Drivers/STM32L4xx_HAL_Driver/Src/stm32l4xx_hal.c"
   1:../Resources/Drivers/STM32L4xx_HAL_Driver/Src/stm32l4xx_hal.c **** /**
   2:../Resources/Drivers/STM32L4xx_HAL_Driver/Src/stm32l4xx_hal.c ****   ******************************************************************************
   3:../Resources/Drivers/STM32L4xx_HAL_Driver/Src/stm32l4xx_hal.c ****   * @file    stm32l4xx_hal.c
   4:../Resources/Drivers/STM32L4xx_HAL_Driver/Src/stm32l4xx_hal.c ****   * @author  MCD Application Team
   5:../Resources/Drivers/STM32L4xx_HAL_Driver/Src/stm32l4xx_hal.c ****   * @brief   HAL module driver.
   6:../Resources/Drivers/STM32L4xx_HAL_Driver/Src/stm32l4xx_hal.c ****   *          This is the common part of the HAL initialization
   7:../Resources/Drivers/STM32L4xx_HAL_Driver/Src/stm32l4xx_hal.c ****   *
   8:../Resources/Drivers/STM32L4xx_HAL_Driver/Src/stm32l4xx_hal.c ****   ******************************************************************************
   9:../Resources/Drivers/STM32L4xx_HAL_Driver/Src/stm32l4xx_hal.c ****   * @attention
  10:../Resources/Drivers/STM32L4xx_HAL_Driver/Src/stm32l4xx_hal.c ****   *
  11:../Resources/Drivers/STM32L4xx_HAL_Driver/Src/stm32l4xx_hal.c ****   * Copyright (c) 2017 STMicroelectronics.
  12:../Resources/Drivers/STM32L4xx_HAL_Driver/Src/stm32l4xx_hal.c ****   * All rights reserved.
  13:../Resources/Drivers/STM32L4xx_HAL_Driver/Src/stm32l4xx_hal.c ****   *
  14:../Resources/Drivers/STM32L4xx_HAL_Driver/Src/stm32l4xx_hal.c ****   * This software is licensed under terms that can be found in the LICENSE file
  15:../Resources/Drivers/STM32L4xx_HAL_Driver/Src/stm32l4xx_hal.c ****   * in the root directory of this software component.
  16:../Resources/Drivers/STM32L4xx_HAL_Driver/Src/stm32l4xx_hal.c ****   * If no LICENSE file comes with this software, it is provided AS-IS.
  17:../Resources/Drivers/STM32L4xx_HAL_Driver/Src/stm32l4xx_hal.c ****   *
  18:../Resources/Drivers/STM32L4xx_HAL_Driver/Src/stm32l4xx_hal.c ****   ******************************************************************************
  19:../Resources/Drivers/STM32L4xx_HAL_Driver/Src/stm32l4xx_hal.c ****   @verbatim
  20:../Resources/Drivers/STM32L4xx_HAL_Driver/Src/stm32l4xx_hal.c ****   ==============================================================================
  21:../Resources/Drivers/STM32L4xx_HAL_Driver/Src/stm32l4xx_hal.c ****                      ##### How to use this driver #####
  22:../Resources/Drivers/STM32L4xx_HAL_Driver/Src/stm32l4xx_hal.c ****   ==============================================================================
  23:../Resources/Drivers/STM32L4xx_HAL_Driver/Src/stm32l4xx_hal.c ****     [..]
  24:../Resources/Drivers/STM32L4xx_HAL_Driver/Src/stm32l4xx_hal.c ****     The common HAL driver contains a set of generic and common APIs that can be
  25:../Resources/Drivers/STM32L4xx_HAL_Driver/Src/stm32l4xx_hal.c ****     used by the PPP peripheral drivers and the user to start using the HAL.
  26:../Resources/Drivers/STM32L4xx_HAL_Driver/Src/stm32l4xx_hal.c ****     [..]
  27:../Resources/Drivers/STM32L4xx_HAL_Driver/Src/stm32l4xx_hal.c ****     The HAL contains two APIs' categories:
  28:../Resources/Drivers/STM32L4xx_HAL_Driver/Src/stm32l4xx_hal.c ****          (+) Common HAL APIs
  29:../Resources/Drivers/STM32L4xx_HAL_Driver/Src/stm32l4xx_hal.c ****          (+) Services HAL APIs
  30:../Resources/Drivers/STM32L4xx_HAL_Driver/Src/stm32l4xx_hal.c **** 
ARM GAS  /tmp/ccCbeSgG.s 			page 2


  31:../Resources/Drivers/STM32L4xx_HAL_Driver/Src/stm32l4xx_hal.c ****   @endverbatim
  32:../Resources/Drivers/STM32L4xx_HAL_Driver/Src/stm32l4xx_hal.c ****   ******************************************************************************
  33:../Resources/Drivers/STM32L4xx_HAL_Driver/Src/stm32l4xx_hal.c ****   */
  34:../Resources/Drivers/STM32L4xx_HAL_Driver/Src/stm32l4xx_hal.c **** 
  35:../Resources/Drivers/STM32L4xx_HAL_Driver/Src/stm32l4xx_hal.c **** /* Includes ------------------------------------------------------------------*/
  36:../Resources/Drivers/STM32L4xx_HAL_Driver/Src/stm32l4xx_hal.c **** #include "stm32l4xx_hal.h"
  37:../Resources/Drivers/STM32L4xx_HAL_Driver/Src/stm32l4xx_hal.c **** 
  38:../Resources/Drivers/STM32L4xx_HAL_Driver/Src/stm32l4xx_hal.c **** /** @addtogroup STM32L4xx_HAL_Driver
  39:../Resources/Drivers/STM32L4xx_HAL_Driver/Src/stm32l4xx_hal.c ****   * @{
  40:../Resources/Drivers/STM32L4xx_HAL_Driver/Src/stm32l4xx_hal.c ****   */
  41:../Resources/Drivers/STM32L4xx_HAL_Driver/Src/stm32l4xx_hal.c **** 
  42:../Resources/Drivers/STM32L4xx_HAL_Driver/Src/stm32l4xx_hal.c **** /** @defgroup HAL HAL
  43:../Resources/Drivers/STM32L4xx_HAL_Driver/Src/stm32l4xx_hal.c ****   * @brief HAL module driver
  44:../Resources/Drivers/STM32L4xx_HAL_Driver/Src/stm32l4xx_hal.c ****   * @{
  45:../Resources/Drivers/STM32L4xx_HAL_Driver/Src/stm32l4xx_hal.c ****   */
  46:../Resources/Drivers/STM32L4xx_HAL_Driver/Src/stm32l4xx_hal.c **** 
  47:../Resources/Drivers/STM32L4xx_HAL_Driver/Src/stm32l4xx_hal.c **** #ifdef HAL_MODULE_ENABLED
  48:../Resources/Drivers/STM32L4xx_HAL_Driver/Src/stm32l4xx_hal.c **** 
  49:../Resources/Drivers/STM32L4xx_HAL_Driver/Src/stm32l4xx_hal.c **** /* Private typedef -----------------------------------------------------------*/
  50:../Resources/Drivers/STM32L4xx_HAL_Driver/Src/stm32l4xx_hal.c **** /* Private define ------------------------------------------------------------*/
  51:../Resources/Drivers/STM32L4xx_HAL_Driver/Src/stm32l4xx_hal.c **** /**
  52:../Resources/Drivers/STM32L4xx_HAL_Driver/Src/stm32l4xx_hal.c ****  * @brief STM32L4xx HAL Driver version number
  53:../Resources/Drivers/STM32L4xx_HAL_Driver/Src/stm32l4xx_hal.c ****    */
  54:../Resources/Drivers/STM32L4xx_HAL_Driver/Src/stm32l4xx_hal.c **** #define STM32L4XX_HAL_VERSION_MAIN   (0x01U) /*!< [31:24] main version */
  55:../Resources/Drivers/STM32L4xx_HAL_Driver/Src/stm32l4xx_hal.c **** #define STM32L4XX_HAL_VERSION_SUB1   (0x0DU) /*!< [23:16] sub1 version */
  56:../Resources/Drivers/STM32L4xx_HAL_Driver/Src/stm32l4xx_hal.c **** #define STM32L4XX_HAL_VERSION_SUB2   (0x03U) /*!< [15:8]  sub2 version */
  57:../Resources/Drivers/STM32L4xx_HAL_Driver/Src/stm32l4xx_hal.c **** #define STM32L4XX_HAL_VERSION_RC     (0x00U) /*!< [7:0]  release candidate */
  58:../Resources/Drivers/STM32L4xx_HAL_Driver/Src/stm32l4xx_hal.c **** #define STM32L4XX_HAL_VERSION        ((STM32L4XX_HAL_VERSION_MAIN  << 24U)\
  59:../Resources/Drivers/STM32L4xx_HAL_Driver/Src/stm32l4xx_hal.c ****                                       |(STM32L4XX_HAL_VERSION_SUB1 << 16U)\
  60:../Resources/Drivers/STM32L4xx_HAL_Driver/Src/stm32l4xx_hal.c ****                                       |(STM32L4XX_HAL_VERSION_SUB2 << 8U)\
  61:../Resources/Drivers/STM32L4xx_HAL_Driver/Src/stm32l4xx_hal.c ****                                       |(STM32L4XX_HAL_VERSION_RC))
  62:../Resources/Drivers/STM32L4xx_HAL_Driver/Src/stm32l4xx_hal.c **** 
  63:../Resources/Drivers/STM32L4xx_HAL_Driver/Src/stm32l4xx_hal.c **** #if defined(VREFBUF)
  64:../Resources/Drivers/STM32L4xx_HAL_Driver/Src/stm32l4xx_hal.c **** #define VREFBUF_TIMEOUT_VALUE     10U   /* 10 ms (to be confirmed) */
  65:../Resources/Drivers/STM32L4xx_HAL_Driver/Src/stm32l4xx_hal.c **** #endif /* VREFBUF */
  66:../Resources/Drivers/STM32L4xx_HAL_Driver/Src/stm32l4xx_hal.c **** 
  67:../Resources/Drivers/STM32L4xx_HAL_Driver/Src/stm32l4xx_hal.c **** /* ------------ SYSCFG registers bit address in the alias region ------------ */
  68:../Resources/Drivers/STM32L4xx_HAL_Driver/Src/stm32l4xx_hal.c **** #define SYSCFG_OFFSET             (SYSCFG_BASE - PERIPH_BASE)
  69:../Resources/Drivers/STM32L4xx_HAL_Driver/Src/stm32l4xx_hal.c **** /* ---  MEMRMP Register ---*/
  70:../Resources/Drivers/STM32L4xx_HAL_Driver/Src/stm32l4xx_hal.c **** /* Alias word address of FB_MODE bit */
  71:../Resources/Drivers/STM32L4xx_HAL_Driver/Src/stm32l4xx_hal.c **** #define MEMRMP_OFFSET             SYSCFG_OFFSET
  72:../Resources/Drivers/STM32L4xx_HAL_Driver/Src/stm32l4xx_hal.c **** #define FB_MODE_BitNumber         8U
  73:../Resources/Drivers/STM32L4xx_HAL_Driver/Src/stm32l4xx_hal.c **** #define FB_MODE_BB                (PERIPH_BB_BASE + (MEMRMP_OFFSET * 32U) + (FB_MODE_BitNumber * 4U
  74:../Resources/Drivers/STM32L4xx_HAL_Driver/Src/stm32l4xx_hal.c **** 
  75:../Resources/Drivers/STM32L4xx_HAL_Driver/Src/stm32l4xx_hal.c **** /* --- SCSR Register ---*/
  76:../Resources/Drivers/STM32L4xx_HAL_Driver/Src/stm32l4xx_hal.c **** /* Alias word address of SRAM2ER bit */
  77:../Resources/Drivers/STM32L4xx_HAL_Driver/Src/stm32l4xx_hal.c **** #define SCSR_OFFSET               (SYSCFG_OFFSET + 0x18U)
  78:../Resources/Drivers/STM32L4xx_HAL_Driver/Src/stm32l4xx_hal.c **** #define BRER_BitNumber            0U
  79:../Resources/Drivers/STM32L4xx_HAL_Driver/Src/stm32l4xx_hal.c **** #define SCSR_SRAM2ER_BB           (PERIPH_BB_BASE + (SCSR_OFFSET * 32U) + (BRER_BitNumber * 4U))
  80:../Resources/Drivers/STM32L4xx_HAL_Driver/Src/stm32l4xx_hal.c **** 
  81:../Resources/Drivers/STM32L4xx_HAL_Driver/Src/stm32l4xx_hal.c **** /* Private macro -------------------------------------------------------------*/
  82:../Resources/Drivers/STM32L4xx_HAL_Driver/Src/stm32l4xx_hal.c **** /* Private variables ---------------------------------------------------------*/
  83:../Resources/Drivers/STM32L4xx_HAL_Driver/Src/stm32l4xx_hal.c **** /* Private function prototypes -----------------------------------------------*/
  84:../Resources/Drivers/STM32L4xx_HAL_Driver/Src/stm32l4xx_hal.c **** 
  85:../Resources/Drivers/STM32L4xx_HAL_Driver/Src/stm32l4xx_hal.c **** /* Exported variables --------------------------------------------------------*/
  86:../Resources/Drivers/STM32L4xx_HAL_Driver/Src/stm32l4xx_hal.c **** 
  87:../Resources/Drivers/STM32L4xx_HAL_Driver/Src/stm32l4xx_hal.c **** /** @defgroup HAL_Exported_Variables HAL Exported Variables
ARM GAS  /tmp/ccCbeSgG.s 			page 3


  88:../Resources/Drivers/STM32L4xx_HAL_Driver/Src/stm32l4xx_hal.c ****   * @{
  89:../Resources/Drivers/STM32L4xx_HAL_Driver/Src/stm32l4xx_hal.c ****   */
  90:../Resources/Drivers/STM32L4xx_HAL_Driver/Src/stm32l4xx_hal.c **** __IO uint32_t uwTick;
  91:../Resources/Drivers/STM32L4xx_HAL_Driver/Src/stm32l4xx_hal.c **** uint32_t uwTickPrio = (1UL << __NVIC_PRIO_BITS); /* Invalid priority */
  92:../Resources/Drivers/STM32L4xx_HAL_Driver/Src/stm32l4xx_hal.c **** HAL_TickFreqTypeDef uwTickFreq = HAL_TICK_FREQ_DEFAULT;  /* 1KHz */
  93:../Resources/Drivers/STM32L4xx_HAL_Driver/Src/stm32l4xx_hal.c **** /**
  94:../Resources/Drivers/STM32L4xx_HAL_Driver/Src/stm32l4xx_hal.c ****   * @}
  95:../Resources/Drivers/STM32L4xx_HAL_Driver/Src/stm32l4xx_hal.c ****   */
  96:../Resources/Drivers/STM32L4xx_HAL_Driver/Src/stm32l4xx_hal.c **** 
  97:../Resources/Drivers/STM32L4xx_HAL_Driver/Src/stm32l4xx_hal.c **** /* Exported functions --------------------------------------------------------*/
  98:../Resources/Drivers/STM32L4xx_HAL_Driver/Src/stm32l4xx_hal.c **** 
  99:../Resources/Drivers/STM32L4xx_HAL_Driver/Src/stm32l4xx_hal.c **** /** @defgroup HAL_Exported_Functions HAL Exported Functions
 100:../Resources/Drivers/STM32L4xx_HAL_Driver/Src/stm32l4xx_hal.c ****   * @{
 101:../Resources/Drivers/STM32L4xx_HAL_Driver/Src/stm32l4xx_hal.c ****   */
 102:../Resources/Drivers/STM32L4xx_HAL_Driver/Src/stm32l4xx_hal.c **** 
 103:../Resources/Drivers/STM32L4xx_HAL_Driver/Src/stm32l4xx_hal.c **** /** @defgroup HAL_Exported_Functions_Group1 Initialization and de-initialization Functions
 104:../Resources/Drivers/STM32L4xx_HAL_Driver/Src/stm32l4xx_hal.c ****  *  @brief    Initialization and de-initialization functions
 105:../Resources/Drivers/STM32L4xx_HAL_Driver/Src/stm32l4xx_hal.c ****  *
 106:../Resources/Drivers/STM32L4xx_HAL_Driver/Src/stm32l4xx_hal.c **** @verbatim
 107:../Resources/Drivers/STM32L4xx_HAL_Driver/Src/stm32l4xx_hal.c ****  ===============================================================================
 108:../Resources/Drivers/STM32L4xx_HAL_Driver/Src/stm32l4xx_hal.c ****               ##### Initialization and de-initialization functions #####
 109:../Resources/Drivers/STM32L4xx_HAL_Driver/Src/stm32l4xx_hal.c ****  ===============================================================================
 110:../Resources/Drivers/STM32L4xx_HAL_Driver/Src/stm32l4xx_hal.c ****     [..]  This section provides functions allowing to:
 111:../Resources/Drivers/STM32L4xx_HAL_Driver/Src/stm32l4xx_hal.c ****       (+) Initialize the Flash interface, the NVIC allocation and initial time base
 112:../Resources/Drivers/STM32L4xx_HAL_Driver/Src/stm32l4xx_hal.c ****           clock configuration.
 113:../Resources/Drivers/STM32L4xx_HAL_Driver/Src/stm32l4xx_hal.c ****       (+) De-initialize common part of the HAL.
 114:../Resources/Drivers/STM32L4xx_HAL_Driver/Src/stm32l4xx_hal.c ****       (+) Configure the time base source to have 1ms time base with a dedicated
 115:../Resources/Drivers/STM32L4xx_HAL_Driver/Src/stm32l4xx_hal.c ****           Tick interrupt priority.
 116:../Resources/Drivers/STM32L4xx_HAL_Driver/Src/stm32l4xx_hal.c ****         (++) SysTick timer is used by default as source of time base, but user
 117:../Resources/Drivers/STM32L4xx_HAL_Driver/Src/stm32l4xx_hal.c ****              can eventually implement his proper time base source (a general purpose
 118:../Resources/Drivers/STM32L4xx_HAL_Driver/Src/stm32l4xx_hal.c ****              timer for example or other time source), keeping in mind that Time base
 119:../Resources/Drivers/STM32L4xx_HAL_Driver/Src/stm32l4xx_hal.c ****              duration should be kept 1ms since PPP_TIMEOUT_VALUEs are defined and
 120:../Resources/Drivers/STM32L4xx_HAL_Driver/Src/stm32l4xx_hal.c ****              handled in milliseconds basis.
 121:../Resources/Drivers/STM32L4xx_HAL_Driver/Src/stm32l4xx_hal.c ****         (++) Time base configuration function (HAL_InitTick ()) is called automatically
 122:../Resources/Drivers/STM32L4xx_HAL_Driver/Src/stm32l4xx_hal.c ****              at the beginning of the program after reset by HAL_Init() or at any time
 123:../Resources/Drivers/STM32L4xx_HAL_Driver/Src/stm32l4xx_hal.c ****              when clock is configured, by HAL_RCC_ClockConfig().
 124:../Resources/Drivers/STM32L4xx_HAL_Driver/Src/stm32l4xx_hal.c ****         (++) Source of time base is configured  to generate interrupts at regular
 125:../Resources/Drivers/STM32L4xx_HAL_Driver/Src/stm32l4xx_hal.c ****              time intervals. Care must be taken if HAL_Delay() is called from a
 126:../Resources/Drivers/STM32L4xx_HAL_Driver/Src/stm32l4xx_hal.c ****              peripheral ISR process, the Tick interrupt line must have higher priority
 127:../Resources/Drivers/STM32L4xx_HAL_Driver/Src/stm32l4xx_hal.c ****             (numerically lower) than the peripheral interrupt. Otherwise the caller
 128:../Resources/Drivers/STM32L4xx_HAL_Driver/Src/stm32l4xx_hal.c ****             ISR process will be blocked.
 129:../Resources/Drivers/STM32L4xx_HAL_Driver/Src/stm32l4xx_hal.c ****        (++) functions affecting time base configurations are declared as __weak
 130:../Resources/Drivers/STM32L4xx_HAL_Driver/Src/stm32l4xx_hal.c ****              to make  override possible  in case of other  implementations in user file.
 131:../Resources/Drivers/STM32L4xx_HAL_Driver/Src/stm32l4xx_hal.c **** @endverbatim
 132:../Resources/Drivers/STM32L4xx_HAL_Driver/Src/stm32l4xx_hal.c ****   * @{
 133:../Resources/Drivers/STM32L4xx_HAL_Driver/Src/stm32l4xx_hal.c ****   */
 134:../Resources/Drivers/STM32L4xx_HAL_Driver/Src/stm32l4xx_hal.c **** 
 135:../Resources/Drivers/STM32L4xx_HAL_Driver/Src/stm32l4xx_hal.c **** /**
 136:../Resources/Drivers/STM32L4xx_HAL_Driver/Src/stm32l4xx_hal.c ****   * @brief  Configure the Flash prefetch, the Instruction and Data caches,
 137:../Resources/Drivers/STM32L4xx_HAL_Driver/Src/stm32l4xx_hal.c ****   *         the time base source, NVIC and any required global low level hardware
 138:../Resources/Drivers/STM32L4xx_HAL_Driver/Src/stm32l4xx_hal.c ****   *         by calling the HAL_MspInit() callback function to be optionally defined in user file
 139:../Resources/Drivers/STM32L4xx_HAL_Driver/Src/stm32l4xx_hal.c ****   *         stm32l4xx_hal_msp.c.
 140:../Resources/Drivers/STM32L4xx_HAL_Driver/Src/stm32l4xx_hal.c ****   *
 141:../Resources/Drivers/STM32L4xx_HAL_Driver/Src/stm32l4xx_hal.c ****   * @note   HAL_Init() function is called at the beginning of program after reset and before
 142:../Resources/Drivers/STM32L4xx_HAL_Driver/Src/stm32l4xx_hal.c ****   *         the clock configuration.
 143:../Resources/Drivers/STM32L4xx_HAL_Driver/Src/stm32l4xx_hal.c ****   *
 144:../Resources/Drivers/STM32L4xx_HAL_Driver/Src/stm32l4xx_hal.c ****   * @note   In the default implementation the System Timer (Systick) is used as source of time base
ARM GAS  /tmp/ccCbeSgG.s 			page 4


 145:../Resources/Drivers/STM32L4xx_HAL_Driver/Src/stm32l4xx_hal.c ****   *         The Systick configuration is based on MSI clock, as MSI is the clock
 146:../Resources/Drivers/STM32L4xx_HAL_Driver/Src/stm32l4xx_hal.c ****   *         used after a system Reset and the NVIC configuration is set to Priority group 4.
 147:../Resources/Drivers/STM32L4xx_HAL_Driver/Src/stm32l4xx_hal.c ****   *         Once done, time base tick starts incrementing: the tick variable counter is incremented
 148:../Resources/Drivers/STM32L4xx_HAL_Driver/Src/stm32l4xx_hal.c ****   *         each 1ms in the SysTick_Handler() interrupt handler.
 149:../Resources/Drivers/STM32L4xx_HAL_Driver/Src/stm32l4xx_hal.c ****   *
 150:../Resources/Drivers/STM32L4xx_HAL_Driver/Src/stm32l4xx_hal.c ****   * @retval HAL status
 151:../Resources/Drivers/STM32L4xx_HAL_Driver/Src/stm32l4xx_hal.c ****   */
 152:../Resources/Drivers/STM32L4xx_HAL_Driver/Src/stm32l4xx_hal.c **** HAL_StatusTypeDef HAL_Init(void)
 153:../Resources/Drivers/STM32L4xx_HAL_Driver/Src/stm32l4xx_hal.c **** {
 154:../Resources/Drivers/STM32L4xx_HAL_Driver/Src/stm32l4xx_hal.c ****   HAL_StatusTypeDef  status = HAL_OK;
 155:../Resources/Drivers/STM32L4xx_HAL_Driver/Src/stm32l4xx_hal.c **** 
 156:../Resources/Drivers/STM32L4xx_HAL_Driver/Src/stm32l4xx_hal.c ****   /* Configure Flash prefetch, Instruction cache, Data cache */
 157:../Resources/Drivers/STM32L4xx_HAL_Driver/Src/stm32l4xx_hal.c ****   /* Default configuration at reset is:                      */
 158:../Resources/Drivers/STM32L4xx_HAL_Driver/Src/stm32l4xx_hal.c ****   /* - Prefetch disabled                                     */
 159:../Resources/Drivers/STM32L4xx_HAL_Driver/Src/stm32l4xx_hal.c ****   /* - Instruction cache enabled                             */
 160:../Resources/Drivers/STM32L4xx_HAL_Driver/Src/stm32l4xx_hal.c ****   /* - Data cache enabled                                    */
 161:../Resources/Drivers/STM32L4xx_HAL_Driver/Src/stm32l4xx_hal.c **** #if (INSTRUCTION_CACHE_ENABLE == 0)
 162:../Resources/Drivers/STM32L4xx_HAL_Driver/Src/stm32l4xx_hal.c ****    __HAL_FLASH_INSTRUCTION_CACHE_DISABLE();
 163:../Resources/Drivers/STM32L4xx_HAL_Driver/Src/stm32l4xx_hal.c **** #endif /* INSTRUCTION_CACHE_ENABLE */
 164:../Resources/Drivers/STM32L4xx_HAL_Driver/Src/stm32l4xx_hal.c **** 
 165:../Resources/Drivers/STM32L4xx_HAL_Driver/Src/stm32l4xx_hal.c **** #if (DATA_CACHE_ENABLE == 0)
 166:../Resources/Drivers/STM32L4xx_HAL_Driver/Src/stm32l4xx_hal.c ****    __HAL_FLASH_DATA_CACHE_DISABLE();
 167:../Resources/Drivers/STM32L4xx_HAL_Driver/Src/stm32l4xx_hal.c **** #endif /* DATA_CACHE_ENABLE */
 168:../Resources/Drivers/STM32L4xx_HAL_Driver/Src/stm32l4xx_hal.c **** 
 169:../Resources/Drivers/STM32L4xx_HAL_Driver/Src/stm32l4xx_hal.c **** #if (PREFETCH_ENABLE != 0)
 170:../Resources/Drivers/STM32L4xx_HAL_Driver/Src/stm32l4xx_hal.c ****   __HAL_FLASH_PREFETCH_BUFFER_ENABLE();
 171:../Resources/Drivers/STM32L4xx_HAL_Driver/Src/stm32l4xx_hal.c **** #endif /* PREFETCH_ENABLE */
 172:../Resources/Drivers/STM32L4xx_HAL_Driver/Src/stm32l4xx_hal.c **** 
 173:../Resources/Drivers/STM32L4xx_HAL_Driver/Src/stm32l4xx_hal.c ****   /* Set Interrupt Group Priority */
 174:../Resources/Drivers/STM32L4xx_HAL_Driver/Src/stm32l4xx_hal.c ****   HAL_NVIC_SetPriorityGrouping(NVIC_PRIORITYGROUP_4);
 175:../Resources/Drivers/STM32L4xx_HAL_Driver/Src/stm32l4xx_hal.c **** 
 176:../Resources/Drivers/STM32L4xx_HAL_Driver/Src/stm32l4xx_hal.c ****   /* Use SysTick as time base source and configure 1ms tick (default clock after Reset is MSI) */
 177:../Resources/Drivers/STM32L4xx_HAL_Driver/Src/stm32l4xx_hal.c ****   if (HAL_InitTick(TICK_INT_PRIORITY) != HAL_OK)
 178:../Resources/Drivers/STM32L4xx_HAL_Driver/Src/stm32l4xx_hal.c ****   {
 179:../Resources/Drivers/STM32L4xx_HAL_Driver/Src/stm32l4xx_hal.c ****     status = HAL_ERROR;
 180:../Resources/Drivers/STM32L4xx_HAL_Driver/Src/stm32l4xx_hal.c ****   }
 181:../Resources/Drivers/STM32L4xx_HAL_Driver/Src/stm32l4xx_hal.c ****   else
 182:../Resources/Drivers/STM32L4xx_HAL_Driver/Src/stm32l4xx_hal.c ****   {
 183:../Resources/Drivers/STM32L4xx_HAL_Driver/Src/stm32l4xx_hal.c ****     /* Init the low level hardware */
 184:../Resources/Drivers/STM32L4xx_HAL_Driver/Src/stm32l4xx_hal.c ****     HAL_MspInit();
 185:../Resources/Drivers/STM32L4xx_HAL_Driver/Src/stm32l4xx_hal.c ****   }
 186:../Resources/Drivers/STM32L4xx_HAL_Driver/Src/stm32l4xx_hal.c **** 
 187:../Resources/Drivers/STM32L4xx_HAL_Driver/Src/stm32l4xx_hal.c ****   /* Return function status */
 188:../Resources/Drivers/STM32L4xx_HAL_Driver/Src/stm32l4xx_hal.c ****   return status;
 189:../Resources/Drivers/STM32L4xx_HAL_Driver/Src/stm32l4xx_hal.c **** }
 190:../Resources/Drivers/STM32L4xx_HAL_Driver/Src/stm32l4xx_hal.c **** 
 191:../Resources/Drivers/STM32L4xx_HAL_Driver/Src/stm32l4xx_hal.c **** /**
 192:../Resources/Drivers/STM32L4xx_HAL_Driver/Src/stm32l4xx_hal.c ****   * @brief De-initialize common part of the HAL and stop the source of time base.
 193:../Resources/Drivers/STM32L4xx_HAL_Driver/Src/stm32l4xx_hal.c ****   * @note This function is optional.
 194:../Resources/Drivers/STM32L4xx_HAL_Driver/Src/stm32l4xx_hal.c ****   * @retval HAL status
 195:../Resources/Drivers/STM32L4xx_HAL_Driver/Src/stm32l4xx_hal.c ****   */
 196:../Resources/Drivers/STM32L4xx_HAL_Driver/Src/stm32l4xx_hal.c **** HAL_StatusTypeDef HAL_DeInit(void)
 197:../Resources/Drivers/STM32L4xx_HAL_Driver/Src/stm32l4xx_hal.c **** {
 198:../Resources/Drivers/STM32L4xx_HAL_Driver/Src/stm32l4xx_hal.c ****   /* Reset of all peripherals */
 199:../Resources/Drivers/STM32L4xx_HAL_Driver/Src/stm32l4xx_hal.c ****   __HAL_RCC_APB1_FORCE_RESET();
 200:../Resources/Drivers/STM32L4xx_HAL_Driver/Src/stm32l4xx_hal.c ****   __HAL_RCC_APB1_RELEASE_RESET();
 201:../Resources/Drivers/STM32L4xx_HAL_Driver/Src/stm32l4xx_hal.c **** 
ARM GAS  /tmp/ccCbeSgG.s 			page 5


 202:../Resources/Drivers/STM32L4xx_HAL_Driver/Src/stm32l4xx_hal.c ****   __HAL_RCC_APB2_FORCE_RESET();
 203:../Resources/Drivers/STM32L4xx_HAL_Driver/Src/stm32l4xx_hal.c ****   __HAL_RCC_APB2_RELEASE_RESET();
 204:../Resources/Drivers/STM32L4xx_HAL_Driver/Src/stm32l4xx_hal.c **** 
 205:../Resources/Drivers/STM32L4xx_HAL_Driver/Src/stm32l4xx_hal.c ****   __HAL_RCC_AHB1_FORCE_RESET();
 206:../Resources/Drivers/STM32L4xx_HAL_Driver/Src/stm32l4xx_hal.c ****   __HAL_RCC_AHB1_RELEASE_RESET();
 207:../Resources/Drivers/STM32L4xx_HAL_Driver/Src/stm32l4xx_hal.c **** 
 208:../Resources/Drivers/STM32L4xx_HAL_Driver/Src/stm32l4xx_hal.c ****   __HAL_RCC_AHB2_FORCE_RESET();
 209:../Resources/Drivers/STM32L4xx_HAL_Driver/Src/stm32l4xx_hal.c ****   __HAL_RCC_AHB2_RELEASE_RESET();
 210:../Resources/Drivers/STM32L4xx_HAL_Driver/Src/stm32l4xx_hal.c **** 
 211:../Resources/Drivers/STM32L4xx_HAL_Driver/Src/stm32l4xx_hal.c ****   __HAL_RCC_AHB3_FORCE_RESET();
 212:../Resources/Drivers/STM32L4xx_HAL_Driver/Src/stm32l4xx_hal.c ****   __HAL_RCC_AHB3_RELEASE_RESET();
 213:../Resources/Drivers/STM32L4xx_HAL_Driver/Src/stm32l4xx_hal.c **** 
 214:../Resources/Drivers/STM32L4xx_HAL_Driver/Src/stm32l4xx_hal.c ****   /* De-Init the low level hardware */
 215:../Resources/Drivers/STM32L4xx_HAL_Driver/Src/stm32l4xx_hal.c ****   HAL_MspDeInit();
 216:../Resources/Drivers/STM32L4xx_HAL_Driver/Src/stm32l4xx_hal.c **** 
 217:../Resources/Drivers/STM32L4xx_HAL_Driver/Src/stm32l4xx_hal.c ****   /* Return function status */
 218:../Resources/Drivers/STM32L4xx_HAL_Driver/Src/stm32l4xx_hal.c ****   return HAL_OK;
 219:../Resources/Drivers/STM32L4xx_HAL_Driver/Src/stm32l4xx_hal.c **** }
 220:../Resources/Drivers/STM32L4xx_HAL_Driver/Src/stm32l4xx_hal.c **** 
 221:../Resources/Drivers/STM32L4xx_HAL_Driver/Src/stm32l4xx_hal.c **** /**
 222:../Resources/Drivers/STM32L4xx_HAL_Driver/Src/stm32l4xx_hal.c ****   * @brief  Initialize the MSP.
 223:../Resources/Drivers/STM32L4xx_HAL_Driver/Src/stm32l4xx_hal.c ****   * @retval None
 224:../Resources/Drivers/STM32L4xx_HAL_Driver/Src/stm32l4xx_hal.c ****   */
 225:../Resources/Drivers/STM32L4xx_HAL_Driver/Src/stm32l4xx_hal.c **** __weak void HAL_MspInit(void)
 226:../Resources/Drivers/STM32L4xx_HAL_Driver/Src/stm32l4xx_hal.c **** {
  29              		.loc 1 226 1 view -0
  30              		.cfi_startproc
  31              		@ args = 0, pretend = 0, frame = 0
  32              		@ frame_needed = 0, uses_anonymous_args = 0
  33              		@ link register save eliminated.
 227:../Resources/Drivers/STM32L4xx_HAL_Driver/Src/stm32l4xx_hal.c ****   /* NOTE : This function should not be modified, when the callback is needed,
 228:../Resources/Drivers/STM32L4xx_HAL_Driver/Src/stm32l4xx_hal.c ****             the HAL_MspInit could be implemented in the user file
 229:../Resources/Drivers/STM32L4xx_HAL_Driver/Src/stm32l4xx_hal.c ****    */
 230:../Resources/Drivers/STM32L4xx_HAL_Driver/Src/stm32l4xx_hal.c **** }
  34              		.loc 1 230 1 view .LVU1
  35 0000 7047     		bx	lr
  36              		.cfi_endproc
  37              	.LFE134:
  39              		.section	.text.HAL_MspDeInit,"ax",%progbits
  40              		.align	1
  41              		.weak	HAL_MspDeInit
  42              		.syntax unified
  43              		.thumb
  44              		.thumb_func
  46              	HAL_MspDeInit:
  47              	.LFB135:
 231:../Resources/Drivers/STM32L4xx_HAL_Driver/Src/stm32l4xx_hal.c **** 
 232:../Resources/Drivers/STM32L4xx_HAL_Driver/Src/stm32l4xx_hal.c **** /**
 233:../Resources/Drivers/STM32L4xx_HAL_Driver/Src/stm32l4xx_hal.c ****   * @brief  DeInitialize the MSP.
 234:../Resources/Drivers/STM32L4xx_HAL_Driver/Src/stm32l4xx_hal.c ****   * @retval None
 235:../Resources/Drivers/STM32L4xx_HAL_Driver/Src/stm32l4xx_hal.c ****   */
 236:../Resources/Drivers/STM32L4xx_HAL_Driver/Src/stm32l4xx_hal.c **** __weak void HAL_MspDeInit(void)
 237:../Resources/Drivers/STM32L4xx_HAL_Driver/Src/stm32l4xx_hal.c **** {
  48              		.loc 1 237 1 view -0
  49              		.cfi_startproc
  50              		@ args = 0, pretend = 0, frame = 0
  51              		@ frame_needed = 0, uses_anonymous_args = 0
ARM GAS  /tmp/ccCbeSgG.s 			page 6


  52              		@ link register save eliminated.
 238:../Resources/Drivers/STM32L4xx_HAL_Driver/Src/stm32l4xx_hal.c ****   /* NOTE : This function should not be modified, when the callback is needed,
 239:../Resources/Drivers/STM32L4xx_HAL_Driver/Src/stm32l4xx_hal.c ****             the HAL_MspDeInit could be implemented in the user file
 240:../Resources/Drivers/STM32L4xx_HAL_Driver/Src/stm32l4xx_hal.c ****    */
 241:../Resources/Drivers/STM32L4xx_HAL_Driver/Src/stm32l4xx_hal.c **** }
  53              		.loc 1 241 1 view .LVU3
  54 0000 7047     		bx	lr
  55              		.cfi_endproc
  56              	.LFE135:
  58              		.section	.text.HAL_DeInit,"ax",%progbits
  59              		.align	1
  60              		.global	HAL_DeInit
  61              		.syntax unified
  62              		.thumb
  63              		.thumb_func
  65              	HAL_DeInit:
  66              	.LFB133:
 197:../Resources/Drivers/STM32L4xx_HAL_Driver/Src/stm32l4xx_hal.c ****   /* Reset of all peripherals */
  67              		.loc 1 197 1 view -0
  68              		.cfi_startproc
  69              		@ args = 0, pretend = 0, frame = 0
  70              		@ frame_needed = 0, uses_anonymous_args = 0
  71 0000 10B5     		push	{r4, lr}
  72              	.LCFI0:
  73              		.cfi_def_cfa_offset 8
  74              		.cfi_offset 4, -8
  75              		.cfi_offset 14, -4
 199:../Resources/Drivers/STM32L4xx_HAL_Driver/Src/stm32l4xx_hal.c ****   __HAL_RCC_APB1_RELEASE_RESET();
  76              		.loc 1 199 3 view .LVU5
 199:../Resources/Drivers/STM32L4xx_HAL_Driver/Src/stm32l4xx_hal.c ****   __HAL_RCC_APB1_RELEASE_RESET();
  77              		.loc 1 199 3 view .LVU6
  78 0002 0A4B     		ldr	r3, .L5
  79 0004 4FF0FF32 		mov	r2, #-1
  80 0008 9A63     		str	r2, [r3, #56]
 199:../Resources/Drivers/STM32L4xx_HAL_Driver/Src/stm32l4xx_hal.c ****   __HAL_RCC_APB1_RELEASE_RESET();
  81              		.loc 1 199 3 view .LVU7
  82 000a DA63     		str	r2, [r3, #60]
 199:../Resources/Drivers/STM32L4xx_HAL_Driver/Src/stm32l4xx_hal.c ****   __HAL_RCC_APB1_RELEASE_RESET();
  83              		.loc 1 199 3 view .LVU8
 200:../Resources/Drivers/STM32L4xx_HAL_Driver/Src/stm32l4xx_hal.c **** 
  84              		.loc 1 200 3 view .LVU9
 200:../Resources/Drivers/STM32L4xx_HAL_Driver/Src/stm32l4xx_hal.c **** 
  85              		.loc 1 200 3 view .LVU10
  86 000c 0024     		movs	r4, #0
  87 000e 9C63     		str	r4, [r3, #56]
 200:../Resources/Drivers/STM32L4xx_HAL_Driver/Src/stm32l4xx_hal.c **** 
  88              		.loc 1 200 3 view .LVU11
  89 0010 DC63     		str	r4, [r3, #60]
 200:../Resources/Drivers/STM32L4xx_HAL_Driver/Src/stm32l4xx_hal.c **** 
  90              		.loc 1 200 3 view .LVU12
 202:../Resources/Drivers/STM32L4xx_HAL_Driver/Src/stm32l4xx_hal.c ****   __HAL_RCC_APB2_RELEASE_RESET();
  91              		.loc 1 202 3 view .LVU13
  92 0012 1A64     		str	r2, [r3, #64]
 203:../Resources/Drivers/STM32L4xx_HAL_Driver/Src/stm32l4xx_hal.c **** 
  93              		.loc 1 203 3 view .LVU14
  94 0014 1C64     		str	r4, [r3, #64]
 205:../Resources/Drivers/STM32L4xx_HAL_Driver/Src/stm32l4xx_hal.c ****   __HAL_RCC_AHB1_RELEASE_RESET();
ARM GAS  /tmp/ccCbeSgG.s 			page 7


  95              		.loc 1 205 3 view .LVU15
  96 0016 9A62     		str	r2, [r3, #40]
 206:../Resources/Drivers/STM32L4xx_HAL_Driver/Src/stm32l4xx_hal.c **** 
  97              		.loc 1 206 3 view .LVU16
  98 0018 9C62     		str	r4, [r3, #40]
 208:../Resources/Drivers/STM32L4xx_HAL_Driver/Src/stm32l4xx_hal.c ****   __HAL_RCC_AHB2_RELEASE_RESET();
  99              		.loc 1 208 3 view .LVU17
 100 001a DA62     		str	r2, [r3, #44]
 209:../Resources/Drivers/STM32L4xx_HAL_Driver/Src/stm32l4xx_hal.c **** 
 101              		.loc 1 209 3 view .LVU18
 102 001c DC62     		str	r4, [r3, #44]
 211:../Resources/Drivers/STM32L4xx_HAL_Driver/Src/stm32l4xx_hal.c ****   __HAL_RCC_AHB3_RELEASE_RESET();
 103              		.loc 1 211 3 view .LVU19
 104 001e 1A63     		str	r2, [r3, #48]
 212:../Resources/Drivers/STM32L4xx_HAL_Driver/Src/stm32l4xx_hal.c **** 
 105              		.loc 1 212 3 view .LVU20
 106 0020 1C63     		str	r4, [r3, #48]
 215:../Resources/Drivers/STM32L4xx_HAL_Driver/Src/stm32l4xx_hal.c **** 
 107              		.loc 1 215 3 view .LVU21
 108 0022 FFF7FEFF 		bl	HAL_MspDeInit
 109              	.LVL0:
 218:../Resources/Drivers/STM32L4xx_HAL_Driver/Src/stm32l4xx_hal.c **** }
 110              		.loc 1 218 3 view .LVU22
 219:../Resources/Drivers/STM32L4xx_HAL_Driver/Src/stm32l4xx_hal.c **** 
 111              		.loc 1 219 1 is_stmt 0 view .LVU23
 112 0026 2046     		mov	r0, r4
 113 0028 10BD     		pop	{r4, pc}
 114              	.L6:
 115 002a 00BF     		.align	2
 116              	.L5:
 117 002c 00100240 		.word	1073876992
 118              		.cfi_endproc
 119              	.LFE133:
 121              		.section	.text.HAL_InitTick,"ax",%progbits
 122              		.align	1
 123              		.weak	HAL_InitTick
 124              		.syntax unified
 125              		.thumb
 126              		.thumb_func
 128              	HAL_InitTick:
 129              	.LVL1:
 130              	.LFB136:
 242:../Resources/Drivers/STM32L4xx_HAL_Driver/Src/stm32l4xx_hal.c **** 
 243:../Resources/Drivers/STM32L4xx_HAL_Driver/Src/stm32l4xx_hal.c **** /**
 244:../Resources/Drivers/STM32L4xx_HAL_Driver/Src/stm32l4xx_hal.c ****   * @brief This function configures the source of the time base:
 245:../Resources/Drivers/STM32L4xx_HAL_Driver/Src/stm32l4xx_hal.c ****   *        The time source is configured to have 1ms time base with a dedicated
 246:../Resources/Drivers/STM32L4xx_HAL_Driver/Src/stm32l4xx_hal.c ****   *        Tick interrupt priority.
 247:../Resources/Drivers/STM32L4xx_HAL_Driver/Src/stm32l4xx_hal.c ****   * @note This function is called  automatically at the beginning of program after
 248:../Resources/Drivers/STM32L4xx_HAL_Driver/Src/stm32l4xx_hal.c ****   *       reset by HAL_Init() or at any time when clock is reconfigured  by HAL_RCC_ClockConfig().
 249:../Resources/Drivers/STM32L4xx_HAL_Driver/Src/stm32l4xx_hal.c ****   * @note In the default implementation, SysTick timer is the source of time base.
 250:../Resources/Drivers/STM32L4xx_HAL_Driver/Src/stm32l4xx_hal.c ****   *       It is used to generate interrupts at regular time intervals.
 251:../Resources/Drivers/STM32L4xx_HAL_Driver/Src/stm32l4xx_hal.c ****   *       Care must be taken if HAL_Delay() is called from a peripheral ISR process,
 252:../Resources/Drivers/STM32L4xx_HAL_Driver/Src/stm32l4xx_hal.c ****   *       The SysTick interrupt must have higher priority (numerically lower)
 253:../Resources/Drivers/STM32L4xx_HAL_Driver/Src/stm32l4xx_hal.c ****   *       than the peripheral interrupt. Otherwise the caller ISR process will be blocked.
 254:../Resources/Drivers/STM32L4xx_HAL_Driver/Src/stm32l4xx_hal.c ****   *       The function is declared as __weak  to be overwritten  in case of other
 255:../Resources/Drivers/STM32L4xx_HAL_Driver/Src/stm32l4xx_hal.c ****   *       implementation  in user file.
 256:../Resources/Drivers/STM32L4xx_HAL_Driver/Src/stm32l4xx_hal.c ****   * @param TickPriority  Tick interrupt priority.
ARM GAS  /tmp/ccCbeSgG.s 			page 8


 257:../Resources/Drivers/STM32L4xx_HAL_Driver/Src/stm32l4xx_hal.c ****   * @retval HAL status
 258:../Resources/Drivers/STM32L4xx_HAL_Driver/Src/stm32l4xx_hal.c ****   */
 259:../Resources/Drivers/STM32L4xx_HAL_Driver/Src/stm32l4xx_hal.c **** __weak HAL_StatusTypeDef HAL_InitTick(uint32_t TickPriority)
 260:../Resources/Drivers/STM32L4xx_HAL_Driver/Src/stm32l4xx_hal.c **** {
 131              		.loc 1 260 1 is_stmt 1 view -0
 132              		.cfi_startproc
 133              		@ args = 0, pretend = 0, frame = 0
 134              		@ frame_needed = 0, uses_anonymous_args = 0
 261:../Resources/Drivers/STM32L4xx_HAL_Driver/Src/stm32l4xx_hal.c ****   HAL_StatusTypeDef  status = HAL_OK;
 135              		.loc 1 261 3 view .LVU25
 262:../Resources/Drivers/STM32L4xx_HAL_Driver/Src/stm32l4xx_hal.c **** 
 263:../Resources/Drivers/STM32L4xx_HAL_Driver/Src/stm32l4xx_hal.c ****   /* Check uwTickFreq for MisraC 2012 (even if uwTickFreq is a enum type that doesn't take the valu
 264:../Resources/Drivers/STM32L4xx_HAL_Driver/Src/stm32l4xx_hal.c ****   if ((uint32_t)uwTickFreq != 0U)
 136              		.loc 1 264 3 view .LVU26
 137              		.loc 1 264 28 is_stmt 0 view .LVU27
 138 0000 104B     		ldr	r3, .L18
 139 0002 1B78     		ldrb	r3, [r3]	@ zero_extendqisi2
 140              		.loc 1 264 6 view .LVU28
 141 0004 0BB9     		cbnz	r3, .L16
 265:../Resources/Drivers/STM32L4xx_HAL_Driver/Src/stm32l4xx_hal.c ****   {
 266:../Resources/Drivers/STM32L4xx_HAL_Driver/Src/stm32l4xx_hal.c ****     /*Configure the SysTick to have interrupt in 1ms time basis*/
 267:../Resources/Drivers/STM32L4xx_HAL_Driver/Src/stm32l4xx_hal.c ****     if (HAL_SYSTICK_Config(SystemCoreClock / (1000U / (uint32_t)uwTickFreq)) == 0U)
 268:../Resources/Drivers/STM32L4xx_HAL_Driver/Src/stm32l4xx_hal.c ****     {
 269:../Resources/Drivers/STM32L4xx_HAL_Driver/Src/stm32l4xx_hal.c ****       /* Configure the SysTick IRQ priority */
 270:../Resources/Drivers/STM32L4xx_HAL_Driver/Src/stm32l4xx_hal.c ****       if (TickPriority < (1UL << __NVIC_PRIO_BITS))
 271:../Resources/Drivers/STM32L4xx_HAL_Driver/Src/stm32l4xx_hal.c ****       {
 272:../Resources/Drivers/STM32L4xx_HAL_Driver/Src/stm32l4xx_hal.c ****         HAL_NVIC_SetPriority(SysTick_IRQn, TickPriority, 0U);
 273:../Resources/Drivers/STM32L4xx_HAL_Driver/Src/stm32l4xx_hal.c ****         uwTickPrio = TickPriority;
 274:../Resources/Drivers/STM32L4xx_HAL_Driver/Src/stm32l4xx_hal.c ****       }
 275:../Resources/Drivers/STM32L4xx_HAL_Driver/Src/stm32l4xx_hal.c ****       else
 276:../Resources/Drivers/STM32L4xx_HAL_Driver/Src/stm32l4xx_hal.c ****       {
 277:../Resources/Drivers/STM32L4xx_HAL_Driver/Src/stm32l4xx_hal.c ****         status = HAL_ERROR;
 278:../Resources/Drivers/STM32L4xx_HAL_Driver/Src/stm32l4xx_hal.c ****       }
 279:../Resources/Drivers/STM32L4xx_HAL_Driver/Src/stm32l4xx_hal.c ****     }
 280:../Resources/Drivers/STM32L4xx_HAL_Driver/Src/stm32l4xx_hal.c ****     else
 281:../Resources/Drivers/STM32L4xx_HAL_Driver/Src/stm32l4xx_hal.c ****     {
 282:../Resources/Drivers/STM32L4xx_HAL_Driver/Src/stm32l4xx_hal.c ****       status = HAL_ERROR;
 283:../Resources/Drivers/STM32L4xx_HAL_Driver/Src/stm32l4xx_hal.c ****     }
 284:../Resources/Drivers/STM32L4xx_HAL_Driver/Src/stm32l4xx_hal.c ****   }
 285:../Resources/Drivers/STM32L4xx_HAL_Driver/Src/stm32l4xx_hal.c ****   else
 286:../Resources/Drivers/STM32L4xx_HAL_Driver/Src/stm32l4xx_hal.c ****   {
 287:../Resources/Drivers/STM32L4xx_HAL_Driver/Src/stm32l4xx_hal.c ****     status = HAL_ERROR;
 142              		.loc 1 287 12 view .LVU29
 143 0006 0120     		movs	r0, #1
 144              	.LVL2:
 288:../Resources/Drivers/STM32L4xx_HAL_Driver/Src/stm32l4xx_hal.c ****   }
 289:../Resources/Drivers/STM32L4xx_HAL_Driver/Src/stm32l4xx_hal.c **** 
 290:../Resources/Drivers/STM32L4xx_HAL_Driver/Src/stm32l4xx_hal.c ****   /* Return function status */
 291:../Resources/Drivers/STM32L4xx_HAL_Driver/Src/stm32l4xx_hal.c ****   return status;
 145              		.loc 1 291 3 is_stmt 1 view .LVU30
 292:../Resources/Drivers/STM32L4xx_HAL_Driver/Src/stm32l4xx_hal.c **** }
 146              		.loc 1 292 1 is_stmt 0 view .LVU31
 147 0008 7047     		bx	lr
 148              	.LVL3:
 149              	.L16:
 260:../Resources/Drivers/STM32L4xx_HAL_Driver/Src/stm32l4xx_hal.c ****   HAL_StatusTypeDef  status = HAL_OK;
 150              		.loc 1 260 1 view .LVU32
ARM GAS  /tmp/ccCbeSgG.s 			page 9


 151 000a 10B5     		push	{r4, lr}
 152              	.LCFI1:
 153              		.cfi_def_cfa_offset 8
 154              		.cfi_offset 4, -8
 155              		.cfi_offset 14, -4
 156 000c 0446     		mov	r4, r0
 267:../Resources/Drivers/STM32L4xx_HAL_Driver/Src/stm32l4xx_hal.c ****     {
 157              		.loc 1 267 5 is_stmt 1 view .LVU33
 267:../Resources/Drivers/STM32L4xx_HAL_Driver/Src/stm32l4xx_hal.c ****     {
 158              		.loc 1 267 53 is_stmt 0 view .LVU34
 159 000e 4FF47A70 		mov	r0, #1000
 160              	.LVL4:
 267:../Resources/Drivers/STM32L4xx_HAL_Driver/Src/stm32l4xx_hal.c ****     {
 161              		.loc 1 267 53 view .LVU35
 162 0012 B0FBF3F3 		udiv	r3, r0, r3
 267:../Resources/Drivers/STM32L4xx_HAL_Driver/Src/stm32l4xx_hal.c ****     {
 163              		.loc 1 267 9 view .LVU36
 164 0016 0C4A     		ldr	r2, .L18+4
 165 0018 1068     		ldr	r0, [r2]
 166 001a B0FBF3F0 		udiv	r0, r0, r3
 167 001e FFF7FEFF 		bl	HAL_SYSTICK_Config
 168              	.LVL5:
 267:../Resources/Drivers/STM32L4xx_HAL_Driver/Src/stm32l4xx_hal.c ****     {
 169              		.loc 1 267 8 view .LVU37
 170 0022 68B9     		cbnz	r0, .L10
 270:../Resources/Drivers/STM32L4xx_HAL_Driver/Src/stm32l4xx_hal.c ****       {
 171              		.loc 1 270 7 is_stmt 1 view .LVU38
 270:../Resources/Drivers/STM32L4xx_HAL_Driver/Src/stm32l4xx_hal.c ****       {
 172              		.loc 1 270 10 is_stmt 0 view .LVU39
 173 0024 0F2C     		cmp	r4, #15
 174 0026 01D9     		bls	.L17
 277:../Resources/Drivers/STM32L4xx_HAL_Driver/Src/stm32l4xx_hal.c ****       }
 175              		.loc 1 277 16 view .LVU40
 176 0028 0120     		movs	r0, #1
 177 002a 0AE0     		b	.L8
 178              	.L17:
 272:../Resources/Drivers/STM32L4xx_HAL_Driver/Src/stm32l4xx_hal.c ****         uwTickPrio = TickPriority;
 179              		.loc 1 272 9 is_stmt 1 view .LVU41
 180 002c 0022     		movs	r2, #0
 181 002e 2146     		mov	r1, r4
 182 0030 4FF0FF30 		mov	r0, #-1
 183 0034 FFF7FEFF 		bl	HAL_NVIC_SetPriority
 184              	.LVL6:
 273:../Resources/Drivers/STM32L4xx_HAL_Driver/Src/stm32l4xx_hal.c ****       }
 185              		.loc 1 273 9 view .LVU42
 273:../Resources/Drivers/STM32L4xx_HAL_Driver/Src/stm32l4xx_hal.c ****       }
 186              		.loc 1 273 20 is_stmt 0 view .LVU43
 187 0038 044B     		ldr	r3, .L18+8
 188 003a 1C60     		str	r4, [r3]
 261:../Resources/Drivers/STM32L4xx_HAL_Driver/Src/stm32l4xx_hal.c **** 
 189              		.loc 1 261 22 view .LVU44
 190 003c 0020     		movs	r0, #0
 191 003e 00E0     		b	.L8
 192              	.L10:
 282:../Resources/Drivers/STM32L4xx_HAL_Driver/Src/stm32l4xx_hal.c ****     }
 193              		.loc 1 282 14 view .LVU45
 194 0040 0120     		movs	r0, #1
ARM GAS  /tmp/ccCbeSgG.s 			page 10


 195              	.L8:
 196              	.LVL7:
 291:../Resources/Drivers/STM32L4xx_HAL_Driver/Src/stm32l4xx_hal.c **** }
 197              		.loc 1 291 3 is_stmt 1 view .LVU46
 198              		.loc 1 292 1 is_stmt 0 view .LVU47
 199 0042 10BD     		pop	{r4, pc}
 200              	.LVL8:
 201              	.L19:
 202              		.loc 1 292 1 view .LVU48
 203              		.align	2
 204              	.L18:
 205 0044 00000000 		.word	.LANCHOR0
 206 0048 00000000 		.word	SystemCoreClock
 207 004c 00000000 		.word	.LANCHOR1
 208              		.cfi_endproc
 209              	.LFE136:
 211              		.section	.text.HAL_Init,"ax",%progbits
 212              		.align	1
 213              		.global	HAL_Init
 214              		.syntax unified
 215              		.thumb
 216              		.thumb_func
 218              	HAL_Init:
 219              	.LFB132:
 153:../Resources/Drivers/STM32L4xx_HAL_Driver/Src/stm32l4xx_hal.c ****   HAL_StatusTypeDef  status = HAL_OK;
 220              		.loc 1 153 1 is_stmt 1 view -0
 221              		.cfi_startproc
 222              		@ args = 0, pretend = 0, frame = 0
 223              		@ frame_needed = 0, uses_anonymous_args = 0
 224 0000 10B5     		push	{r4, lr}
 225              	.LCFI2:
 226              		.cfi_def_cfa_offset 8
 227              		.cfi_offset 4, -8
 228              		.cfi_offset 14, -4
 154:../Resources/Drivers/STM32L4xx_HAL_Driver/Src/stm32l4xx_hal.c **** 
 229              		.loc 1 154 3 view .LVU50
 230              	.LVL9:
 170:../Resources/Drivers/STM32L4xx_HAL_Driver/Src/stm32l4xx_hal.c **** #endif /* PREFETCH_ENABLE */
 231              		.loc 1 170 3 view .LVU51
 232 0002 094A     		ldr	r2, .L25
 233 0004 1368     		ldr	r3, [r2]
 234 0006 43F48073 		orr	r3, r3, #256
 235 000a 1360     		str	r3, [r2]
 174:../Resources/Drivers/STM32L4xx_HAL_Driver/Src/stm32l4xx_hal.c **** 
 236              		.loc 1 174 3 view .LVU52
 237 000c 0320     		movs	r0, #3
 238 000e FFF7FEFF 		bl	HAL_NVIC_SetPriorityGrouping
 239              	.LVL10:
 177:../Resources/Drivers/STM32L4xx_HAL_Driver/Src/stm32l4xx_hal.c ****   {
 240              		.loc 1 177 3 view .LVU53
 177:../Resources/Drivers/STM32L4xx_HAL_Driver/Src/stm32l4xx_hal.c ****   {
 241              		.loc 1 177 7 is_stmt 0 view .LVU54
 242 0012 0F20     		movs	r0, #15
 243 0014 FFF7FEFF 		bl	HAL_InitTick
 244              	.LVL11:
 177:../Resources/Drivers/STM32L4xx_HAL_Driver/Src/stm32l4xx_hal.c ****   {
 245              		.loc 1 177 6 view .LVU55
ARM GAS  /tmp/ccCbeSgG.s 			page 11


 246 0018 10B1     		cbz	r0, .L24
 179:../Resources/Drivers/STM32L4xx_HAL_Driver/Src/stm32l4xx_hal.c ****   }
 247              		.loc 1 179 12 view .LVU56
 248 001a 0124     		movs	r4, #1
 249              	.L21:
 250              	.LVL12:
 188:../Resources/Drivers/STM32L4xx_HAL_Driver/Src/stm32l4xx_hal.c **** }
 251              		.loc 1 188 3 is_stmt 1 view .LVU57
 189:../Resources/Drivers/STM32L4xx_HAL_Driver/Src/stm32l4xx_hal.c **** 
 252              		.loc 1 189 1 is_stmt 0 view .LVU58
 253 001c 2046     		mov	r0, r4
 254 001e 10BD     		pop	{r4, pc}
 255              	.LVL13:
 256              	.L24:
 189:../Resources/Drivers/STM32L4xx_HAL_Driver/Src/stm32l4xx_hal.c **** 
 257              		.loc 1 189 1 view .LVU59
 258 0020 0446     		mov	r4, r0
 184:../Resources/Drivers/STM32L4xx_HAL_Driver/Src/stm32l4xx_hal.c ****   }
 259              		.loc 1 184 5 is_stmt 1 view .LVU60
 260 0022 FFF7FEFF 		bl	HAL_MspInit
 261              	.LVL14:
 262 0026 F9E7     		b	.L21
 263              	.L26:
 264              		.align	2
 265              	.L25:
 266 0028 00200240 		.word	1073881088
 267              		.cfi_endproc
 268              	.LFE132:
 270              		.section	.text.HAL_IncTick,"ax",%progbits
 271              		.align	1
 272              		.weak	HAL_IncTick
 273              		.syntax unified
 274              		.thumb
 275              		.thumb_func
 277              	HAL_IncTick:
 278              	.LFB137:
 293:../Resources/Drivers/STM32L4xx_HAL_Driver/Src/stm32l4xx_hal.c **** 
 294:../Resources/Drivers/STM32L4xx_HAL_Driver/Src/stm32l4xx_hal.c **** /**
 295:../Resources/Drivers/STM32L4xx_HAL_Driver/Src/stm32l4xx_hal.c ****   * @}
 296:../Resources/Drivers/STM32L4xx_HAL_Driver/Src/stm32l4xx_hal.c ****   */
 297:../Resources/Drivers/STM32L4xx_HAL_Driver/Src/stm32l4xx_hal.c **** 
 298:../Resources/Drivers/STM32L4xx_HAL_Driver/Src/stm32l4xx_hal.c **** /** @defgroup HAL_Exported_Functions_Group2 HAL Control functions
 299:../Resources/Drivers/STM32L4xx_HAL_Driver/Src/stm32l4xx_hal.c ****  *  @brief    HAL Control functions
 300:../Resources/Drivers/STM32L4xx_HAL_Driver/Src/stm32l4xx_hal.c ****  *
 301:../Resources/Drivers/STM32L4xx_HAL_Driver/Src/stm32l4xx_hal.c **** @verbatim
 302:../Resources/Drivers/STM32L4xx_HAL_Driver/Src/stm32l4xx_hal.c ****  ===============================================================================
 303:../Resources/Drivers/STM32L4xx_HAL_Driver/Src/stm32l4xx_hal.c ****                       ##### HAL Control functions #####
 304:../Resources/Drivers/STM32L4xx_HAL_Driver/Src/stm32l4xx_hal.c ****  ===============================================================================
 305:../Resources/Drivers/STM32L4xx_HAL_Driver/Src/stm32l4xx_hal.c ****     [..]  This section provides functions allowing to:
 306:../Resources/Drivers/STM32L4xx_HAL_Driver/Src/stm32l4xx_hal.c ****       (+) Provide a tick value in millisecond
 307:../Resources/Drivers/STM32L4xx_HAL_Driver/Src/stm32l4xx_hal.c ****       (+) Provide a blocking delay in millisecond
 308:../Resources/Drivers/STM32L4xx_HAL_Driver/Src/stm32l4xx_hal.c ****       (+) Suspend the time base source interrupt
 309:../Resources/Drivers/STM32L4xx_HAL_Driver/Src/stm32l4xx_hal.c ****       (+) Resume the time base source interrupt
 310:../Resources/Drivers/STM32L4xx_HAL_Driver/Src/stm32l4xx_hal.c ****       (+) Get the HAL API driver version
 311:../Resources/Drivers/STM32L4xx_HAL_Driver/Src/stm32l4xx_hal.c ****       (+) Get the device identifier
 312:../Resources/Drivers/STM32L4xx_HAL_Driver/Src/stm32l4xx_hal.c ****       (+) Get the device revision identifier
 313:../Resources/Drivers/STM32L4xx_HAL_Driver/Src/stm32l4xx_hal.c **** 
ARM GAS  /tmp/ccCbeSgG.s 			page 12


 314:../Resources/Drivers/STM32L4xx_HAL_Driver/Src/stm32l4xx_hal.c **** @endverbatim
 315:../Resources/Drivers/STM32L4xx_HAL_Driver/Src/stm32l4xx_hal.c ****   * @{
 316:../Resources/Drivers/STM32L4xx_HAL_Driver/Src/stm32l4xx_hal.c ****   */
 317:../Resources/Drivers/STM32L4xx_HAL_Driver/Src/stm32l4xx_hal.c **** 
 318:../Resources/Drivers/STM32L4xx_HAL_Driver/Src/stm32l4xx_hal.c **** /**
 319:../Resources/Drivers/STM32L4xx_HAL_Driver/Src/stm32l4xx_hal.c ****   * @brief This function is called to increment a global variable "uwTick"
 320:../Resources/Drivers/STM32L4xx_HAL_Driver/Src/stm32l4xx_hal.c ****   *        used as application time base.
 321:../Resources/Drivers/STM32L4xx_HAL_Driver/Src/stm32l4xx_hal.c ****   * @note In the default implementation, this variable is incremented each 1ms
 322:../Resources/Drivers/STM32L4xx_HAL_Driver/Src/stm32l4xx_hal.c ****   *       in SysTick ISR.
 323:../Resources/Drivers/STM32L4xx_HAL_Driver/Src/stm32l4xx_hal.c ****  * @note This function is declared as __weak to be overwritten in case of other
 324:../Resources/Drivers/STM32L4xx_HAL_Driver/Src/stm32l4xx_hal.c ****   *      implementations in user file.
 325:../Resources/Drivers/STM32L4xx_HAL_Driver/Src/stm32l4xx_hal.c ****   * @retval None
 326:../Resources/Drivers/STM32L4xx_HAL_Driver/Src/stm32l4xx_hal.c ****   */
 327:../Resources/Drivers/STM32L4xx_HAL_Driver/Src/stm32l4xx_hal.c **** __weak void HAL_IncTick(void)
 328:../Resources/Drivers/STM32L4xx_HAL_Driver/Src/stm32l4xx_hal.c **** {
 279              		.loc 1 328 1 view -0
 280              		.cfi_startproc
 281              		@ args = 0, pretend = 0, frame = 0
 282              		@ frame_needed = 0, uses_anonymous_args = 0
 283              		@ link register save eliminated.
 329:../Resources/Drivers/STM32L4xx_HAL_Driver/Src/stm32l4xx_hal.c ****   uwTick += (uint32_t)uwTickFreq;
 284              		.loc 1 329 3 view .LVU62
 285              		.loc 1 329 13 is_stmt 0 view .LVU63
 286 0000 034B     		ldr	r3, .L28
 287 0002 1B78     		ldrb	r3, [r3]	@ zero_extendqisi2
 288              		.loc 1 329 10 view .LVU64
 289 0004 034A     		ldr	r2, .L28+4
 290 0006 1168     		ldr	r1, [r2]
 291 0008 0B44     		add	r3, r3, r1
 292 000a 1360     		str	r3, [r2]
 330:../Resources/Drivers/STM32L4xx_HAL_Driver/Src/stm32l4xx_hal.c **** }
 293              		.loc 1 330 1 view .LVU65
 294 000c 7047     		bx	lr
 295              	.L29:
 296 000e 00BF     		.align	2
 297              	.L28:
 298 0010 00000000 		.word	.LANCHOR0
 299 0014 00000000 		.word	.LANCHOR2
 300              		.cfi_endproc
 301              	.LFE137:
 303              		.section	.text.HAL_GetTick,"ax",%progbits
 304              		.align	1
 305              		.weak	HAL_GetTick
 306              		.syntax unified
 307              		.thumb
 308              		.thumb_func
 310              	HAL_GetTick:
 311              	.LFB138:
 331:../Resources/Drivers/STM32L4xx_HAL_Driver/Src/stm32l4xx_hal.c **** 
 332:../Resources/Drivers/STM32L4xx_HAL_Driver/Src/stm32l4xx_hal.c **** /**
 333:../Resources/Drivers/STM32L4xx_HAL_Driver/Src/stm32l4xx_hal.c ****   * @brief Provide a tick value in millisecond.
 334:../Resources/Drivers/STM32L4xx_HAL_Driver/Src/stm32l4xx_hal.c ****   * @note This function is declared as __weak to be overwritten in case of other
 335:../Resources/Drivers/STM32L4xx_HAL_Driver/Src/stm32l4xx_hal.c ****   *       implementations in user file.
 336:../Resources/Drivers/STM32L4xx_HAL_Driver/Src/stm32l4xx_hal.c ****   * @retval tick value
 337:../Resources/Drivers/STM32L4xx_HAL_Driver/Src/stm32l4xx_hal.c ****   */
 338:../Resources/Drivers/STM32L4xx_HAL_Driver/Src/stm32l4xx_hal.c **** __weak uint32_t HAL_GetTick(void)
 339:../Resources/Drivers/STM32L4xx_HAL_Driver/Src/stm32l4xx_hal.c **** {
ARM GAS  /tmp/ccCbeSgG.s 			page 13


 312              		.loc 1 339 1 is_stmt 1 view -0
 313              		.cfi_startproc
 314              		@ args = 0, pretend = 0, frame = 0
 315              		@ frame_needed = 0, uses_anonymous_args = 0
 316              		@ link register save eliminated.
 340:../Resources/Drivers/STM32L4xx_HAL_Driver/Src/stm32l4xx_hal.c ****   return uwTick;
 317              		.loc 1 340 3 view .LVU67
 318              		.loc 1 340 10 is_stmt 0 view .LVU68
 319 0000 014B     		ldr	r3, .L31
 320 0002 1868     		ldr	r0, [r3]
 341:../Resources/Drivers/STM32L4xx_HAL_Driver/Src/stm32l4xx_hal.c **** }
 321              		.loc 1 341 1 view .LVU69
 322 0004 7047     		bx	lr
 323              	.L32:
 324 0006 00BF     		.align	2
 325              	.L31:
 326 0008 00000000 		.word	.LANCHOR2
 327              		.cfi_endproc
 328              	.LFE138:
 330              		.section	.text.HAL_GetTickPrio,"ax",%progbits
 331              		.align	1
 332              		.global	HAL_GetTickPrio
 333              		.syntax unified
 334              		.thumb
 335              		.thumb_func
 337              	HAL_GetTickPrio:
 338              	.LFB139:
 342:../Resources/Drivers/STM32L4xx_HAL_Driver/Src/stm32l4xx_hal.c **** 
 343:../Resources/Drivers/STM32L4xx_HAL_Driver/Src/stm32l4xx_hal.c **** /**
 344:../Resources/Drivers/STM32L4xx_HAL_Driver/Src/stm32l4xx_hal.c ****   * @brief This function returns a tick priority.
 345:../Resources/Drivers/STM32L4xx_HAL_Driver/Src/stm32l4xx_hal.c ****   * @retval tick priority
 346:../Resources/Drivers/STM32L4xx_HAL_Driver/Src/stm32l4xx_hal.c ****   */
 347:../Resources/Drivers/STM32L4xx_HAL_Driver/Src/stm32l4xx_hal.c **** uint32_t HAL_GetTickPrio(void)
 348:../Resources/Drivers/STM32L4xx_HAL_Driver/Src/stm32l4xx_hal.c **** {
 339              		.loc 1 348 1 is_stmt 1 view -0
 340              		.cfi_startproc
 341              		@ args = 0, pretend = 0, frame = 0
 342              		@ frame_needed = 0, uses_anonymous_args = 0
 343              		@ link register save eliminated.
 349:../Resources/Drivers/STM32L4xx_HAL_Driver/Src/stm32l4xx_hal.c ****   return uwTickPrio;
 344              		.loc 1 349 3 view .LVU71
 350:../Resources/Drivers/STM32L4xx_HAL_Driver/Src/stm32l4xx_hal.c **** }
 345              		.loc 1 350 1 is_stmt 0 view .LVU72
 346 0000 014B     		ldr	r3, .L34
 347 0002 1868     		ldr	r0, [r3]
 348 0004 7047     		bx	lr
 349              	.L35:
 350 0006 00BF     		.align	2
 351              	.L34:
 352 0008 00000000 		.word	.LANCHOR1
 353              		.cfi_endproc
 354              	.LFE139:
 356              		.section	.text.HAL_SetTickFreq,"ax",%progbits
 357              		.align	1
 358              		.global	HAL_SetTickFreq
 359              		.syntax unified
 360              		.thumb
ARM GAS  /tmp/ccCbeSgG.s 			page 14


 361              		.thumb_func
 363              	HAL_SetTickFreq:
 364              	.LVL15:
 365              	.LFB140:
 351:../Resources/Drivers/STM32L4xx_HAL_Driver/Src/stm32l4xx_hal.c **** 
 352:../Resources/Drivers/STM32L4xx_HAL_Driver/Src/stm32l4xx_hal.c **** /**
 353:../Resources/Drivers/STM32L4xx_HAL_Driver/Src/stm32l4xx_hal.c ****   * @brief Set new tick Freq.
 354:../Resources/Drivers/STM32L4xx_HAL_Driver/Src/stm32l4xx_hal.c ****   * @param Freq tick frequency
 355:../Resources/Drivers/STM32L4xx_HAL_Driver/Src/stm32l4xx_hal.c ****   * @retval HAL status
 356:../Resources/Drivers/STM32L4xx_HAL_Driver/Src/stm32l4xx_hal.c ****   */
 357:../Resources/Drivers/STM32L4xx_HAL_Driver/Src/stm32l4xx_hal.c **** HAL_StatusTypeDef HAL_SetTickFreq(HAL_TickFreqTypeDef Freq)
 358:../Resources/Drivers/STM32L4xx_HAL_Driver/Src/stm32l4xx_hal.c **** {
 366              		.loc 1 358 1 is_stmt 1 view -0
 367              		.cfi_startproc
 368              		@ args = 0, pretend = 0, frame = 0
 369              		@ frame_needed = 0, uses_anonymous_args = 0
 370              		.loc 1 358 1 is_stmt 0 view .LVU74
 371 0000 10B5     		push	{r4, lr}
 372              	.LCFI3:
 373              		.cfi_def_cfa_offset 8
 374              		.cfi_offset 4, -8
 375              		.cfi_offset 14, -4
 359:../Resources/Drivers/STM32L4xx_HAL_Driver/Src/stm32l4xx_hal.c ****   HAL_StatusTypeDef status  = HAL_OK;
 376              		.loc 1 359 3 is_stmt 1 view .LVU75
 377              	.LVL16:
 360:../Resources/Drivers/STM32L4xx_HAL_Driver/Src/stm32l4xx_hal.c ****   HAL_TickFreqTypeDef prevTickFreq;
 378              		.loc 1 360 3 view .LVU76
 361:../Resources/Drivers/STM32L4xx_HAL_Driver/Src/stm32l4xx_hal.c **** 
 362:../Resources/Drivers/STM32L4xx_HAL_Driver/Src/stm32l4xx_hal.c ****   if (uwTickFreq != Freq)
 379              		.loc 1 362 3 view .LVU77
 380              		.loc 1 362 18 is_stmt 0 view .LVU78
 381 0002 084B     		ldr	r3, .L41
 382 0004 1C78     		ldrb	r4, [r3]	@ zero_extendqisi2
 383              		.loc 1 362 6 view .LVU79
 384 0006 8442     		cmp	r4, r0
 385 0008 01D1     		bne	.L40
 359:../Resources/Drivers/STM32L4xx_HAL_Driver/Src/stm32l4xx_hal.c ****   HAL_TickFreqTypeDef prevTickFreq;
 386              		.loc 1 359 21 view .LVU80
 387 000a 0020     		movs	r0, #0
 388              	.LVL17:
 389              	.L37:
 363:../Resources/Drivers/STM32L4xx_HAL_Driver/Src/stm32l4xx_hal.c ****   {
 364:../Resources/Drivers/STM32L4xx_HAL_Driver/Src/stm32l4xx_hal.c ****     /* Back up uwTickFreq frequency */
 365:../Resources/Drivers/STM32L4xx_HAL_Driver/Src/stm32l4xx_hal.c ****     prevTickFreq = uwTickFreq;
 366:../Resources/Drivers/STM32L4xx_HAL_Driver/Src/stm32l4xx_hal.c **** 
 367:../Resources/Drivers/STM32L4xx_HAL_Driver/Src/stm32l4xx_hal.c ****     /* Update uwTickFreq global variable used by HAL_InitTick() */
 368:../Resources/Drivers/STM32L4xx_HAL_Driver/Src/stm32l4xx_hal.c ****     uwTickFreq = Freq;
 369:../Resources/Drivers/STM32L4xx_HAL_Driver/Src/stm32l4xx_hal.c **** 
 370:../Resources/Drivers/STM32L4xx_HAL_Driver/Src/stm32l4xx_hal.c ****     /* Apply the new tick Freq  */
 371:../Resources/Drivers/STM32L4xx_HAL_Driver/Src/stm32l4xx_hal.c ****     status = HAL_InitTick(uwTickPrio);
 372:../Resources/Drivers/STM32L4xx_HAL_Driver/Src/stm32l4xx_hal.c ****     if (status != HAL_OK)
 373:../Resources/Drivers/STM32L4xx_HAL_Driver/Src/stm32l4xx_hal.c ****     {
 374:../Resources/Drivers/STM32L4xx_HAL_Driver/Src/stm32l4xx_hal.c ****       /* Restore previous tick frequency */
 375:../Resources/Drivers/STM32L4xx_HAL_Driver/Src/stm32l4xx_hal.c ****       uwTickFreq = prevTickFreq;
 376:../Resources/Drivers/STM32L4xx_HAL_Driver/Src/stm32l4xx_hal.c ****     }
 377:../Resources/Drivers/STM32L4xx_HAL_Driver/Src/stm32l4xx_hal.c ****   }
 378:../Resources/Drivers/STM32L4xx_HAL_Driver/Src/stm32l4xx_hal.c **** 
ARM GAS  /tmp/ccCbeSgG.s 			page 15


 379:../Resources/Drivers/STM32L4xx_HAL_Driver/Src/stm32l4xx_hal.c ****   return status;
 390              		.loc 1 379 3 is_stmt 1 view .LVU81
 380:../Resources/Drivers/STM32L4xx_HAL_Driver/Src/stm32l4xx_hal.c **** }
 391              		.loc 1 380 1 is_stmt 0 view .LVU82
 392 000c 10BD     		pop	{r4, pc}
 393              	.LVL18:
 394              	.L40:
 365:../Resources/Drivers/STM32L4xx_HAL_Driver/Src/stm32l4xx_hal.c **** 
 395              		.loc 1 365 5 is_stmt 1 view .LVU83
 368:../Resources/Drivers/STM32L4xx_HAL_Driver/Src/stm32l4xx_hal.c **** 
 396              		.loc 1 368 5 view .LVU84
 368:../Resources/Drivers/STM32L4xx_HAL_Driver/Src/stm32l4xx_hal.c **** 
 397              		.loc 1 368 16 is_stmt 0 view .LVU85
 398 000e 1870     		strb	r0, [r3]
 371:../Resources/Drivers/STM32L4xx_HAL_Driver/Src/stm32l4xx_hal.c ****     if (status != HAL_OK)
 399              		.loc 1 371 5 is_stmt 1 view .LVU86
 371:../Resources/Drivers/STM32L4xx_HAL_Driver/Src/stm32l4xx_hal.c ****     if (status != HAL_OK)
 400              		.loc 1 371 14 is_stmt 0 view .LVU87
 401 0010 054B     		ldr	r3, .L41+4
 402 0012 1868     		ldr	r0, [r3]
 403              	.LVL19:
 371:../Resources/Drivers/STM32L4xx_HAL_Driver/Src/stm32l4xx_hal.c ****     if (status != HAL_OK)
 404              		.loc 1 371 14 view .LVU88
 405 0014 FFF7FEFF 		bl	HAL_InitTick
 406              	.LVL20:
 372:../Resources/Drivers/STM32L4xx_HAL_Driver/Src/stm32l4xx_hal.c ****     {
 407              		.loc 1 372 5 is_stmt 1 view .LVU89
 372:../Resources/Drivers/STM32L4xx_HAL_Driver/Src/stm32l4xx_hal.c ****     {
 408              		.loc 1 372 8 is_stmt 0 view .LVU90
 409 0018 0028     		cmp	r0, #0
 410 001a F7D0     		beq	.L37
 375:../Resources/Drivers/STM32L4xx_HAL_Driver/Src/stm32l4xx_hal.c ****     }
 411              		.loc 1 375 7 is_stmt 1 view .LVU91
 375:../Resources/Drivers/STM32L4xx_HAL_Driver/Src/stm32l4xx_hal.c ****     }
 412              		.loc 1 375 18 is_stmt 0 view .LVU92
 413 001c 014B     		ldr	r3, .L41
 414 001e 1C70     		strb	r4, [r3]
 415 0020 F4E7     		b	.L37
 416              	.L42:
 417 0022 00BF     		.align	2
 418              	.L41:
 419 0024 00000000 		.word	.LANCHOR0
 420 0028 00000000 		.word	.LANCHOR1
 421              		.cfi_endproc
 422              	.LFE140:
 424              		.section	.text.HAL_GetTickFreq,"ax",%progbits
 425              		.align	1
 426              		.global	HAL_GetTickFreq
 427              		.syntax unified
 428              		.thumb
 429              		.thumb_func
 431              	HAL_GetTickFreq:
 432              	.LFB141:
 381:../Resources/Drivers/STM32L4xx_HAL_Driver/Src/stm32l4xx_hal.c **** 
 382:../Resources/Drivers/STM32L4xx_HAL_Driver/Src/stm32l4xx_hal.c **** /**
 383:../Resources/Drivers/STM32L4xx_HAL_Driver/Src/stm32l4xx_hal.c ****   * @brief Return tick frequency.
 384:../Resources/Drivers/STM32L4xx_HAL_Driver/Src/stm32l4xx_hal.c ****   * @retval tick period in Hz
ARM GAS  /tmp/ccCbeSgG.s 			page 16


 385:../Resources/Drivers/STM32L4xx_HAL_Driver/Src/stm32l4xx_hal.c ****   */
 386:../Resources/Drivers/STM32L4xx_HAL_Driver/Src/stm32l4xx_hal.c **** HAL_TickFreqTypeDef HAL_GetTickFreq(void)
 387:../Resources/Drivers/STM32L4xx_HAL_Driver/Src/stm32l4xx_hal.c **** {
 433              		.loc 1 387 1 is_stmt 1 view -0
 434              		.cfi_startproc
 435              		@ args = 0, pretend = 0, frame = 0
 436              		@ frame_needed = 0, uses_anonymous_args = 0
 437              		@ link register save eliminated.
 388:../Resources/Drivers/STM32L4xx_HAL_Driver/Src/stm32l4xx_hal.c ****   return uwTickFreq;
 438              		.loc 1 388 3 view .LVU94
 389:../Resources/Drivers/STM32L4xx_HAL_Driver/Src/stm32l4xx_hal.c **** }
 439              		.loc 1 389 1 is_stmt 0 view .LVU95
 440 0000 014B     		ldr	r3, .L44
 441 0002 1878     		ldrb	r0, [r3]	@ zero_extendqisi2
 442 0004 7047     		bx	lr
 443              	.L45:
 444 0006 00BF     		.align	2
 445              	.L44:
 446 0008 00000000 		.word	.LANCHOR0
 447              		.cfi_endproc
 448              	.LFE141:
 450              		.section	.text.HAL_Delay,"ax",%progbits
 451              		.align	1
 452              		.weak	HAL_Delay
 453              		.syntax unified
 454              		.thumb
 455              		.thumb_func
 457              	HAL_Delay:
 458              	.LVL21:
 459              	.LFB142:
 390:../Resources/Drivers/STM32L4xx_HAL_Driver/Src/stm32l4xx_hal.c **** 
 391:../Resources/Drivers/STM32L4xx_HAL_Driver/Src/stm32l4xx_hal.c **** /**
 392:../Resources/Drivers/STM32L4xx_HAL_Driver/Src/stm32l4xx_hal.c ****   * @brief This function provides minimum delay (in milliseconds) based
 393:../Resources/Drivers/STM32L4xx_HAL_Driver/Src/stm32l4xx_hal.c ****   *        on variable incremented.
 394:../Resources/Drivers/STM32L4xx_HAL_Driver/Src/stm32l4xx_hal.c ****   * @note In the default implementation , SysTick timer is the source of time base.
 395:../Resources/Drivers/STM32L4xx_HAL_Driver/Src/stm32l4xx_hal.c ****   *       It is used to generate interrupts at regular time intervals where uwTick
 396:../Resources/Drivers/STM32L4xx_HAL_Driver/Src/stm32l4xx_hal.c ****   *       is incremented.
 397:../Resources/Drivers/STM32L4xx_HAL_Driver/Src/stm32l4xx_hal.c ****   * @note This function is declared as __weak to be overwritten in case of other
 398:../Resources/Drivers/STM32L4xx_HAL_Driver/Src/stm32l4xx_hal.c ****   *       implementations in user file.
 399:../Resources/Drivers/STM32L4xx_HAL_Driver/Src/stm32l4xx_hal.c ****   * @param Delay  specifies the delay time length, in milliseconds.
 400:../Resources/Drivers/STM32L4xx_HAL_Driver/Src/stm32l4xx_hal.c ****   * @retval None
 401:../Resources/Drivers/STM32L4xx_HAL_Driver/Src/stm32l4xx_hal.c ****   */
 402:../Resources/Drivers/STM32L4xx_HAL_Driver/Src/stm32l4xx_hal.c **** __weak void HAL_Delay(uint32_t Delay)
 403:../Resources/Drivers/STM32L4xx_HAL_Driver/Src/stm32l4xx_hal.c **** {
 460              		.loc 1 403 1 is_stmt 1 view -0
 461              		.cfi_startproc
 462              		@ args = 0, pretend = 0, frame = 0
 463              		@ frame_needed = 0, uses_anonymous_args = 0
 464              		.loc 1 403 1 is_stmt 0 view .LVU97
 465 0000 38B5     		push	{r3, r4, r5, lr}
 466              	.LCFI4:
 467              		.cfi_def_cfa_offset 16
 468              		.cfi_offset 3, -16
 469              		.cfi_offset 4, -12
 470              		.cfi_offset 5, -8
 471              		.cfi_offset 14, -4
 472 0002 0446     		mov	r4, r0
ARM GAS  /tmp/ccCbeSgG.s 			page 17


 404:../Resources/Drivers/STM32L4xx_HAL_Driver/Src/stm32l4xx_hal.c ****   uint32_t tickstart = HAL_GetTick();
 473              		.loc 1 404 3 is_stmt 1 view .LVU98
 474              		.loc 1 404 24 is_stmt 0 view .LVU99
 475 0004 FFF7FEFF 		bl	HAL_GetTick
 476              	.LVL22:
 477              		.loc 1 404 24 view .LVU100
 478 0008 0546     		mov	r5, r0
 479              	.LVL23:
 405:../Resources/Drivers/STM32L4xx_HAL_Driver/Src/stm32l4xx_hal.c ****   uint32_t wait = Delay;
 480              		.loc 1 405 3 is_stmt 1 view .LVU101
 406:../Resources/Drivers/STM32L4xx_HAL_Driver/Src/stm32l4xx_hal.c **** 
 407:../Resources/Drivers/STM32L4xx_HAL_Driver/Src/stm32l4xx_hal.c ****   /* Add a period to guaranty minimum wait */
 408:../Resources/Drivers/STM32L4xx_HAL_Driver/Src/stm32l4xx_hal.c ****   if (wait < HAL_MAX_DELAY)
 481              		.loc 1 408 3 view .LVU102
 482              		.loc 1 408 6 is_stmt 0 view .LVU103
 483 000a B4F1FF3F 		cmp	r4, #-1
 484 000e 02D0     		beq	.L48
 409:../Resources/Drivers/STM32L4xx_HAL_Driver/Src/stm32l4xx_hal.c ****   {
 410:../Resources/Drivers/STM32L4xx_HAL_Driver/Src/stm32l4xx_hal.c ****     wait += (uint32_t)uwTickFreq;
 485              		.loc 1 410 5 is_stmt 1 view .LVU104
 486              		.loc 1 410 13 is_stmt 0 view .LVU105
 487 0010 044B     		ldr	r3, .L50
 488 0012 1B78     		ldrb	r3, [r3]	@ zero_extendqisi2
 489              		.loc 1 410 10 view .LVU106
 490 0014 1C44     		add	r4, r4, r3
 491              	.LVL24:
 492              	.L48:
 411:../Resources/Drivers/STM32L4xx_HAL_Driver/Src/stm32l4xx_hal.c ****   }
 412:../Resources/Drivers/STM32L4xx_HAL_Driver/Src/stm32l4xx_hal.c **** 
 413:../Resources/Drivers/STM32L4xx_HAL_Driver/Src/stm32l4xx_hal.c ****   while ((HAL_GetTick() - tickstart) < wait)
 414:../Resources/Drivers/STM32L4xx_HAL_Driver/Src/stm32l4xx_hal.c ****   {
 415:../Resources/Drivers/STM32L4xx_HAL_Driver/Src/stm32l4xx_hal.c ****   }
 493              		.loc 1 415 3 is_stmt 1 discriminator 1 view .LVU107
 413:../Resources/Drivers/STM32L4xx_HAL_Driver/Src/stm32l4xx_hal.c ****   {
 494              		.loc 1 413 9 discriminator 1 view .LVU108
 413:../Resources/Drivers/STM32L4xx_HAL_Driver/Src/stm32l4xx_hal.c ****   {
 495              		.loc 1 413 11 is_stmt 0 discriminator 1 view .LVU109
 496 0016 FFF7FEFF 		bl	HAL_GetTick
 497              	.LVL25:
 413:../Resources/Drivers/STM32L4xx_HAL_Driver/Src/stm32l4xx_hal.c ****   {
 498              		.loc 1 413 25 discriminator 1 view .LVU110
 499 001a 401B     		subs	r0, r0, r5
 413:../Resources/Drivers/STM32L4xx_HAL_Driver/Src/stm32l4xx_hal.c ****   {
 500              		.loc 1 413 9 discriminator 1 view .LVU111
 501 001c A042     		cmp	r0, r4
 502 001e FAD3     		bcc	.L48
 416:../Resources/Drivers/STM32L4xx_HAL_Driver/Src/stm32l4xx_hal.c **** }
 503              		.loc 1 416 1 view .LVU112
 504 0020 38BD     		pop	{r3, r4, r5, pc}
 505              	.LVL26:
 506              	.L51:
 507              		.loc 1 416 1 view .LVU113
 508 0022 00BF     		.align	2
 509              	.L50:
 510 0024 00000000 		.word	.LANCHOR0
 511              		.cfi_endproc
 512              	.LFE142:
ARM GAS  /tmp/ccCbeSgG.s 			page 18


 514              		.section	.text.HAL_SuspendTick,"ax",%progbits
 515              		.align	1
 516              		.weak	HAL_SuspendTick
 517              		.syntax unified
 518              		.thumb
 519              		.thumb_func
 521              	HAL_SuspendTick:
 522              	.LFB143:
 417:../Resources/Drivers/STM32L4xx_HAL_Driver/Src/stm32l4xx_hal.c **** 
 418:../Resources/Drivers/STM32L4xx_HAL_Driver/Src/stm32l4xx_hal.c **** /**
 419:../Resources/Drivers/STM32L4xx_HAL_Driver/Src/stm32l4xx_hal.c ****   * @brief Suspend Tick increment.
 420:../Resources/Drivers/STM32L4xx_HAL_Driver/Src/stm32l4xx_hal.c ****   * @note In the default implementation , SysTick timer is the source of time base. It is
 421:../Resources/Drivers/STM32L4xx_HAL_Driver/Src/stm32l4xx_hal.c ****   *       used to generate interrupts at regular time intervals. Once HAL_SuspendTick()
 422:../Resources/Drivers/STM32L4xx_HAL_Driver/Src/stm32l4xx_hal.c ****   *       is called, the SysTick interrupt will be disabled and so Tick increment
 423:../Resources/Drivers/STM32L4xx_HAL_Driver/Src/stm32l4xx_hal.c ****   *       is suspended.
 424:../Resources/Drivers/STM32L4xx_HAL_Driver/Src/stm32l4xx_hal.c ****   * @note This function is declared as __weak to be overwritten in case of other
 425:../Resources/Drivers/STM32L4xx_HAL_Driver/Src/stm32l4xx_hal.c ****   *       implementations in user file.
 426:../Resources/Drivers/STM32L4xx_HAL_Driver/Src/stm32l4xx_hal.c ****   * @retval None
 427:../Resources/Drivers/STM32L4xx_HAL_Driver/Src/stm32l4xx_hal.c ****   */
 428:../Resources/Drivers/STM32L4xx_HAL_Driver/Src/stm32l4xx_hal.c **** __weak void HAL_SuspendTick(void)
 429:../Resources/Drivers/STM32L4xx_HAL_Driver/Src/stm32l4xx_hal.c **** {
 523              		.loc 1 429 1 is_stmt 1 view -0
 524              		.cfi_startproc
 525              		@ args = 0, pretend = 0, frame = 0
 526              		@ frame_needed = 0, uses_anonymous_args = 0
 527              		@ link register save eliminated.
 430:../Resources/Drivers/STM32L4xx_HAL_Driver/Src/stm32l4xx_hal.c ****   /* Disable SysTick Interrupt */
 431:../Resources/Drivers/STM32L4xx_HAL_Driver/Src/stm32l4xx_hal.c ****   SysTick->CTRL &= ~SysTick_CTRL_TICKINT_Msk;
 528              		.loc 1 431 3 view .LVU115
 529              		.loc 1 431 17 is_stmt 0 view .LVU116
 530 0000 4FF0E022 		mov	r2, #-536813568
 531 0004 1369     		ldr	r3, [r2, #16]
 532 0006 23F00203 		bic	r3, r3, #2
 533 000a 1361     		str	r3, [r2, #16]
 432:../Resources/Drivers/STM32L4xx_HAL_Driver/Src/stm32l4xx_hal.c **** }
 534              		.loc 1 432 1 view .LVU117
 535 000c 7047     		bx	lr
 536              		.cfi_endproc
 537              	.LFE143:
 539              		.section	.text.HAL_ResumeTick,"ax",%progbits
 540              		.align	1
 541              		.weak	HAL_ResumeTick
 542              		.syntax unified
 543              		.thumb
 544              		.thumb_func
 546              	HAL_ResumeTick:
 547              	.LFB144:
 433:../Resources/Drivers/STM32L4xx_HAL_Driver/Src/stm32l4xx_hal.c **** 
 434:../Resources/Drivers/STM32L4xx_HAL_Driver/Src/stm32l4xx_hal.c **** /**
 435:../Resources/Drivers/STM32L4xx_HAL_Driver/Src/stm32l4xx_hal.c ****   * @brief Resume Tick increment.
 436:../Resources/Drivers/STM32L4xx_HAL_Driver/Src/stm32l4xx_hal.c ****   * @note In the default implementation , SysTick timer is the source of time base. It is
 437:../Resources/Drivers/STM32L4xx_HAL_Driver/Src/stm32l4xx_hal.c ****   *       used to generate interrupts at regular time intervals. Once HAL_ResumeTick()
 438:../Resources/Drivers/STM32L4xx_HAL_Driver/Src/stm32l4xx_hal.c ****   *       is called, the SysTick interrupt will be enabled and so Tick increment
 439:../Resources/Drivers/STM32L4xx_HAL_Driver/Src/stm32l4xx_hal.c ****   *       is resumed.
 440:../Resources/Drivers/STM32L4xx_HAL_Driver/Src/stm32l4xx_hal.c ****   * @note This function is declared as __weak to be overwritten in case of other
 441:../Resources/Drivers/STM32L4xx_HAL_Driver/Src/stm32l4xx_hal.c ****   *       implementations in user file.
 442:../Resources/Drivers/STM32L4xx_HAL_Driver/Src/stm32l4xx_hal.c ****   * @retval None
ARM GAS  /tmp/ccCbeSgG.s 			page 19


 443:../Resources/Drivers/STM32L4xx_HAL_Driver/Src/stm32l4xx_hal.c ****   */
 444:../Resources/Drivers/STM32L4xx_HAL_Driver/Src/stm32l4xx_hal.c **** __weak void HAL_ResumeTick(void)
 445:../Resources/Drivers/STM32L4xx_HAL_Driver/Src/stm32l4xx_hal.c **** {
 548              		.loc 1 445 1 is_stmt 1 view -0
 549              		.cfi_startproc
 550              		@ args = 0, pretend = 0, frame = 0
 551              		@ frame_needed = 0, uses_anonymous_args = 0
 552              		@ link register save eliminated.
 446:../Resources/Drivers/STM32L4xx_HAL_Driver/Src/stm32l4xx_hal.c ****   /* Enable SysTick Interrupt */
 447:../Resources/Drivers/STM32L4xx_HAL_Driver/Src/stm32l4xx_hal.c ****   SysTick->CTRL  |= SysTick_CTRL_TICKINT_Msk;
 553              		.loc 1 447 3 view .LVU119
 554              		.loc 1 447 18 is_stmt 0 view .LVU120
 555 0000 4FF0E022 		mov	r2, #-536813568
 556 0004 1369     		ldr	r3, [r2, #16]
 557 0006 43F00203 		orr	r3, r3, #2
 558 000a 1361     		str	r3, [r2, #16]
 448:../Resources/Drivers/STM32L4xx_HAL_Driver/Src/stm32l4xx_hal.c **** }
 559              		.loc 1 448 1 view .LVU121
 560 000c 7047     		bx	lr
 561              		.cfi_endproc
 562              	.LFE144:
 564              		.section	.text.HAL_GetHalVersion,"ax",%progbits
 565              		.align	1
 566              		.global	HAL_GetHalVersion
 567              		.syntax unified
 568              		.thumb
 569              		.thumb_func
 571              	HAL_GetHalVersion:
 572              	.LFB145:
 449:../Resources/Drivers/STM32L4xx_HAL_Driver/Src/stm32l4xx_hal.c **** 
 450:../Resources/Drivers/STM32L4xx_HAL_Driver/Src/stm32l4xx_hal.c **** /**
 451:../Resources/Drivers/STM32L4xx_HAL_Driver/Src/stm32l4xx_hal.c ****   * @brief  Return the HAL revision.
 452:../Resources/Drivers/STM32L4xx_HAL_Driver/Src/stm32l4xx_hal.c ****   * @retval version : 0xXYZR (8bits for each decimal, R for RC)
 453:../Resources/Drivers/STM32L4xx_HAL_Driver/Src/stm32l4xx_hal.c ****   */
 454:../Resources/Drivers/STM32L4xx_HAL_Driver/Src/stm32l4xx_hal.c **** uint32_t HAL_GetHalVersion(void)
 455:../Resources/Drivers/STM32L4xx_HAL_Driver/Src/stm32l4xx_hal.c **** {
 573              		.loc 1 455 1 is_stmt 1 view -0
 574              		.cfi_startproc
 575              		@ args = 0, pretend = 0, frame = 0
 576              		@ frame_needed = 0, uses_anonymous_args = 0
 577              		@ link register save eliminated.
 456:../Resources/Drivers/STM32L4xx_HAL_Driver/Src/stm32l4xx_hal.c ****   return STM32L4XX_HAL_VERSION;
 578              		.loc 1 456 3 view .LVU123
 457:../Resources/Drivers/STM32L4xx_HAL_Driver/Src/stm32l4xx_hal.c **** }
 579              		.loc 1 457 1 is_stmt 0 view .LVU124
 580 0000 0048     		ldr	r0, .L55
 581 0002 7047     		bx	lr
 582              	.L56:
 583              		.align	2
 584              	.L55:
 585 0004 00030D01 		.word	17629952
 586              		.cfi_endproc
 587              	.LFE145:
 589              		.section	.text.HAL_GetREVID,"ax",%progbits
 590              		.align	1
 591              		.global	HAL_GetREVID
 592              		.syntax unified
ARM GAS  /tmp/ccCbeSgG.s 			page 20


 593              		.thumb
 594              		.thumb_func
 596              	HAL_GetREVID:
 597              	.LFB146:
 458:../Resources/Drivers/STM32L4xx_HAL_Driver/Src/stm32l4xx_hal.c **** 
 459:../Resources/Drivers/STM32L4xx_HAL_Driver/Src/stm32l4xx_hal.c **** /**
 460:../Resources/Drivers/STM32L4xx_HAL_Driver/Src/stm32l4xx_hal.c ****   * @brief  Return the device revision identifier.
 461:../Resources/Drivers/STM32L4xx_HAL_Driver/Src/stm32l4xx_hal.c ****   * @retval Device revision identifier
 462:../Resources/Drivers/STM32L4xx_HAL_Driver/Src/stm32l4xx_hal.c ****   */
 463:../Resources/Drivers/STM32L4xx_HAL_Driver/Src/stm32l4xx_hal.c **** uint32_t HAL_GetREVID(void)
 464:../Resources/Drivers/STM32L4xx_HAL_Driver/Src/stm32l4xx_hal.c **** {
 598              		.loc 1 464 1 is_stmt 1 view -0
 599              		.cfi_startproc
 600              		@ args = 0, pretend = 0, frame = 0
 601              		@ frame_needed = 0, uses_anonymous_args = 0
 602              		@ link register save eliminated.
 465:../Resources/Drivers/STM32L4xx_HAL_Driver/Src/stm32l4xx_hal.c ****   return((DBGMCU->IDCODE & DBGMCU_IDCODE_REV_ID) >> 16);
 603              		.loc 1 465 3 view .LVU126
 604              		.loc 1 465 17 is_stmt 0 view .LVU127
 605 0000 014B     		ldr	r3, .L58
 606 0002 1868     		ldr	r0, [r3]
 466:../Resources/Drivers/STM32L4xx_HAL_Driver/Src/stm32l4xx_hal.c **** }
 607              		.loc 1 466 1 view .LVU128
 608 0004 000C     		lsrs	r0, r0, #16
 609 0006 7047     		bx	lr
 610              	.L59:
 611              		.align	2
 612              	.L58:
 613 0008 002004E0 		.word	-536600576
 614              		.cfi_endproc
 615              	.LFE146:
 617              		.section	.text.HAL_GetDEVID,"ax",%progbits
 618              		.align	1
 619              		.global	HAL_GetDEVID
 620              		.syntax unified
 621              		.thumb
 622              		.thumb_func
 624              	HAL_GetDEVID:
 625              	.LFB147:
 467:../Resources/Drivers/STM32L4xx_HAL_Driver/Src/stm32l4xx_hal.c **** 
 468:../Resources/Drivers/STM32L4xx_HAL_Driver/Src/stm32l4xx_hal.c **** /**
 469:../Resources/Drivers/STM32L4xx_HAL_Driver/Src/stm32l4xx_hal.c ****   * @brief  Return the device identifier.
 470:../Resources/Drivers/STM32L4xx_HAL_Driver/Src/stm32l4xx_hal.c ****   * @retval Device identifier
 471:../Resources/Drivers/STM32L4xx_HAL_Driver/Src/stm32l4xx_hal.c ****   */
 472:../Resources/Drivers/STM32L4xx_HAL_Driver/Src/stm32l4xx_hal.c **** uint32_t HAL_GetDEVID(void)
 473:../Resources/Drivers/STM32L4xx_HAL_Driver/Src/stm32l4xx_hal.c **** {
 626              		.loc 1 473 1 is_stmt 1 view -0
 627              		.cfi_startproc
 628              		@ args = 0, pretend = 0, frame = 0
 629              		@ frame_needed = 0, uses_anonymous_args = 0
 630              		@ link register save eliminated.
 474:../Resources/Drivers/STM32L4xx_HAL_Driver/Src/stm32l4xx_hal.c ****   return(DBGMCU->IDCODE & DBGMCU_IDCODE_DEV_ID);
 631              		.loc 1 474 3 view .LVU130
 632              		.loc 1 474 16 is_stmt 0 view .LVU131
 633 0000 024B     		ldr	r3, .L61
 634 0002 1868     		ldr	r0, [r3]
 475:../Resources/Drivers/STM32L4xx_HAL_Driver/Src/stm32l4xx_hal.c **** }
ARM GAS  /tmp/ccCbeSgG.s 			page 21


 635              		.loc 1 475 1 view .LVU132
 636 0004 C0F30B00 		ubfx	r0, r0, #0, #12
 637 0008 7047     		bx	lr
 638              	.L62:
 639 000a 00BF     		.align	2
 640              	.L61:
 641 000c 002004E0 		.word	-536600576
 642              		.cfi_endproc
 643              	.LFE147:
 645              		.section	.text.HAL_GetUIDw0,"ax",%progbits
 646              		.align	1
 647              		.global	HAL_GetUIDw0
 648              		.syntax unified
 649              		.thumb
 650              		.thumb_func
 652              	HAL_GetUIDw0:
 653              	.LFB148:
 476:../Resources/Drivers/STM32L4xx_HAL_Driver/Src/stm32l4xx_hal.c **** 
 477:../Resources/Drivers/STM32L4xx_HAL_Driver/Src/stm32l4xx_hal.c **** /**
 478:../Resources/Drivers/STM32L4xx_HAL_Driver/Src/stm32l4xx_hal.c ****   * @brief  Return the first word of the unique device identifier (UID based on 96 bits)
 479:../Resources/Drivers/STM32L4xx_HAL_Driver/Src/stm32l4xx_hal.c ****   * @retval Device identifier
 480:../Resources/Drivers/STM32L4xx_HAL_Driver/Src/stm32l4xx_hal.c ****   */
 481:../Resources/Drivers/STM32L4xx_HAL_Driver/Src/stm32l4xx_hal.c **** uint32_t HAL_GetUIDw0(void)
 482:../Resources/Drivers/STM32L4xx_HAL_Driver/Src/stm32l4xx_hal.c **** {
 654              		.loc 1 482 1 is_stmt 1 view -0
 655              		.cfi_startproc
 656              		@ args = 0, pretend = 0, frame = 0
 657              		@ frame_needed = 0, uses_anonymous_args = 0
 658              		@ link register save eliminated.
 483:../Resources/Drivers/STM32L4xx_HAL_Driver/Src/stm32l4xx_hal.c ****   return(READ_REG(*((uint32_t *)UID_BASE)));
 659              		.loc 1 483 3 view .LVU134
 484:../Resources/Drivers/STM32L4xx_HAL_Driver/Src/stm32l4xx_hal.c **** }
 660              		.loc 1 484 1 is_stmt 0 view .LVU135
 661 0000 014B     		ldr	r3, .L64
 662 0002 D3F89005 		ldr	r0, [r3, #1424]
 663 0006 7047     		bx	lr
 664              	.L65:
 665              		.align	2
 666              	.L64:
 667 0008 0070FF1F 		.word	536834048
 668              		.cfi_endproc
 669              	.LFE148:
 671              		.section	.text.HAL_GetUIDw1,"ax",%progbits
 672              		.align	1
 673              		.global	HAL_GetUIDw1
 674              		.syntax unified
 675              		.thumb
 676              		.thumb_func
 678              	HAL_GetUIDw1:
 679              	.LFB149:
 485:../Resources/Drivers/STM32L4xx_HAL_Driver/Src/stm32l4xx_hal.c **** 
 486:../Resources/Drivers/STM32L4xx_HAL_Driver/Src/stm32l4xx_hal.c **** /**
 487:../Resources/Drivers/STM32L4xx_HAL_Driver/Src/stm32l4xx_hal.c ****   * @brief  Return the second word of the unique device identifier (UID based on 96 bits)
 488:../Resources/Drivers/STM32L4xx_HAL_Driver/Src/stm32l4xx_hal.c ****   * @retval Device identifier
 489:../Resources/Drivers/STM32L4xx_HAL_Driver/Src/stm32l4xx_hal.c ****   */
 490:../Resources/Drivers/STM32L4xx_HAL_Driver/Src/stm32l4xx_hal.c **** uint32_t HAL_GetUIDw1(void)
 491:../Resources/Drivers/STM32L4xx_HAL_Driver/Src/stm32l4xx_hal.c **** {
ARM GAS  /tmp/ccCbeSgG.s 			page 22


 680              		.loc 1 491 1 is_stmt 1 view -0
 681              		.cfi_startproc
 682              		@ args = 0, pretend = 0, frame = 0
 683              		@ frame_needed = 0, uses_anonymous_args = 0
 684              		@ link register save eliminated.
 492:../Resources/Drivers/STM32L4xx_HAL_Driver/Src/stm32l4xx_hal.c ****   return(READ_REG(*((uint32_t *)(UID_BASE + 4U))));
 685              		.loc 1 492 3 view .LVU137
 493:../Resources/Drivers/STM32L4xx_HAL_Driver/Src/stm32l4xx_hal.c **** }
 686              		.loc 1 493 1 is_stmt 0 view .LVU138
 687 0000 014B     		ldr	r3, .L67
 688 0002 D3F89405 		ldr	r0, [r3, #1428]
 689 0006 7047     		bx	lr
 690              	.L68:
 691              		.align	2
 692              	.L67:
 693 0008 0070FF1F 		.word	536834048
 694              		.cfi_endproc
 695              	.LFE149:
 697              		.section	.text.HAL_GetUIDw2,"ax",%progbits
 698              		.align	1
 699              		.global	HAL_GetUIDw2
 700              		.syntax unified
 701              		.thumb
 702              		.thumb_func
 704              	HAL_GetUIDw2:
 705              	.LFB150:
 494:../Resources/Drivers/STM32L4xx_HAL_Driver/Src/stm32l4xx_hal.c **** 
 495:../Resources/Drivers/STM32L4xx_HAL_Driver/Src/stm32l4xx_hal.c **** /**
 496:../Resources/Drivers/STM32L4xx_HAL_Driver/Src/stm32l4xx_hal.c ****   * @brief  Return the third word of the unique device identifier (UID based on 96 bits)
 497:../Resources/Drivers/STM32L4xx_HAL_Driver/Src/stm32l4xx_hal.c ****   * @retval Device identifier
 498:../Resources/Drivers/STM32L4xx_HAL_Driver/Src/stm32l4xx_hal.c ****   */
 499:../Resources/Drivers/STM32L4xx_HAL_Driver/Src/stm32l4xx_hal.c **** uint32_t HAL_GetUIDw2(void)
 500:../Resources/Drivers/STM32L4xx_HAL_Driver/Src/stm32l4xx_hal.c **** {
 706              		.loc 1 500 1 is_stmt 1 view -0
 707              		.cfi_startproc
 708              		@ args = 0, pretend = 0, frame = 0
 709              		@ frame_needed = 0, uses_anonymous_args = 0
 710              		@ link register save eliminated.
 501:../Resources/Drivers/STM32L4xx_HAL_Driver/Src/stm32l4xx_hal.c ****   return(READ_REG(*((uint32_t *)(UID_BASE + 8U))));
 711              		.loc 1 501 3 view .LVU140
 502:../Resources/Drivers/STM32L4xx_HAL_Driver/Src/stm32l4xx_hal.c **** }
 712              		.loc 1 502 1 is_stmt 0 view .LVU141
 713 0000 014B     		ldr	r3, .L70
 714 0002 D3F89805 		ldr	r0, [r3, #1432]
 715 0006 7047     		bx	lr
 716              	.L71:
 717              		.align	2
 718              	.L70:
 719 0008 0070FF1F 		.word	536834048
 720              		.cfi_endproc
 721              	.LFE150:
 723              		.section	.text.HAL_DBGMCU_EnableDBGSleepMode,"ax",%progbits
 724              		.align	1
 725              		.global	HAL_DBGMCU_EnableDBGSleepMode
 726              		.syntax unified
 727              		.thumb
 728              		.thumb_func
ARM GAS  /tmp/ccCbeSgG.s 			page 23


 730              	HAL_DBGMCU_EnableDBGSleepMode:
 731              	.LFB151:
 503:../Resources/Drivers/STM32L4xx_HAL_Driver/Src/stm32l4xx_hal.c **** 
 504:../Resources/Drivers/STM32L4xx_HAL_Driver/Src/stm32l4xx_hal.c **** /**
 505:../Resources/Drivers/STM32L4xx_HAL_Driver/Src/stm32l4xx_hal.c ****   * @}
 506:../Resources/Drivers/STM32L4xx_HAL_Driver/Src/stm32l4xx_hal.c ****   */
 507:../Resources/Drivers/STM32L4xx_HAL_Driver/Src/stm32l4xx_hal.c **** 
 508:../Resources/Drivers/STM32L4xx_HAL_Driver/Src/stm32l4xx_hal.c **** /** @defgroup HAL_Exported_Functions_Group3 HAL Debug functions
 509:../Resources/Drivers/STM32L4xx_HAL_Driver/Src/stm32l4xx_hal.c ****  *  @brief    HAL Debug functions
 510:../Resources/Drivers/STM32L4xx_HAL_Driver/Src/stm32l4xx_hal.c ****  *
 511:../Resources/Drivers/STM32L4xx_HAL_Driver/Src/stm32l4xx_hal.c **** @verbatim
 512:../Resources/Drivers/STM32L4xx_HAL_Driver/Src/stm32l4xx_hal.c ****  ===============================================================================
 513:../Resources/Drivers/STM32L4xx_HAL_Driver/Src/stm32l4xx_hal.c ****                       ##### HAL Debug functions #####
 514:../Resources/Drivers/STM32L4xx_HAL_Driver/Src/stm32l4xx_hal.c ****  ===============================================================================
 515:../Resources/Drivers/STM32L4xx_HAL_Driver/Src/stm32l4xx_hal.c ****     [..]  This section provides functions allowing to:
 516:../Resources/Drivers/STM32L4xx_HAL_Driver/Src/stm32l4xx_hal.c ****       (+) Enable/Disable Debug module during SLEEP mode
 517:../Resources/Drivers/STM32L4xx_HAL_Driver/Src/stm32l4xx_hal.c ****       (+) Enable/Disable Debug module during STOP0/STOP1/STOP2 modes
 518:../Resources/Drivers/STM32L4xx_HAL_Driver/Src/stm32l4xx_hal.c ****       (+) Enable/Disable Debug module during STANDBY mode
 519:../Resources/Drivers/STM32L4xx_HAL_Driver/Src/stm32l4xx_hal.c **** 
 520:../Resources/Drivers/STM32L4xx_HAL_Driver/Src/stm32l4xx_hal.c **** @endverbatim
 521:../Resources/Drivers/STM32L4xx_HAL_Driver/Src/stm32l4xx_hal.c ****   * @{
 522:../Resources/Drivers/STM32L4xx_HAL_Driver/Src/stm32l4xx_hal.c ****   */
 523:../Resources/Drivers/STM32L4xx_HAL_Driver/Src/stm32l4xx_hal.c **** 
 524:../Resources/Drivers/STM32L4xx_HAL_Driver/Src/stm32l4xx_hal.c **** /**
 525:../Resources/Drivers/STM32L4xx_HAL_Driver/Src/stm32l4xx_hal.c ****   * @brief  Enable the Debug Module during SLEEP mode.
 526:../Resources/Drivers/STM32L4xx_HAL_Driver/Src/stm32l4xx_hal.c ****   * @retval None
 527:../Resources/Drivers/STM32L4xx_HAL_Driver/Src/stm32l4xx_hal.c ****   */
 528:../Resources/Drivers/STM32L4xx_HAL_Driver/Src/stm32l4xx_hal.c **** void HAL_DBGMCU_EnableDBGSleepMode(void)
 529:../Resources/Drivers/STM32L4xx_HAL_Driver/Src/stm32l4xx_hal.c **** {
 732              		.loc 1 529 1 is_stmt 1 view -0
 733              		.cfi_startproc
 734              		@ args = 0, pretend = 0, frame = 0
 735              		@ frame_needed = 0, uses_anonymous_args = 0
 736              		@ link register save eliminated.
 530:../Resources/Drivers/STM32L4xx_HAL_Driver/Src/stm32l4xx_hal.c ****   SET_BIT(DBGMCU->CR, DBGMCU_CR_DBG_SLEEP);
 737              		.loc 1 530 3 view .LVU143
 738 0000 024A     		ldr	r2, .L73
 739 0002 5368     		ldr	r3, [r2, #4]
 740 0004 43F00103 		orr	r3, r3, #1
 741 0008 5360     		str	r3, [r2, #4]
 531:../Resources/Drivers/STM32L4xx_HAL_Driver/Src/stm32l4xx_hal.c **** }
 742              		.loc 1 531 1 is_stmt 0 view .LVU144
 743 000a 7047     		bx	lr
 744              	.L74:
 745              		.align	2
 746              	.L73:
 747 000c 002004E0 		.word	-536600576
 748              		.cfi_endproc
 749              	.LFE151:
 751              		.section	.text.HAL_DBGMCU_DisableDBGSleepMode,"ax",%progbits
 752              		.align	1
 753              		.global	HAL_DBGMCU_DisableDBGSleepMode
 754              		.syntax unified
 755              		.thumb
 756              		.thumb_func
 758              	HAL_DBGMCU_DisableDBGSleepMode:
 759              	.LFB152:
ARM GAS  /tmp/ccCbeSgG.s 			page 24


 532:../Resources/Drivers/STM32L4xx_HAL_Driver/Src/stm32l4xx_hal.c **** 
 533:../Resources/Drivers/STM32L4xx_HAL_Driver/Src/stm32l4xx_hal.c **** /**
 534:../Resources/Drivers/STM32L4xx_HAL_Driver/Src/stm32l4xx_hal.c ****   * @brief  Disable the Debug Module during SLEEP mode.
 535:../Resources/Drivers/STM32L4xx_HAL_Driver/Src/stm32l4xx_hal.c ****   * @retval None
 536:../Resources/Drivers/STM32L4xx_HAL_Driver/Src/stm32l4xx_hal.c ****   */
 537:../Resources/Drivers/STM32L4xx_HAL_Driver/Src/stm32l4xx_hal.c **** void HAL_DBGMCU_DisableDBGSleepMode(void)
 538:../Resources/Drivers/STM32L4xx_HAL_Driver/Src/stm32l4xx_hal.c **** {
 760              		.loc 1 538 1 is_stmt 1 view -0
 761              		.cfi_startproc
 762              		@ args = 0, pretend = 0, frame = 0
 763              		@ frame_needed = 0, uses_anonymous_args = 0
 764              		@ link register save eliminated.
 539:../Resources/Drivers/STM32L4xx_HAL_Driver/Src/stm32l4xx_hal.c ****   CLEAR_BIT(DBGMCU->CR, DBGMCU_CR_DBG_SLEEP);
 765              		.loc 1 539 3 view .LVU146
 766 0000 024A     		ldr	r2, .L76
 767 0002 5368     		ldr	r3, [r2, #4]
 768 0004 23F00103 		bic	r3, r3, #1
 769 0008 5360     		str	r3, [r2, #4]
 540:../Resources/Drivers/STM32L4xx_HAL_Driver/Src/stm32l4xx_hal.c **** }
 770              		.loc 1 540 1 is_stmt 0 view .LVU147
 771 000a 7047     		bx	lr
 772              	.L77:
 773              		.align	2
 774              	.L76:
 775 000c 002004E0 		.word	-536600576
 776              		.cfi_endproc
 777              	.LFE152:
 779              		.section	.text.HAL_DBGMCU_EnableDBGStopMode,"ax",%progbits
 780              		.align	1
 781              		.global	HAL_DBGMCU_EnableDBGStopMode
 782              		.syntax unified
 783              		.thumb
 784              		.thumb_func
 786              	HAL_DBGMCU_EnableDBGStopMode:
 787              	.LFB153:
 541:../Resources/Drivers/STM32L4xx_HAL_Driver/Src/stm32l4xx_hal.c **** 
 542:../Resources/Drivers/STM32L4xx_HAL_Driver/Src/stm32l4xx_hal.c **** /**
 543:../Resources/Drivers/STM32L4xx_HAL_Driver/Src/stm32l4xx_hal.c ****   * @brief  Enable the Debug Module during STOP0/STOP1/STOP2 modes.
 544:../Resources/Drivers/STM32L4xx_HAL_Driver/Src/stm32l4xx_hal.c ****   * @retval None
 545:../Resources/Drivers/STM32L4xx_HAL_Driver/Src/stm32l4xx_hal.c ****   */
 546:../Resources/Drivers/STM32L4xx_HAL_Driver/Src/stm32l4xx_hal.c **** void HAL_DBGMCU_EnableDBGStopMode(void)
 547:../Resources/Drivers/STM32L4xx_HAL_Driver/Src/stm32l4xx_hal.c **** {
 788              		.loc 1 547 1 is_stmt 1 view -0
 789              		.cfi_startproc
 790              		@ args = 0, pretend = 0, frame = 0
 791              		@ frame_needed = 0, uses_anonymous_args = 0
 792              		@ link register save eliminated.
 548:../Resources/Drivers/STM32L4xx_HAL_Driver/Src/stm32l4xx_hal.c ****   SET_BIT(DBGMCU->CR, DBGMCU_CR_DBG_STOP);
 793              		.loc 1 548 3 view .LVU149
 794 0000 024A     		ldr	r2, .L79
 795 0002 5368     		ldr	r3, [r2, #4]
 796 0004 43F00203 		orr	r3, r3, #2
 797 0008 5360     		str	r3, [r2, #4]
 549:../Resources/Drivers/STM32L4xx_HAL_Driver/Src/stm32l4xx_hal.c **** }
 798              		.loc 1 549 1 is_stmt 0 view .LVU150
 799 000a 7047     		bx	lr
 800              	.L80:
ARM GAS  /tmp/ccCbeSgG.s 			page 25


 801              		.align	2
 802              	.L79:
 803 000c 002004E0 		.word	-536600576
 804              		.cfi_endproc
 805              	.LFE153:
 807              		.section	.text.HAL_DBGMCU_DisableDBGStopMode,"ax",%progbits
 808              		.align	1
 809              		.global	HAL_DBGMCU_DisableDBGStopMode
 810              		.syntax unified
 811              		.thumb
 812              		.thumb_func
 814              	HAL_DBGMCU_DisableDBGStopMode:
 815              	.LFB154:
 550:../Resources/Drivers/STM32L4xx_HAL_Driver/Src/stm32l4xx_hal.c **** 
 551:../Resources/Drivers/STM32L4xx_HAL_Driver/Src/stm32l4xx_hal.c **** /**
 552:../Resources/Drivers/STM32L4xx_HAL_Driver/Src/stm32l4xx_hal.c ****   * @brief  Disable the Debug Module during STOP0/STOP1/STOP2 modes.
 553:../Resources/Drivers/STM32L4xx_HAL_Driver/Src/stm32l4xx_hal.c ****   * @retval None
 554:../Resources/Drivers/STM32L4xx_HAL_Driver/Src/stm32l4xx_hal.c ****   */
 555:../Resources/Drivers/STM32L4xx_HAL_Driver/Src/stm32l4xx_hal.c **** void HAL_DBGMCU_DisableDBGStopMode(void)
 556:../Resources/Drivers/STM32L4xx_HAL_Driver/Src/stm32l4xx_hal.c **** {
 816              		.loc 1 556 1 is_stmt 1 view -0
 817              		.cfi_startproc
 818              		@ args = 0, pretend = 0, frame = 0
 819              		@ frame_needed = 0, uses_anonymous_args = 0
 820              		@ link register save eliminated.
 557:../Resources/Drivers/STM32L4xx_HAL_Driver/Src/stm32l4xx_hal.c ****   CLEAR_BIT(DBGMCU->CR, DBGMCU_CR_DBG_STOP);
 821              		.loc 1 557 3 view .LVU152
 822 0000 024A     		ldr	r2, .L82
 823 0002 5368     		ldr	r3, [r2, #4]
 824 0004 23F00203 		bic	r3, r3, #2
 825 0008 5360     		str	r3, [r2, #4]
 558:../Resources/Drivers/STM32L4xx_HAL_Driver/Src/stm32l4xx_hal.c **** }
 826              		.loc 1 558 1 is_stmt 0 view .LVU153
 827 000a 7047     		bx	lr
 828              	.L83:
 829              		.align	2
 830              	.L82:
 831 000c 002004E0 		.word	-536600576
 832              		.cfi_endproc
 833              	.LFE154:
 835              		.section	.text.HAL_DBGMCU_EnableDBGStandbyMode,"ax",%progbits
 836              		.align	1
 837              		.global	HAL_DBGMCU_EnableDBGStandbyMode
 838              		.syntax unified
 839              		.thumb
 840              		.thumb_func
 842              	HAL_DBGMCU_EnableDBGStandbyMode:
 843              	.LFB155:
 559:../Resources/Drivers/STM32L4xx_HAL_Driver/Src/stm32l4xx_hal.c **** 
 560:../Resources/Drivers/STM32L4xx_HAL_Driver/Src/stm32l4xx_hal.c **** /**
 561:../Resources/Drivers/STM32L4xx_HAL_Driver/Src/stm32l4xx_hal.c ****   * @brief  Enable the Debug Module during STANDBY mode.
 562:../Resources/Drivers/STM32L4xx_HAL_Driver/Src/stm32l4xx_hal.c ****   * @retval None
 563:../Resources/Drivers/STM32L4xx_HAL_Driver/Src/stm32l4xx_hal.c ****   */
 564:../Resources/Drivers/STM32L4xx_HAL_Driver/Src/stm32l4xx_hal.c **** void HAL_DBGMCU_EnableDBGStandbyMode(void)
 565:../Resources/Drivers/STM32L4xx_HAL_Driver/Src/stm32l4xx_hal.c **** {
 844              		.loc 1 565 1 is_stmt 1 view -0
 845              		.cfi_startproc
ARM GAS  /tmp/ccCbeSgG.s 			page 26


 846              		@ args = 0, pretend = 0, frame = 0
 847              		@ frame_needed = 0, uses_anonymous_args = 0
 848              		@ link register save eliminated.
 566:../Resources/Drivers/STM32L4xx_HAL_Driver/Src/stm32l4xx_hal.c ****   SET_BIT(DBGMCU->CR, DBGMCU_CR_DBG_STANDBY);
 849              		.loc 1 566 3 view .LVU155
 850 0000 024A     		ldr	r2, .L85
 851 0002 5368     		ldr	r3, [r2, #4]
 852 0004 43F00403 		orr	r3, r3, #4
 853 0008 5360     		str	r3, [r2, #4]
 567:../Resources/Drivers/STM32L4xx_HAL_Driver/Src/stm32l4xx_hal.c **** }
 854              		.loc 1 567 1 is_stmt 0 view .LVU156
 855 000a 7047     		bx	lr
 856              	.L86:
 857              		.align	2
 858              	.L85:
 859 000c 002004E0 		.word	-536600576
 860              		.cfi_endproc
 861              	.LFE155:
 863              		.section	.text.HAL_DBGMCU_DisableDBGStandbyMode,"ax",%progbits
 864              		.align	1
 865              		.global	HAL_DBGMCU_DisableDBGStandbyMode
 866              		.syntax unified
 867              		.thumb
 868              		.thumb_func
 870              	HAL_DBGMCU_DisableDBGStandbyMode:
 871              	.LFB156:
 568:../Resources/Drivers/STM32L4xx_HAL_Driver/Src/stm32l4xx_hal.c **** 
 569:../Resources/Drivers/STM32L4xx_HAL_Driver/Src/stm32l4xx_hal.c **** /**
 570:../Resources/Drivers/STM32L4xx_HAL_Driver/Src/stm32l4xx_hal.c ****   * @brief  Disable the Debug Module during STANDBY mode.
 571:../Resources/Drivers/STM32L4xx_HAL_Driver/Src/stm32l4xx_hal.c ****   * @retval None
 572:../Resources/Drivers/STM32L4xx_HAL_Driver/Src/stm32l4xx_hal.c ****   */
 573:../Resources/Drivers/STM32L4xx_HAL_Driver/Src/stm32l4xx_hal.c **** void HAL_DBGMCU_DisableDBGStandbyMode(void)
 574:../Resources/Drivers/STM32L4xx_HAL_Driver/Src/stm32l4xx_hal.c **** {
 872              		.loc 1 574 1 is_stmt 1 view -0
 873              		.cfi_startproc
 874              		@ args = 0, pretend = 0, frame = 0
 875              		@ frame_needed = 0, uses_anonymous_args = 0
 876              		@ link register save eliminated.
 575:../Resources/Drivers/STM32L4xx_HAL_Driver/Src/stm32l4xx_hal.c ****   CLEAR_BIT(DBGMCU->CR, DBGMCU_CR_DBG_STANDBY);
 877              		.loc 1 575 3 view .LVU158
 878 0000 024A     		ldr	r2, .L88
 879 0002 5368     		ldr	r3, [r2, #4]
 880 0004 23F00403 		bic	r3, r3, #4
 881 0008 5360     		str	r3, [r2, #4]
 576:../Resources/Drivers/STM32L4xx_HAL_Driver/Src/stm32l4xx_hal.c **** }
 882              		.loc 1 576 1 is_stmt 0 view .LVU159
 883 000a 7047     		bx	lr
 884              	.L89:
 885              		.align	2
 886              	.L88:
 887 000c 002004E0 		.word	-536600576
 888              		.cfi_endproc
 889              	.LFE156:
 891              		.section	.text.HAL_SYSCFG_SRAM2Erase,"ax",%progbits
 892              		.align	1
 893              		.global	HAL_SYSCFG_SRAM2Erase
 894              		.syntax unified
ARM GAS  /tmp/ccCbeSgG.s 			page 27


 895              		.thumb
 896              		.thumb_func
 898              	HAL_SYSCFG_SRAM2Erase:
 899              	.LFB157:
 577:../Resources/Drivers/STM32L4xx_HAL_Driver/Src/stm32l4xx_hal.c **** 
 578:../Resources/Drivers/STM32L4xx_HAL_Driver/Src/stm32l4xx_hal.c **** /**
 579:../Resources/Drivers/STM32L4xx_HAL_Driver/Src/stm32l4xx_hal.c ****   * @}
 580:../Resources/Drivers/STM32L4xx_HAL_Driver/Src/stm32l4xx_hal.c ****   */
 581:../Resources/Drivers/STM32L4xx_HAL_Driver/Src/stm32l4xx_hal.c **** 
 582:../Resources/Drivers/STM32L4xx_HAL_Driver/Src/stm32l4xx_hal.c **** /** @defgroup HAL_Exported_Functions_Group4 HAL SYSCFG configuration functions
 583:../Resources/Drivers/STM32L4xx_HAL_Driver/Src/stm32l4xx_hal.c ****  *  @brief    HAL SYSCFG configuration functions
 584:../Resources/Drivers/STM32L4xx_HAL_Driver/Src/stm32l4xx_hal.c ****  *
 585:../Resources/Drivers/STM32L4xx_HAL_Driver/Src/stm32l4xx_hal.c **** @verbatim
 586:../Resources/Drivers/STM32L4xx_HAL_Driver/Src/stm32l4xx_hal.c ****  ===============================================================================
 587:../Resources/Drivers/STM32L4xx_HAL_Driver/Src/stm32l4xx_hal.c ****                       ##### HAL SYSCFG configuration functions #####
 588:../Resources/Drivers/STM32L4xx_HAL_Driver/Src/stm32l4xx_hal.c ****  ===============================================================================
 589:../Resources/Drivers/STM32L4xx_HAL_Driver/Src/stm32l4xx_hal.c ****     [..]  This section provides functions allowing to:
 590:../Resources/Drivers/STM32L4xx_HAL_Driver/Src/stm32l4xx_hal.c ****       (+) Start a hardware SRAM2 erase operation
 591:../Resources/Drivers/STM32L4xx_HAL_Driver/Src/stm32l4xx_hal.c ****       (+) Enable/Disable the Internal FLASH Bank Swapping
 592:../Resources/Drivers/STM32L4xx_HAL_Driver/Src/stm32l4xx_hal.c ****       (+) Configure the Voltage reference buffer
 593:../Resources/Drivers/STM32L4xx_HAL_Driver/Src/stm32l4xx_hal.c ****       (+) Enable/Disable the Voltage reference buffer
 594:../Resources/Drivers/STM32L4xx_HAL_Driver/Src/stm32l4xx_hal.c ****       (+) Enable/Disable the I/O analog switch voltage booster
 595:../Resources/Drivers/STM32L4xx_HAL_Driver/Src/stm32l4xx_hal.c **** 
 596:../Resources/Drivers/STM32L4xx_HAL_Driver/Src/stm32l4xx_hal.c **** @endverbatim
 597:../Resources/Drivers/STM32L4xx_HAL_Driver/Src/stm32l4xx_hal.c ****   * @{
 598:../Resources/Drivers/STM32L4xx_HAL_Driver/Src/stm32l4xx_hal.c ****   */
 599:../Resources/Drivers/STM32L4xx_HAL_Driver/Src/stm32l4xx_hal.c **** 
 600:../Resources/Drivers/STM32L4xx_HAL_Driver/Src/stm32l4xx_hal.c **** /**
 601:../Resources/Drivers/STM32L4xx_HAL_Driver/Src/stm32l4xx_hal.c ****   * @brief  Start a hardware SRAM2 erase operation.
 602:../Resources/Drivers/STM32L4xx_HAL_Driver/Src/stm32l4xx_hal.c ****   * @note   As long as SRAM2 is not erased the SRAM2ER bit will be set.
 603:../Resources/Drivers/STM32L4xx_HAL_Driver/Src/stm32l4xx_hal.c ****   *         This bit is automatically reset at the end of the SRAM2 erase operation.
 604:../Resources/Drivers/STM32L4xx_HAL_Driver/Src/stm32l4xx_hal.c ****   * @retval None
 605:../Resources/Drivers/STM32L4xx_HAL_Driver/Src/stm32l4xx_hal.c ****   */
 606:../Resources/Drivers/STM32L4xx_HAL_Driver/Src/stm32l4xx_hal.c **** void HAL_SYSCFG_SRAM2Erase(void)
 607:../Resources/Drivers/STM32L4xx_HAL_Driver/Src/stm32l4xx_hal.c **** {
 900              		.loc 1 607 1 is_stmt 1 view -0
 901              		.cfi_startproc
 902              		@ args = 0, pretend = 0, frame = 0
 903              		@ frame_needed = 0, uses_anonymous_args = 0
 904              		@ link register save eliminated.
 608:../Resources/Drivers/STM32L4xx_HAL_Driver/Src/stm32l4xx_hal.c ****   /* unlock the write protection of the SRAM2ER bit */
 609:../Resources/Drivers/STM32L4xx_HAL_Driver/Src/stm32l4xx_hal.c ****   SYSCFG->SKR = 0xCA;
 905              		.loc 1 609 3 view .LVU161
 906              		.loc 1 609 15 is_stmt 0 view .LVU162
 907 0000 044B     		ldr	r3, .L91
 908 0002 CA22     		movs	r2, #202
 909 0004 5A62     		str	r2, [r3, #36]
 610:../Resources/Drivers/STM32L4xx_HAL_Driver/Src/stm32l4xx_hal.c ****   SYSCFG->SKR = 0x53;
 910              		.loc 1 610 3 is_stmt 1 view .LVU163
 911              		.loc 1 610 15 is_stmt 0 view .LVU164
 912 0006 5322     		movs	r2, #83
 913 0008 5A62     		str	r2, [r3, #36]
 611:../Resources/Drivers/STM32L4xx_HAL_Driver/Src/stm32l4xx_hal.c ****   /* Starts a hardware SRAM2 erase operation*/
 612:../Resources/Drivers/STM32L4xx_HAL_Driver/Src/stm32l4xx_hal.c ****   *(__IO uint32_t *) SCSR_SRAM2ER_BB = 0x00000001UL;
 914              		.loc 1 612 3 is_stmt 1 view .LVU165
 915              		.loc 1 612 38 is_stmt 0 view .LVU166
 916 000a 034B     		ldr	r3, .L91+4
ARM GAS  /tmp/ccCbeSgG.s 			page 28


 917 000c 0122     		movs	r2, #1
 918 000e C3F80023 		str	r2, [r3, #768]
 613:../Resources/Drivers/STM32L4xx_HAL_Driver/Src/stm32l4xx_hal.c **** }
 919              		.loc 1 613 1 view .LVU167
 920 0012 7047     		bx	lr
 921              	.L92:
 922              		.align	2
 923              	.L91:
 924 0014 00000140 		.word	1073807360
 925 0018 00002042 		.word	1109393408
 926              		.cfi_endproc
 927              	.LFE157:
 929              		.section	.text.HAL_SYSCFG_EnableMemorySwappingBank,"ax",%progbits
 930              		.align	1
 931              		.global	HAL_SYSCFG_EnableMemorySwappingBank
 932              		.syntax unified
 933              		.thumb
 934              		.thumb_func
 936              	HAL_SYSCFG_EnableMemorySwappingBank:
 937              	.LFB158:
 614:../Resources/Drivers/STM32L4xx_HAL_Driver/Src/stm32l4xx_hal.c **** 
 615:../Resources/Drivers/STM32L4xx_HAL_Driver/Src/stm32l4xx_hal.c **** /**
 616:../Resources/Drivers/STM32L4xx_HAL_Driver/Src/stm32l4xx_hal.c ****   * @brief  Enable the Internal FLASH Bank Swapping.
 617:../Resources/Drivers/STM32L4xx_HAL_Driver/Src/stm32l4xx_hal.c ****   *
 618:../Resources/Drivers/STM32L4xx_HAL_Driver/Src/stm32l4xx_hal.c ****   * @note   This function can be used only for STM32L4xx devices.
 619:../Resources/Drivers/STM32L4xx_HAL_Driver/Src/stm32l4xx_hal.c ****   *
 620:../Resources/Drivers/STM32L4xx_HAL_Driver/Src/stm32l4xx_hal.c ****   * @note   Flash Bank2 mapped at 0x08000000 (and aliased @0x00000000)
 621:../Resources/Drivers/STM32L4xx_HAL_Driver/Src/stm32l4xx_hal.c ****   *         and Flash Bank1 mapped at 0x08100000 (and aliased at 0x00100000)
 622:../Resources/Drivers/STM32L4xx_HAL_Driver/Src/stm32l4xx_hal.c ****   *
 623:../Resources/Drivers/STM32L4xx_HAL_Driver/Src/stm32l4xx_hal.c ****   * @retval None
 624:../Resources/Drivers/STM32L4xx_HAL_Driver/Src/stm32l4xx_hal.c ****   */
 625:../Resources/Drivers/STM32L4xx_HAL_Driver/Src/stm32l4xx_hal.c **** void HAL_SYSCFG_EnableMemorySwappingBank(void)
 626:../Resources/Drivers/STM32L4xx_HAL_Driver/Src/stm32l4xx_hal.c **** {
 938              		.loc 1 626 1 is_stmt 1 view -0
 939              		.cfi_startproc
 940              		@ args = 0, pretend = 0, frame = 0
 941              		@ frame_needed = 0, uses_anonymous_args = 0
 942              		@ link register save eliminated.
 627:../Resources/Drivers/STM32L4xx_HAL_Driver/Src/stm32l4xx_hal.c ****   *(__IO uint32_t *)FB_MODE_BB = 0x00000001UL;
 943              		.loc 1 627 3 view .LVU169
 944              		.loc 1 627 32 is_stmt 0 view .LVU170
 945 0000 014B     		ldr	r3, .L94
 946 0002 0122     		movs	r2, #1
 947 0004 1A62     		str	r2, [r3, #32]
 628:../Resources/Drivers/STM32L4xx_HAL_Driver/Src/stm32l4xx_hal.c **** }
 948              		.loc 1 628 1 view .LVU171
 949 0006 7047     		bx	lr
 950              	.L95:
 951              		.align	2
 952              	.L94:
 953 0008 00002042 		.word	1109393408
 954              		.cfi_endproc
 955              	.LFE158:
 957              		.section	.text.HAL_SYSCFG_DisableMemorySwappingBank,"ax",%progbits
 958              		.align	1
 959              		.global	HAL_SYSCFG_DisableMemorySwappingBank
 960              		.syntax unified
ARM GAS  /tmp/ccCbeSgG.s 			page 29


 961              		.thumb
 962              		.thumb_func
 964              	HAL_SYSCFG_DisableMemorySwappingBank:
 965              	.LFB159:
 629:../Resources/Drivers/STM32L4xx_HAL_Driver/Src/stm32l4xx_hal.c **** 
 630:../Resources/Drivers/STM32L4xx_HAL_Driver/Src/stm32l4xx_hal.c **** /**
 631:../Resources/Drivers/STM32L4xx_HAL_Driver/Src/stm32l4xx_hal.c ****   * @brief  Disable the Internal FLASH Bank Swapping.
 632:../Resources/Drivers/STM32L4xx_HAL_Driver/Src/stm32l4xx_hal.c ****   *
 633:../Resources/Drivers/STM32L4xx_HAL_Driver/Src/stm32l4xx_hal.c ****   * @note   This function can be used only for STM32L4xx devices.
 634:../Resources/Drivers/STM32L4xx_HAL_Driver/Src/stm32l4xx_hal.c ****   *
 635:../Resources/Drivers/STM32L4xx_HAL_Driver/Src/stm32l4xx_hal.c ****   * @note   The default state : Flash Bank1 mapped at 0x08000000 (and aliased @0x0000 0000)
 636:../Resources/Drivers/STM32L4xx_HAL_Driver/Src/stm32l4xx_hal.c ****   *         and Flash Bank2 mapped at 0x08100000 (and aliased at 0x00100000)
 637:../Resources/Drivers/STM32L4xx_HAL_Driver/Src/stm32l4xx_hal.c ****   *
 638:../Resources/Drivers/STM32L4xx_HAL_Driver/Src/stm32l4xx_hal.c ****   * @retval None
 639:../Resources/Drivers/STM32L4xx_HAL_Driver/Src/stm32l4xx_hal.c ****   */
 640:../Resources/Drivers/STM32L4xx_HAL_Driver/Src/stm32l4xx_hal.c **** void HAL_SYSCFG_DisableMemorySwappingBank(void)
 641:../Resources/Drivers/STM32L4xx_HAL_Driver/Src/stm32l4xx_hal.c **** {
 966              		.loc 1 641 1 is_stmt 1 view -0
 967              		.cfi_startproc
 968              		@ args = 0, pretend = 0, frame = 0
 969              		@ frame_needed = 0, uses_anonymous_args = 0
 970              		@ link register save eliminated.
 642:../Resources/Drivers/STM32L4xx_HAL_Driver/Src/stm32l4xx_hal.c **** 
 643:../Resources/Drivers/STM32L4xx_HAL_Driver/Src/stm32l4xx_hal.c ****   *(__IO uint32_t *)FB_MODE_BB = 0x00000000UL;
 971              		.loc 1 643 3 view .LVU173
 972              		.loc 1 643 32 is_stmt 0 view .LVU174
 973 0000 014B     		ldr	r3, .L97
 974 0002 0022     		movs	r2, #0
 975 0004 1A62     		str	r2, [r3, #32]
 644:../Resources/Drivers/STM32L4xx_HAL_Driver/Src/stm32l4xx_hal.c **** }
 976              		.loc 1 644 1 view .LVU175
 977 0006 7047     		bx	lr
 978              	.L98:
 979              		.align	2
 980              	.L97:
 981 0008 00002042 		.word	1109393408
 982              		.cfi_endproc
 983              	.LFE159:
 985              		.section	.text.HAL_SYSCFG_VREFBUF_VoltageScalingConfig,"ax",%progbits
 986              		.align	1
 987              		.global	HAL_SYSCFG_VREFBUF_VoltageScalingConfig
 988              		.syntax unified
 989              		.thumb
 990              		.thumb_func
 992              	HAL_SYSCFG_VREFBUF_VoltageScalingConfig:
 993              	.LVL27:
 994              	.LFB160:
 645:../Resources/Drivers/STM32L4xx_HAL_Driver/Src/stm32l4xx_hal.c **** 
 646:../Resources/Drivers/STM32L4xx_HAL_Driver/Src/stm32l4xx_hal.c **** #if defined(VREFBUF)
 647:../Resources/Drivers/STM32L4xx_HAL_Driver/Src/stm32l4xx_hal.c **** /**
 648:../Resources/Drivers/STM32L4xx_HAL_Driver/Src/stm32l4xx_hal.c ****   * @brief Configure the internal voltage reference buffer voltage scale.
 649:../Resources/Drivers/STM32L4xx_HAL_Driver/Src/stm32l4xx_hal.c ****   * @param VoltageScaling  specifies the output voltage to achieve
 650:../Resources/Drivers/STM32L4xx_HAL_Driver/Src/stm32l4xx_hal.c ****   *          This parameter can be one of the following values:
 651:../Resources/Drivers/STM32L4xx_HAL_Driver/Src/stm32l4xx_hal.c ****   *            @arg SYSCFG_VREFBUF_VOLTAGE_SCALE0: VREF_OUT1 around 2.048 V.
 652:../Resources/Drivers/STM32L4xx_HAL_Driver/Src/stm32l4xx_hal.c ****   *                                                This requires VDDA equal to or higher than 2.4 V
 653:../Resources/Drivers/STM32L4xx_HAL_Driver/Src/stm32l4xx_hal.c ****   *            @arg SYSCFG_VREFBUF_VOLTAGE_SCALE1: VREF_OUT2 around 2.5 V.
 654:../Resources/Drivers/STM32L4xx_HAL_Driver/Src/stm32l4xx_hal.c ****   *                                                This requires VDDA equal to or higher than 2.8 V
ARM GAS  /tmp/ccCbeSgG.s 			page 30


 655:../Resources/Drivers/STM32L4xx_HAL_Driver/Src/stm32l4xx_hal.c ****   * @retval None
 656:../Resources/Drivers/STM32L4xx_HAL_Driver/Src/stm32l4xx_hal.c ****   */
 657:../Resources/Drivers/STM32L4xx_HAL_Driver/Src/stm32l4xx_hal.c **** void HAL_SYSCFG_VREFBUF_VoltageScalingConfig(uint32_t VoltageScaling)
 658:../Resources/Drivers/STM32L4xx_HAL_Driver/Src/stm32l4xx_hal.c **** {
 995              		.loc 1 658 1 is_stmt 1 view -0
 996              		.cfi_startproc
 997              		@ args = 0, pretend = 0, frame = 0
 998              		@ frame_needed = 0, uses_anonymous_args = 0
 999              		@ link register save eliminated.
 659:../Resources/Drivers/STM32L4xx_HAL_Driver/Src/stm32l4xx_hal.c ****   /* Check the parameters */
 660:../Resources/Drivers/STM32L4xx_HAL_Driver/Src/stm32l4xx_hal.c ****   assert_param(IS_SYSCFG_VREFBUF_VOLTAGE_SCALE(VoltageScaling));
 1000              		.loc 1 660 3 view .LVU177
 661:../Resources/Drivers/STM32L4xx_HAL_Driver/Src/stm32l4xx_hal.c **** 
 662:../Resources/Drivers/STM32L4xx_HAL_Driver/Src/stm32l4xx_hal.c ****   MODIFY_REG(VREFBUF->CSR, VREFBUF_CSR_VRS, VoltageScaling);
 1001              		.loc 1 662 3 view .LVU178
 1002 0000 034A     		ldr	r2, .L100
 1003 0002 136B     		ldr	r3, [r2, #48]
 1004 0004 23F00403 		bic	r3, r3, #4
 1005 0008 0343     		orrs	r3, r3, r0
 1006 000a 1363     		str	r3, [r2, #48]
 663:../Resources/Drivers/STM32L4xx_HAL_Driver/Src/stm32l4xx_hal.c **** }
 1007              		.loc 1 663 1 is_stmt 0 view .LVU179
 1008 000c 7047     		bx	lr
 1009              	.L101:
 1010 000e 00BF     		.align	2
 1011              	.L100:
 1012 0010 00000140 		.word	1073807360
 1013              		.cfi_endproc
 1014              	.LFE160:
 1016              		.section	.text.HAL_SYSCFG_VREFBUF_HighImpedanceConfig,"ax",%progbits
 1017              		.align	1
 1018              		.global	HAL_SYSCFG_VREFBUF_HighImpedanceConfig
 1019              		.syntax unified
 1020              		.thumb
 1021              		.thumb_func
 1023              	HAL_SYSCFG_VREFBUF_HighImpedanceConfig:
 1024              	.LVL28:
 1025              	.LFB161:
 664:../Resources/Drivers/STM32L4xx_HAL_Driver/Src/stm32l4xx_hal.c **** 
 665:../Resources/Drivers/STM32L4xx_HAL_Driver/Src/stm32l4xx_hal.c **** /**
 666:../Resources/Drivers/STM32L4xx_HAL_Driver/Src/stm32l4xx_hal.c ****   * @brief Configure the internal voltage reference buffer high impedance mode.
 667:../Resources/Drivers/STM32L4xx_HAL_Driver/Src/stm32l4xx_hal.c ****   * @param Mode  specifies the high impedance mode
 668:../Resources/Drivers/STM32L4xx_HAL_Driver/Src/stm32l4xx_hal.c ****   *          This parameter can be one of the following values:
 669:../Resources/Drivers/STM32L4xx_HAL_Driver/Src/stm32l4xx_hal.c ****   *            @arg SYSCFG_VREFBUF_HIGH_IMPEDANCE_DISABLE: VREF+ pin is internally connect to VREFI
 670:../Resources/Drivers/STM32L4xx_HAL_Driver/Src/stm32l4xx_hal.c ****   *            @arg SYSCFG_VREFBUF_HIGH_IMPEDANCE_ENABLE: VREF+ pin is high impedance.
 671:../Resources/Drivers/STM32L4xx_HAL_Driver/Src/stm32l4xx_hal.c ****   * @retval None
 672:../Resources/Drivers/STM32L4xx_HAL_Driver/Src/stm32l4xx_hal.c ****   */
 673:../Resources/Drivers/STM32L4xx_HAL_Driver/Src/stm32l4xx_hal.c **** void HAL_SYSCFG_VREFBUF_HighImpedanceConfig(uint32_t Mode)
 674:../Resources/Drivers/STM32L4xx_HAL_Driver/Src/stm32l4xx_hal.c **** {
 1026              		.loc 1 674 1 is_stmt 1 view -0
 1027              		.cfi_startproc
 1028              		@ args = 0, pretend = 0, frame = 0
 1029              		@ frame_needed = 0, uses_anonymous_args = 0
 1030              		@ link register save eliminated.
 675:../Resources/Drivers/STM32L4xx_HAL_Driver/Src/stm32l4xx_hal.c ****   /* Check the parameters */
 676:../Resources/Drivers/STM32L4xx_HAL_Driver/Src/stm32l4xx_hal.c ****   assert_param(IS_SYSCFG_VREFBUF_HIGH_IMPEDANCE(Mode));
 1031              		.loc 1 676 3 view .LVU181
ARM GAS  /tmp/ccCbeSgG.s 			page 31


 677:../Resources/Drivers/STM32L4xx_HAL_Driver/Src/stm32l4xx_hal.c **** 
 678:../Resources/Drivers/STM32L4xx_HAL_Driver/Src/stm32l4xx_hal.c ****   MODIFY_REG(VREFBUF->CSR, VREFBUF_CSR_HIZ, Mode);
 1032              		.loc 1 678 3 view .LVU182
 1033 0000 034A     		ldr	r2, .L103
 1034 0002 136B     		ldr	r3, [r2, #48]
 1035 0004 23F00203 		bic	r3, r3, #2
 1036 0008 0343     		orrs	r3, r3, r0
 1037 000a 1363     		str	r3, [r2, #48]
 679:../Resources/Drivers/STM32L4xx_HAL_Driver/Src/stm32l4xx_hal.c **** }
 1038              		.loc 1 679 1 is_stmt 0 view .LVU183
 1039 000c 7047     		bx	lr
 1040              	.L104:
 1041 000e 00BF     		.align	2
 1042              	.L103:
 1043 0010 00000140 		.word	1073807360
 1044              		.cfi_endproc
 1045              	.LFE161:
 1047              		.section	.text.HAL_SYSCFG_VREFBUF_TrimmingConfig,"ax",%progbits
 1048              		.align	1
 1049              		.global	HAL_SYSCFG_VREFBUF_TrimmingConfig
 1050              		.syntax unified
 1051              		.thumb
 1052              		.thumb_func
 1054              	HAL_SYSCFG_VREFBUF_TrimmingConfig:
 1055              	.LVL29:
 1056              	.LFB162:
 680:../Resources/Drivers/STM32L4xx_HAL_Driver/Src/stm32l4xx_hal.c **** 
 681:../Resources/Drivers/STM32L4xx_HAL_Driver/Src/stm32l4xx_hal.c **** /**
 682:../Resources/Drivers/STM32L4xx_HAL_Driver/Src/stm32l4xx_hal.c ****   * @brief  Tune the Internal Voltage Reference buffer (VREFBUF).
 683:../Resources/Drivers/STM32L4xx_HAL_Driver/Src/stm32l4xx_hal.c ****   * @retval None
 684:../Resources/Drivers/STM32L4xx_HAL_Driver/Src/stm32l4xx_hal.c ****   */
 685:../Resources/Drivers/STM32L4xx_HAL_Driver/Src/stm32l4xx_hal.c **** void HAL_SYSCFG_VREFBUF_TrimmingConfig(uint32_t TrimmingValue)
 686:../Resources/Drivers/STM32L4xx_HAL_Driver/Src/stm32l4xx_hal.c **** {
 1057              		.loc 1 686 1 is_stmt 1 view -0
 1058              		.cfi_startproc
 1059              		@ args = 0, pretend = 0, frame = 0
 1060              		@ frame_needed = 0, uses_anonymous_args = 0
 1061              		@ link register save eliminated.
 687:../Resources/Drivers/STM32L4xx_HAL_Driver/Src/stm32l4xx_hal.c ****   /* Check the parameters */
 688:../Resources/Drivers/STM32L4xx_HAL_Driver/Src/stm32l4xx_hal.c ****   assert_param(IS_SYSCFG_VREFBUF_TRIMMING(TrimmingValue));
 1062              		.loc 1 688 3 view .LVU185
 689:../Resources/Drivers/STM32L4xx_HAL_Driver/Src/stm32l4xx_hal.c **** 
 690:../Resources/Drivers/STM32L4xx_HAL_Driver/Src/stm32l4xx_hal.c ****   MODIFY_REG(VREFBUF->CCR, VREFBUF_CCR_TRIM, TrimmingValue);
 1063              		.loc 1 690 3 view .LVU186
 1064 0000 034A     		ldr	r2, .L106
 1065 0002 536B     		ldr	r3, [r2, #52]
 1066 0004 23F03F03 		bic	r3, r3, #63
 1067 0008 0343     		orrs	r3, r3, r0
 1068 000a 5363     		str	r3, [r2, #52]
 691:../Resources/Drivers/STM32L4xx_HAL_Driver/Src/stm32l4xx_hal.c **** }
 1069              		.loc 1 691 1 is_stmt 0 view .LVU187
 1070 000c 7047     		bx	lr
 1071              	.L107:
 1072 000e 00BF     		.align	2
 1073              	.L106:
 1074 0010 00000140 		.word	1073807360
 1075              		.cfi_endproc
ARM GAS  /tmp/ccCbeSgG.s 			page 32


 1076              	.LFE162:
 1078              		.section	.text.HAL_SYSCFG_EnableVREFBUF,"ax",%progbits
 1079              		.align	1
 1080              		.global	HAL_SYSCFG_EnableVREFBUF
 1081              		.syntax unified
 1082              		.thumb
 1083              		.thumb_func
 1085              	HAL_SYSCFG_EnableVREFBUF:
 1086              	.LFB163:
 692:../Resources/Drivers/STM32L4xx_HAL_Driver/Src/stm32l4xx_hal.c **** 
 693:../Resources/Drivers/STM32L4xx_HAL_Driver/Src/stm32l4xx_hal.c **** /**
 694:../Resources/Drivers/STM32L4xx_HAL_Driver/Src/stm32l4xx_hal.c ****   * @brief  Enable the Internal Voltage Reference buffer (VREFBUF).
 695:../Resources/Drivers/STM32L4xx_HAL_Driver/Src/stm32l4xx_hal.c ****   * @retval HAL_OK/HAL_TIMEOUT
 696:../Resources/Drivers/STM32L4xx_HAL_Driver/Src/stm32l4xx_hal.c ****   */
 697:../Resources/Drivers/STM32L4xx_HAL_Driver/Src/stm32l4xx_hal.c **** HAL_StatusTypeDef HAL_SYSCFG_EnableVREFBUF(void)
 698:../Resources/Drivers/STM32L4xx_HAL_Driver/Src/stm32l4xx_hal.c **** {
 1087              		.loc 1 698 1 is_stmt 1 view -0
 1088              		.cfi_startproc
 1089              		@ args = 0, pretend = 0, frame = 0
 1090              		@ frame_needed = 0, uses_anonymous_args = 0
 1091 0000 10B5     		push	{r4, lr}
 1092              	.LCFI5:
 1093              		.cfi_def_cfa_offset 8
 1094              		.cfi_offset 4, -8
 1095              		.cfi_offset 14, -4
 699:../Resources/Drivers/STM32L4xx_HAL_Driver/Src/stm32l4xx_hal.c ****   uint32_t  tickstart;
 1096              		.loc 1 699 3 view .LVU189
 700:../Resources/Drivers/STM32L4xx_HAL_Driver/Src/stm32l4xx_hal.c **** 
 701:../Resources/Drivers/STM32L4xx_HAL_Driver/Src/stm32l4xx_hal.c ****   SET_BIT(VREFBUF->CSR, VREFBUF_CSR_ENVR);
 1097              		.loc 1 701 3 view .LVU190
 1098 0002 0B4A     		ldr	r2, .L115
 1099 0004 136B     		ldr	r3, [r2, #48]
 1100 0006 43F00103 		orr	r3, r3, #1
 1101 000a 1363     		str	r3, [r2, #48]
 702:../Resources/Drivers/STM32L4xx_HAL_Driver/Src/stm32l4xx_hal.c **** 
 703:../Resources/Drivers/STM32L4xx_HAL_Driver/Src/stm32l4xx_hal.c ****   /* Get Start Tick*/
 704:../Resources/Drivers/STM32L4xx_HAL_Driver/Src/stm32l4xx_hal.c ****   tickstart = HAL_GetTick();
 1102              		.loc 1 704 3 view .LVU191
 1103              		.loc 1 704 15 is_stmt 0 view .LVU192
 1104 000c FFF7FEFF 		bl	HAL_GetTick
 1105              	.LVL30:
 1106 0010 0446     		mov	r4, r0
 1107              	.LVL31:
 705:../Resources/Drivers/STM32L4xx_HAL_Driver/Src/stm32l4xx_hal.c **** 
 706:../Resources/Drivers/STM32L4xx_HAL_Driver/Src/stm32l4xx_hal.c ****   /* Wait for VRR bit  */
 707:../Resources/Drivers/STM32L4xx_HAL_Driver/Src/stm32l4xx_hal.c ****   while(READ_BIT(VREFBUF->CSR, VREFBUF_CSR_VRR) == 0U)
 1108              		.loc 1 707 3 is_stmt 1 view .LVU193
 1109              	.L109:
 1110              		.loc 1 707 8 view .LVU194
 1111              		.loc 1 707 9 is_stmt 0 view .LVU195
 1112 0012 074B     		ldr	r3, .L115
 1113 0014 1B6B     		ldr	r3, [r3, #48]
 1114              		.loc 1 707 8 view .LVU196
 1115 0016 13F0080F 		tst	r3, #8
 1116 001a 06D1     		bne	.L114
 708:../Resources/Drivers/STM32L4xx_HAL_Driver/Src/stm32l4xx_hal.c ****   {
 709:../Resources/Drivers/STM32L4xx_HAL_Driver/Src/stm32l4xx_hal.c ****     if((HAL_GetTick() - tickstart) > VREFBUF_TIMEOUT_VALUE)
ARM GAS  /tmp/ccCbeSgG.s 			page 33


 1117              		.loc 1 709 5 is_stmt 1 view .LVU197
 1118              		.loc 1 709 9 is_stmt 0 view .LVU198
 1119 001c FFF7FEFF 		bl	HAL_GetTick
 1120              	.LVL32:
 1121              		.loc 1 709 23 view .LVU199
 1122 0020 001B     		subs	r0, r0, r4
 1123              		.loc 1 709 7 view .LVU200
 1124 0022 0A28     		cmp	r0, #10
 1125 0024 F5D9     		bls	.L109
 710:../Resources/Drivers/STM32L4xx_HAL_Driver/Src/stm32l4xx_hal.c ****     {
 711:../Resources/Drivers/STM32L4xx_HAL_Driver/Src/stm32l4xx_hal.c ****       return HAL_TIMEOUT;
 1126              		.loc 1 711 14 view .LVU201
 1127 0026 0320     		movs	r0, #3
 1128 0028 00E0     		b	.L110
 1129              	.L114:
 712:../Resources/Drivers/STM32L4xx_HAL_Driver/Src/stm32l4xx_hal.c ****     }
 713:../Resources/Drivers/STM32L4xx_HAL_Driver/Src/stm32l4xx_hal.c ****   }
 714:../Resources/Drivers/STM32L4xx_HAL_Driver/Src/stm32l4xx_hal.c **** 
 715:../Resources/Drivers/STM32L4xx_HAL_Driver/Src/stm32l4xx_hal.c ****   return HAL_OK;
 1130              		.loc 1 715 10 view .LVU202
 1131 002a 0020     		movs	r0, #0
 1132              	.L110:
 716:../Resources/Drivers/STM32L4xx_HAL_Driver/Src/stm32l4xx_hal.c **** }
 1133              		.loc 1 716 1 view .LVU203
 1134 002c 10BD     		pop	{r4, pc}
 1135              	.LVL33:
 1136              	.L116:
 1137              		.loc 1 716 1 view .LVU204
 1138 002e 00BF     		.align	2
 1139              	.L115:
 1140 0030 00000140 		.word	1073807360
 1141              		.cfi_endproc
 1142              	.LFE163:
 1144              		.section	.text.HAL_SYSCFG_DisableVREFBUF,"ax",%progbits
 1145              		.align	1
 1146              		.global	HAL_SYSCFG_DisableVREFBUF
 1147              		.syntax unified
 1148              		.thumb
 1149              		.thumb_func
 1151              	HAL_SYSCFG_DisableVREFBUF:
 1152              	.LFB164:
 717:../Resources/Drivers/STM32L4xx_HAL_Driver/Src/stm32l4xx_hal.c **** 
 718:../Resources/Drivers/STM32L4xx_HAL_Driver/Src/stm32l4xx_hal.c **** /**
 719:../Resources/Drivers/STM32L4xx_HAL_Driver/Src/stm32l4xx_hal.c ****   * @brief  Disable the Internal Voltage Reference buffer (VREFBUF).
 720:../Resources/Drivers/STM32L4xx_HAL_Driver/Src/stm32l4xx_hal.c ****   *
 721:../Resources/Drivers/STM32L4xx_HAL_Driver/Src/stm32l4xx_hal.c ****   * @retval None
 722:../Resources/Drivers/STM32L4xx_HAL_Driver/Src/stm32l4xx_hal.c ****   */
 723:../Resources/Drivers/STM32L4xx_HAL_Driver/Src/stm32l4xx_hal.c **** void HAL_SYSCFG_DisableVREFBUF(void)
 724:../Resources/Drivers/STM32L4xx_HAL_Driver/Src/stm32l4xx_hal.c **** {
 1153              		.loc 1 724 1 is_stmt 1 view -0
 1154              		.cfi_startproc
 1155              		@ args = 0, pretend = 0, frame = 0
 1156              		@ frame_needed = 0, uses_anonymous_args = 0
 1157              		@ link register save eliminated.
 725:../Resources/Drivers/STM32L4xx_HAL_Driver/Src/stm32l4xx_hal.c ****   CLEAR_BIT(VREFBUF->CSR, VREFBUF_CSR_ENVR);
 1158              		.loc 1 725 3 view .LVU206
 1159 0000 024A     		ldr	r2, .L118
ARM GAS  /tmp/ccCbeSgG.s 			page 34


 1160 0002 136B     		ldr	r3, [r2, #48]
 1161 0004 23F00103 		bic	r3, r3, #1
 1162 0008 1363     		str	r3, [r2, #48]
 726:../Resources/Drivers/STM32L4xx_HAL_Driver/Src/stm32l4xx_hal.c **** }
 1163              		.loc 1 726 1 is_stmt 0 view .LVU207
 1164 000a 7047     		bx	lr
 1165              	.L119:
 1166              		.align	2
 1167              	.L118:
 1168 000c 00000140 		.word	1073807360
 1169              		.cfi_endproc
 1170              	.LFE164:
 1172              		.section	.text.HAL_SYSCFG_EnableIOAnalogSwitchBooster,"ax",%progbits
 1173              		.align	1
 1174              		.global	HAL_SYSCFG_EnableIOAnalogSwitchBooster
 1175              		.syntax unified
 1176              		.thumb
 1177              		.thumb_func
 1179              	HAL_SYSCFG_EnableIOAnalogSwitchBooster:
 1180              	.LFB165:
 727:../Resources/Drivers/STM32L4xx_HAL_Driver/Src/stm32l4xx_hal.c **** #endif /* VREFBUF */
 728:../Resources/Drivers/STM32L4xx_HAL_Driver/Src/stm32l4xx_hal.c **** 
 729:../Resources/Drivers/STM32L4xx_HAL_Driver/Src/stm32l4xx_hal.c **** /**
 730:../Resources/Drivers/STM32L4xx_HAL_Driver/Src/stm32l4xx_hal.c ****   * @brief  Enable the I/O analog switch voltage booster
 731:../Resources/Drivers/STM32L4xx_HAL_Driver/Src/stm32l4xx_hal.c ****   *
 732:../Resources/Drivers/STM32L4xx_HAL_Driver/Src/stm32l4xx_hal.c ****   * @retval None
 733:../Resources/Drivers/STM32L4xx_HAL_Driver/Src/stm32l4xx_hal.c ****   */
 734:../Resources/Drivers/STM32L4xx_HAL_Driver/Src/stm32l4xx_hal.c **** void HAL_SYSCFG_EnableIOAnalogSwitchBooster(void)
 735:../Resources/Drivers/STM32L4xx_HAL_Driver/Src/stm32l4xx_hal.c **** {
 1181              		.loc 1 735 1 is_stmt 1 view -0
 1182              		.cfi_startproc
 1183              		@ args = 0, pretend = 0, frame = 0
 1184              		@ frame_needed = 0, uses_anonymous_args = 0
 1185              		@ link register save eliminated.
 736:../Resources/Drivers/STM32L4xx_HAL_Driver/Src/stm32l4xx_hal.c ****   SET_BIT(SYSCFG->CFGR1, SYSCFG_CFGR1_BOOSTEN);
 1186              		.loc 1 736 3 view .LVU209
 1187 0000 024A     		ldr	r2, .L121
 1188 0002 5368     		ldr	r3, [r2, #4]
 1189 0004 43F48073 		orr	r3, r3, #256
 1190 0008 5360     		str	r3, [r2, #4]
 737:../Resources/Drivers/STM32L4xx_HAL_Driver/Src/stm32l4xx_hal.c **** }
 1191              		.loc 1 737 1 is_stmt 0 view .LVU210
 1192 000a 7047     		bx	lr
 1193              	.L122:
 1194              		.align	2
 1195              	.L121:
 1196 000c 00000140 		.word	1073807360
 1197              		.cfi_endproc
 1198              	.LFE165:
 1200              		.section	.text.HAL_SYSCFG_DisableIOAnalogSwitchBooster,"ax",%progbits
 1201              		.align	1
 1202              		.global	HAL_SYSCFG_DisableIOAnalogSwitchBooster
 1203              		.syntax unified
 1204              		.thumb
 1205              		.thumb_func
 1207              	HAL_SYSCFG_DisableIOAnalogSwitchBooster:
 1208              	.LFB166:
ARM GAS  /tmp/ccCbeSgG.s 			page 35


 738:../Resources/Drivers/STM32L4xx_HAL_Driver/Src/stm32l4xx_hal.c **** 
 739:../Resources/Drivers/STM32L4xx_HAL_Driver/Src/stm32l4xx_hal.c **** /**
 740:../Resources/Drivers/STM32L4xx_HAL_Driver/Src/stm32l4xx_hal.c ****   * @brief  Disable the I/O analog switch voltage booster
 741:../Resources/Drivers/STM32L4xx_HAL_Driver/Src/stm32l4xx_hal.c ****   *
 742:../Resources/Drivers/STM32L4xx_HAL_Driver/Src/stm32l4xx_hal.c ****   * @retval None
 743:../Resources/Drivers/STM32L4xx_HAL_Driver/Src/stm32l4xx_hal.c ****   */
 744:../Resources/Drivers/STM32L4xx_HAL_Driver/Src/stm32l4xx_hal.c **** void HAL_SYSCFG_DisableIOAnalogSwitchBooster(void)
 745:../Resources/Drivers/STM32L4xx_HAL_Driver/Src/stm32l4xx_hal.c **** {
 1209              		.loc 1 745 1 is_stmt 1 view -0
 1210              		.cfi_startproc
 1211              		@ args = 0, pretend = 0, frame = 0
 1212              		@ frame_needed = 0, uses_anonymous_args = 0
 1213              		@ link register save eliminated.
 746:../Resources/Drivers/STM32L4xx_HAL_Driver/Src/stm32l4xx_hal.c ****   CLEAR_BIT(SYSCFG->CFGR1, SYSCFG_CFGR1_BOOSTEN);
 1214              		.loc 1 746 3 view .LVU212
 1215 0000 024A     		ldr	r2, .L124
 1216 0002 5368     		ldr	r3, [r2, #4]
 1217 0004 23F48073 		bic	r3, r3, #256
 1218 0008 5360     		str	r3, [r2, #4]
 747:../Resources/Drivers/STM32L4xx_HAL_Driver/Src/stm32l4xx_hal.c **** }
 1219              		.loc 1 747 1 is_stmt 0 view .LVU213
 1220 000a 7047     		bx	lr
 1221              	.L125:
 1222              		.align	2
 1223              	.L124:
 1224 000c 00000140 		.word	1073807360
 1225              		.cfi_endproc
 1226              	.LFE166:
 1228              		.global	uwTickFreq
 1229              		.global	uwTickPrio
 1230              		.global	uwTick
 1231              		.section	.bss.uwTick,"aw",%nobits
 1232              		.align	2
 1233              		.set	.LANCHOR2,. + 0
 1236              	uwTick:
 1237 0000 00000000 		.space	4
 1238              		.section	.data.uwTickFreq,"aw"
 1239              		.set	.LANCHOR0,. + 0
 1242              	uwTickFreq:
 1243 0000 01       		.byte	1
 1244              		.section	.data.uwTickPrio,"aw"
 1245              		.align	2
 1246              		.set	.LANCHOR1,. + 0
 1249              	uwTickPrio:
 1250 0000 10000000 		.word	16
 1251              		.text
 1252              	.Letext0:
 1253              		.file 2 "/root/Linux-Dev/Car-IV-Firmware/Tools/gcc-arm-none-eabi-10.3-2021.10/arm-none-eabi/includ
 1254              		.file 3 "/root/Linux-Dev/Car-IV-Firmware/Tools/gcc-arm-none-eabi-10.3-2021.10/arm-none-eabi/includ
 1255              		.file 4 "../Resources/Drivers/CMSIS/Include/core_cm4.h"
 1256              		.file 5 "../Resources/Drivers/CMSIS/Device/ST/STM32L4xx/Include/stm32l476xx.h"
 1257              		.file 6 "../Resources/Drivers/STM32L4xx_HAL_Driver/Inc/stm32l4xx_hal_def.h"
 1258              		.file 7 "../Resources/Drivers/STM32L4xx_HAL_Driver/Inc/stm32l4xx_hal.h"
 1259              		.file 8 "../Resources/Drivers/CMSIS/Device/ST/STM32L4xx/Include/system_stm32l4xx.h"
 1260              		.file 9 "../Resources/Drivers/STM32L4xx_HAL_Driver/Inc/stm32l4xx_hal_cortex.h"
ARM GAS  /tmp/ccCbeSgG.s 			page 36

